; Listing generated by Microsoft (R) Optimizing Compiler Version 17.00.50727.114 

	TTL	C:\wince800\platform\rrm_ppc_windows\src\drivers\pm\mdd\pmdisplay.cpp
	THUMB

  00000			 AREA	 |.drectve|, DRECTVE
	DCB	"-defaultlib:LIBCMT "
	DCB	"-defaultlib:OLDNAMES "

	EXPORT	|gDisplayInterface| [ DATA ]

  00000			 AREA	 |.bss|, NOINIT
|gpfnCreateDCW| % 0x4
|gpfnDeleteDC| % 0x4
|gpfnExtEscape| % 0x4
|gfGwesReady| %	0x4

  00000			 AREA	 |.data|, DATA
|gDisplayInterface| DCD |?InitDisplayDeviceInterface@@YAHXZ|
	DCD	|?OpenDisplayDevice@@YAPAXPAU_DeviceState_tag@@@Z|
	DCD	|?CloseDisplayDevice@@YAHPAX@Z|
	DCD	|?RequestDisplayDevice@@YAHPAXK0K0KPAK@Z|
	IMPORT	|__security_push_cookie|
	IMPORT	|__security_pop_cookie|
	IMPORT	|__GSHandlerCheck|
	IMPORT	|StringCchVPrintfW|
	IMPORT	|StringCchLengthW|
	IMPORT	|CeLogData|

  00000			 AREA	 |.pdata|, PDATA
|$pdata1$CeLogMsg| DCD imagerel |$LN8@CeLogMsg|
	DCD	imagerel |$unwind2$CeLogMsg|

  00000			 AREA	 |.xdata|, DATA
|$unwind2$CeLogMsg| DCD 0x44b00032
	DCD	0x1e889e8
	DCD	0x400a8fb
	DCD	0x8801e8ff
	DCD	0xff05ef00
	DCD	imagerel |__GSHandlerCheck|
	DCD	0xffffffe5
; Function compile flags: /Ogsp
; File c:\wince800\public\common\sdk\inc\celog.h

  00000			 AREA	 |.text|, CODE, THUMB

  00000		 |CeLogMsg| PROC

; 1208 : {

  00000		 |$LN8@CeLogMsg|
  00000	b40f		 push        {r0-r3}
  00002	e92d 4800	 push        {r11,lr}
  00006	46eb		 mov         r11,sp
  00008	f000 f800	 bl          __security_push_cookie
  0000c	f2ad 2d24	 subw        sp,sp,#0x224
  00010		 |$M6|
  00010	4602		 mov         r2,r0

; 1209 :     va_list arglist;
; 1210 :     WCHAR   szTemp[MAX_PATH];
; 1211 :     size_t  cchLen;
; 1212 :     HRESULT hr;
; 1213 : 
; 1214 :     // Compose a single string using the input args
; 1215 :     va_start(arglist, szFormat);
; 1216 :     hr = StringCchVPrintfW(szTemp, MAX_PATH, szFormat, arglist);

  00012	a806		 add         r0,sp,#0x18
  00014	ab8d		 add         r3,sp,#0x234
  00016	f44f 7182	 mov         r1,#0x104
  0001a	928c		 str         r2,[sp,#0x230]
  0001c	f000 f800	 bl          StringCchVPrintfW

; 1217 :     if (SUCCEEDED(hr)) {

  00020	2800		 cmp         r0,#0
  00022	db17		 blt         |$LN1@CeLogMsg|

; 1218 :         hr = StringCchLengthW(szTemp, MAX_PATH, &cchLen);

  00024	aa04		 add         r2,sp,#0x10
  00026	a806		 add         r0,sp,#0x18
  00028	f44f 7182	 mov         r1,#0x104
  0002c	f000 f800	 bl          StringCchLengthW

; 1219 :         if (SUCCEEDED(hr)) {

  00030	2800		 cmp         r0,#0
  00032	db0f		 blt         |$LN1@CeLogMsg|

; 1220 :             CeLogData(TRUE, CELID_RAW_WCHAR, szTemp, (WORD)((cchLen + 1) * sizeof(WCHAR)),
; 1221 :                       0, CELZONE_ALWAYSON, 0, FALSE);

  00034	f04f 4380	 mov         r3,#0x40000000
  00038	9301		 str         r3,[sp,#4]
  0003a	9b04		 ldr         r3,[sp,#0x10]
  0003c	2200		 movs        r2,#0
  0003e	9203		 str         r2,[sp,#0xC]
  00040	3301		 adds        r3,#1
  00042	005b		 lsls        r3,r3,#1
  00044	9202		 str         r2,[sp,#8]
  00046	9200		 str         r2,[sp]
  00048	aa06		 add         r2,sp,#0x18
  0004a	214a		 movs        r1,#0x4A
  0004c	b29b		 uxth        r3,r3
  0004e	2001		 movs        r0,#1
  00050	f000 f800	 bl          CeLogData
  00054		 |$LN1@CeLogMsg|
  00054		 |$M9|

; 1222 :         }
; 1223 :     }
; 1224 : }

  00054	f20d 2d24	 addw        sp,sp,#0x224
  00058	f000 f800	 bl          __security_pop_cookie
  0005c	f85d bb04	 pop         {r11}
  00060	f85d fb14	 ldr         pc,[sp],#0x14
  00064		 |$M7|

			 ENDP  ; |CeLogMsg|

	EXPORT	|??_C@_1FK@FNONLNGN@?$AA?$CF?$AAs?$AA?3?$AA?5?$AAD?$AAE?$AAB?$AAU?$AAG?$AAC?$AAH?$AAK?$AA?5?$AAf?$AAa?$AAi?$AAl?$AAe?$AAd?$AA?5?$AAi?$AAn?$AA?5?$AAf?$AAi?$AAl?$AAe?$AA?5?$AA?$CF?$AAs?$AA?5?$AAa@| [ DATA ] ; `string'
	EXPORT	|??_C@_1IM@KHGGJINK@?$AAc?$AA?3?$AA?2?$AAw?$AAi?$AAn?$AAc?$AAe?$AA8?$AA0?$AA0?$AA?2?$AAp?$AAl?$AAa?$AAt?$AAf?$AAo?$AAr?$AAm?$AA?2?$AAr?$AAr?$AAm?$AA_?$AAp?$AAp?$AAc?$AA_?$AAw?$AAi?$AAn@| [ DATA ] ; `string'
	EXPORT	|??_C@_1DC@NLFIAHNJ@?$AAI?$AAO?$AAC?$AAT?$AAL?$AA_?$AAP?$AAO?$AAW?$AAE?$AAR?$AA_?$AAC?$AAA?$AAP?$AAA?$AAB?$AAI?$AAL?$AAI?$AAT?$AAI?$AAE?$AAS?$AA?$AA@| [ DATA ] ; `string'
	EXPORT	|??_C@_1CA@NEAJAFDG@?$AAI?$AAO?$AAC?$AAT?$AAL?$AA_?$AAP?$AAO?$AAW?$AAE?$AAR?$AA_?$AAG?$AAE?$AAT?$AA?$AA@| [ DATA ] ; `string'
	EXPORT	|??_C@_1CA@CMPIDKOH@?$AAI?$AAO?$AAC?$AAT?$AAL?$AA_?$AAP?$AAO?$AAW?$AAE?$AAR?$AA_?$AAS?$AAE?$AAT?$AA?$AA@| [ DATA ] ; `string'
	EXPORT	|??_C@_1CE@CONJIH@?$AAI?$AAO?$AAC?$AAT?$AAL?$AA_?$AAP?$AAO?$AAW?$AAE?$AAR?$AA_?$AAQ?$AAU?$AAE?$AAR?$AAY?$AA?$AA@| [ DATA ] ; `string'
	EXPORT	|??_C@_1EE@EJIINHMD@?$AAI?$AAO?$AAC?$AAT?$AAL?$AA_?$AAR?$AAE?$AAG?$AAI?$AAS?$AAT?$AAE?$AAR?$AA_?$AAP?$AAO?$AAW?$AAE?$AAR?$AA_?$AAR?$AAE?$AAL?$AAA?$AAT?$AAI?$AAO?$AAN?$AAS?$AAH?$AAI@| [ DATA ] ; `string'
	EXPORT	|??_C@_1BE@GFCJAFPH@?$AA?$DM?$AAU?$AAN?$AAK?$AAN?$AAO?$AAW?$AAN?$AA?$DO?$AA?$AA@| [ DATA ] ; `string'
	EXPORT	|??_C@_1GK@FEBAAHFK@?$AA?$CF?$AAs?$AA?3?$AA?5?$AAc?$AAa?$AAl?$AAl?$AAi?$AAn?$AAg?$AA?5?$AAE?$AAx?$AAt?$AAE?$AAs?$AAc?$AAa?$AAp?$AAe?$AA?$CI?$AA0?$AAx?$AA?$CF?$AA0?$AA8?$AAx?$AA?$CJ?$AA?5?$AAw?$AA?1@| [ DATA ] ; `string'
	EXPORT	|??_C@_1CK@GFBKGKH@?$AAR?$AAe?$AAq?$AAu?$AAe?$AAs?$AAt?$AAD?$AAi?$AAs?$AAp?$AAl?$AAa?$AAy?$AAD?$AAe?$AAv?$AAi?$AAc?$AAe?$AA?$AA@| [ DATA ] ; `string'
	EXPORT	|??_C@_1EO@MFPADMDA@?$AA?$CF?$AAs?$AA?3?$AA?5?$AAe?$AAx?$AAc?$AAe?$AAp?$AAt?$AAi?$AAo?$AAn?$AA?5?$AAi?$AAn?$AA?5?$AAD?$AAe?$AAv?$AAi?$AAc?$AAe?$AAI?$AAo?$AAC?$AAo?$AAn?$AAt?$AAr?$AAo?$AAl@| [ DATA ] ; `string'
	EXPORT	|??_C@_1GO@OABAJFNF@?$AA?$CF?$AAs?$AA?3?$AA?5?$AAD?$AAe?$AAv?$AAi?$AAc?$AAe?$AAI?$AAo?$AAC?$AAo?$AAn?$AAt?$AAr?$AAo?$AAl?$AA?$CI?$AA?$CF?$AAd?$AA?$CJ?$AA?5?$AAt?$AAo?$AA?5?$AA0?$AAx?$AA?$CF?$AA0?$AA8@| [ DATA ] ; `string'
	IMPORT	|dpCurSettings|
	IMPORT	|__C_specific_handler|
	IMPORT	|NKDbgPrintfW|
	IMPORT	|GetLastError|

  00008			 AREA	 |.pdata|, PDATA
|$pdata1$?RequestDisplayDevice@@YAHPAXK0K0KPAK@Z| DCD imagerel |$LN61@RequestDis|
	DCD	imagerel |$unwind2$?RequestDisplayDevice@@YAHPAXK0K0KPAK@Z|

  0001c			 AREA	 |.xdata|, DATA
	%	4
|$unwind2$?RequestDisplayDevice@@YAHPAXK0K0KPAK@Z| DCD 0x333000f3
	DCD	0xfeaffcc7
	DCD	0xefdbff04
	DCD	0xff05
	DCD	imagerel |__C_specific_handler|
	DCD	0x1
	DCD	imagerel |$LN48@RequestDis|
	DCD	imagerel |$LN49@RequestDis|
	DCD	0x1
	DCD	imagerel |$LN45@RequestDis|

  00000			 AREA	 |.rdata|, DATA, READONLY
|??_C@_1GO@OABAJFNF@?$AA?$CF?$AAs?$AA?3?$AA?5?$AAD?$AAe?$AAv?$AAi?$AAc?$AAe?$AAI?$AAo?$AAC?$AAo?$AAn?$AAt?$AAr?$AAo?$AAl?$AA?$CI?$AA?$CF?$AAd?$AA?$CJ?$AA?5?$AAt?$AAo?$AA?5?$AA0?$AAx?$AA?$CF?$AA0?$AA8@| DCB "%"
	DCB	0x0, "s", 0x0, ":", 0x0, " ", 0x0, "D", 0x0, "e", 0x0, "v"
	DCB	0x0, "i", 0x0, "c", 0x0, "e", 0x0, "I", 0x0, "o", 0x0, "C"
	DCB	0x0, "o", 0x0, "n", 0x0, "t", 0x0, "r", 0x0, "o", 0x0, "l"
	DCB	0x0, "(", 0x0, "%", 0x0, "d", 0x0, ")", 0x0, " ", 0x0, "t"
	DCB	0x0, "o", 0x0, " ", 0x0, "0", 0x0, "x", 0x0, "%", 0x0, "0"
	DCB	0x0, "8", 0x0, "x", 0x0, " ", 0x0, "f", 0x0, "a", 0x0, "i"
	DCB	0x0, "l", 0x0, "e", 0x0, "d", 0x0, " ", 0x0, "%", 0x0, "d"
	DCB	0x0, " ", 0x0, "(", 0x0, "0", 0x0, "x", 0x0, "%", 0x0, "0"
	DCB	0x0, "8", 0x0, "x", 0x0, ")", 0x0, 0xd, 0x0, 0xa, 0x0, 0x0
	DCB	0x0					; `string'

  00000			 AREA	 |.rdata|, DATA, READONLY
|??_C@_1EO@MFPADMDA@?$AA?$CF?$AAs?$AA?3?$AA?5?$AAe?$AAx?$AAc?$AAe?$AAp?$AAt?$AAi?$AAo?$AAn?$AA?5?$AAi?$AAn?$AA?5?$AAD?$AAe?$AAv?$AAi?$AAc?$AAe?$AAI?$AAo?$AAC?$AAo?$AAn?$AAt?$AAr?$AAo?$AAl@| DCB "%"
	DCB	0x0, "s", 0x0, ":", 0x0, " ", 0x0, "e", 0x0, "x", 0x0, "c"
	DCB	0x0, "e", 0x0, "p", 0x0, "t", 0x0, "i", 0x0, "o", 0x0, "n"
	DCB	0x0, " ", 0x0, "i", 0x0, "n", 0x0, " ", 0x0, "D", 0x0, "e"
	DCB	0x0, "v", 0x0, "i", 0x0, "c", 0x0, "e", 0x0, "I", 0x0, "o"
	DCB	0x0, "C", 0x0, "o", 0x0, "n", 0x0, "t", 0x0, "r", 0x0, "o"
	DCB	0x0, "l", 0x0, "(", 0x0, "%", 0x0, "d", 0x0, ")", 0x0, 0xd
	DCB	0x0, 0xa, 0x0, 0x0, 0x0			; `string'

  00000			 AREA	 |.rdata|, DATA, READONLY
|??_C@_1CK@GFBKGKH@?$AAR?$AAe?$AAq?$AAu?$AAe?$AAs?$AAt?$AAD?$AAi?$AAs?$AAp?$AAl?$AAa?$AAy?$AAD?$AAe?$AAv?$AAi?$AAc?$AAe?$AA?$AA@| DCB "R"
	DCB	0x0, "e", 0x0, "q", 0x0, "u", 0x0, "e", 0x0, "s", 0x0, "t"
	DCB	0x0, "D", 0x0, "i", 0x0, "s", 0x0, "p", 0x0, "l", 0x0, "a"
	DCB	0x0, "y", 0x0, "D", 0x0, "e", 0x0, "v", 0x0, "i", 0x0, "c"
	DCB	0x0, "e", 0x0, 0x0, 0x0			; `string'

  00000			 AREA	 |.rdata|, DATA, READONLY
|??_C@_1GK@FEBAAHFK@?$AA?$CF?$AAs?$AA?3?$AA?5?$AAc?$AAa?$AAl?$AAl?$AAi?$AAn?$AAg?$AA?5?$AAE?$AAx?$AAt?$AAE?$AAs?$AAc?$AAa?$AAp?$AAe?$AA?$CI?$AA0?$AAx?$AA?$CF?$AA0?$AA8?$AAx?$AA?$CJ?$AA?5?$AAw?$AA?1@| DCB "%"
	DCB	0x0, "s", 0x0, ":", 0x0, " ", 0x0, "c", 0x0, "a", 0x0, "l"
	DCB	0x0, "l", 0x0, "i", 0x0, "n", 0x0, "g", 0x0, " ", 0x0, "E"
	DCB	0x0, "x", 0x0, "t", 0x0, "E", 0x0, "s", 0x0, "c", 0x0, "a"
	DCB	0x0, "p", 0x0, "e", 0x0, "(", 0x0, "0", 0x0, "x", 0x0, "%"
	DCB	0x0, "0", 0x0, "8", 0x0, "x", 0x0, ")", 0x0, " ", 0x0, "w"
	DCB	0x0, "/", 0x0, " ", 0x0, "r", 0x0, "e", 0x0, "q", 0x0, "u"
	DCB	0x0, "e", 0x0, "s", 0x0, "t", 0x0, " ", 0x0, "%", 0x0, "d"
	DCB	0x0, " ", 0x0, "(", 0x0, "'", 0x0, "%", 0x0, "s", 0x0, "'"
	DCB	0x0, ")", 0x0, 0xd, 0x0, 0xa, 0x0, 0x0, 0x0 ; `string'

  00000			 AREA	 |.rdata|, DATA, READONLY
|??_C@_1BE@GFCJAFPH@?$AA?$DM?$AAU?$AAN?$AAK?$AAN?$AAO?$AAW?$AAN?$AA?$DO?$AA?$AA@| DCB "<"
	DCB	0x0, "U", 0x0, "N", 0x0, "K", 0x0, "N", 0x0, "O", 0x0, "W"
	DCB	0x0, "N", 0x0, ">", 0x0, 0x0, 0x0	; `string'

  00000			 AREA	 |.rdata|, DATA, READONLY
|??_C@_1EE@EJIINHMD@?$AAI?$AAO?$AAC?$AAT?$AAL?$AA_?$AAR?$AAE?$AAG?$AAI?$AAS?$AAT?$AAE?$AAR?$AA_?$AAP?$AAO?$AAW?$AAE?$AAR?$AA_?$AAR?$AAE?$AAL?$AAA?$AAT?$AAI?$AAO?$AAN?$AAS?$AAH?$AAI@| DCB "I"
	DCB	0x0, "O", 0x0, "C", 0x0, "T", 0x0, "L", 0x0, "_", 0x0, "R"
	DCB	0x0, "E", 0x0, "G", 0x0, "I", 0x0, "S", 0x0, "T", 0x0, "E"
	DCB	0x0, "R", 0x0, "_", 0x0, "P", 0x0, "O", 0x0, "W", 0x0, "E"
	DCB	0x0, "R", 0x0, "_", 0x0, "R", 0x0, "E", 0x0, "L", 0x0, "A"
	DCB	0x0, "T", 0x0, "I", 0x0, "O", 0x0, "N", 0x0, "S", 0x0, "H"
	DCB	0x0, "I", 0x0, "P", 0x0, 0x0, 0x0	; `string'

  00000			 AREA	 |.rdata|, DATA, READONLY
|??_C@_1CE@CONJIH@?$AAI?$AAO?$AAC?$AAT?$AAL?$AA_?$AAP?$AAO?$AAW?$AAE?$AAR?$AA_?$AAQ?$AAU?$AAE?$AAR?$AAY?$AA?$AA@| DCB "I"
	DCB	0x0, "O", 0x0, "C", 0x0, "T", 0x0, "L", 0x0, "_", 0x0, "P"
	DCB	0x0, "O", 0x0, "W", 0x0, "E", 0x0, "R", 0x0, "_", 0x0, "Q"
	DCB	0x0, "U", 0x0, "E", 0x0, "R", 0x0, "Y", 0x0, 0x0, 0x0 ; `string'

  00000			 AREA	 |.rdata|, DATA, READONLY
|??_C@_1CA@CMPIDKOH@?$AAI?$AAO?$AAC?$AAT?$AAL?$AA_?$AAP?$AAO?$AAW?$AAE?$AAR?$AA_?$AAS?$AAE?$AAT?$AA?$AA@| DCB "I"
	DCB	0x0, "O", 0x0, "C", 0x0, "T", 0x0, "L", 0x0, "_", 0x0, "P"
	DCB	0x0, "O", 0x0, "W", 0x0, "E", 0x0, "R", 0x0, "_", 0x0, "S"
	DCB	0x0, "E", 0x0, "T", 0x0, 0x0, 0x0	; `string'

  00000			 AREA	 |.rdata|, DATA, READONLY
|??_C@_1CA@NEAJAFDG@?$AAI?$AAO?$AAC?$AAT?$AAL?$AA_?$AAP?$AAO?$AAW?$AAE?$AAR?$AA_?$AAG?$AAE?$AAT?$AA?$AA@| DCB "I"
	DCB	0x0, "O", 0x0, "C", 0x0, "T", 0x0, "L", 0x0, "_", 0x0, "P"
	DCB	0x0, "O", 0x0, "W", 0x0, "E", 0x0, "R", 0x0, "_", 0x0, "G"
	DCB	0x0, "E", 0x0, "T", 0x0, 0x0, 0x0	; `string'

  00000			 AREA	 |.rdata|, DATA, READONLY
|??_C@_1DC@NLFIAHNJ@?$AAI?$AAO?$AAC?$AAT?$AAL?$AA_?$AAP?$AAO?$AAW?$AAE?$AAR?$AA_?$AAC?$AAA?$AAP?$AAA?$AAB?$AAI?$AAL?$AAI?$AAT?$AAI?$AAE?$AAS?$AA?$AA@| DCB "I"
	DCB	0x0, "O", 0x0, "C", 0x0, "T", 0x0, "L", 0x0, "_", 0x0, "P"
	DCB	0x0, "O", 0x0, "W", 0x0, "E", 0x0, "R", 0x0, "_", 0x0, "C"
	DCB	0x0, "A", 0x0, "P", 0x0, "A", 0x0, "B", 0x0, "I", 0x0, "L"
	DCB	0x0, "I", 0x0, "T", 0x0, "I", 0x0, "E", 0x0, "S", 0x0, 0x0
	DCB	0x0					; `string'

  00000			 AREA	 |.rdata|, DATA, READONLY
|??_C@_1IM@KHGGJINK@?$AAc?$AA?3?$AA?2?$AAw?$AAi?$AAn?$AAc?$AAe?$AA8?$AA0?$AA0?$AA?2?$AAp?$AAl?$AAa?$AAt?$AAf?$AAo?$AAr?$AAm?$AA?2?$AAr?$AAr?$AAm?$AA_?$AAp?$AAp?$AAc?$AA_?$AAw?$AAi?$AAn@| DCB "c"
	DCB	0x0, ":", 0x0, "\\", 0x0, "w", 0x0, "i", 0x0, "n", 0x0, "c"
	DCB	0x0, "e", 0x0, "8", 0x0, "0", 0x0, "0", 0x0, "\\", 0x0, "p"
	DCB	0x0, "l", 0x0, "a", 0x0, "t", 0x0, "f", 0x0, "o", 0x0, "r"
	DCB	0x0, "m", 0x0, "\\", 0x0, "r", 0x0, "r", 0x0, "m", 0x0, "_"
	DCB	0x0, "p", 0x0, "p", 0x0, "c", 0x0, "_", 0x0, "w", 0x0, "i"
	DCB	0x0, "n", 0x0, "d", 0x0, "o", 0x0, "w", 0x0, "s", 0x0, "\\"
	DCB	0x0, "s", 0x0, "r", 0x0, "c", 0x0, "\\", 0x0, "d", 0x0, "r"
	DCB	0x0, "i", 0x0, "v", 0x0, "e", 0x0, "r", 0x0, "s", 0x0, "\\"
	DCB	0x0, "p", 0x0, "m", 0x0, "\\", 0x0, "m", 0x0, "d", 0x0, "d"
	DCB	0x0, "\\", 0x0, "p", 0x0, "m", 0x0, "d", 0x0, "i", 0x0, "s"
	DCB	0x0, "p", 0x0, "l", 0x0, "a", 0x0, "y", 0x0, ".", 0x0, "c"
	DCB	0x0, "p", 0x0, "p", 0x0, 0x0, 0x0	; `string'

  00000			 AREA	 |.rdata|, DATA, READONLY
|??_C@_1FK@FNONLNGN@?$AA?$CF?$AAs?$AA?3?$AA?5?$AAD?$AAE?$AAB?$AAU?$AAG?$AAC?$AAH?$AAK?$AA?5?$AAf?$AAa?$AAi?$AAl?$AAe?$AAd?$AA?5?$AAi?$AAn?$AA?5?$AAf?$AAi?$AAl?$AAe?$AA?5?$AA?$CF?$AAs?$AA?5?$AAa@| DCB "%"
	DCB	0x0, "s", 0x0, ":", 0x0, " ", 0x0, "D", 0x0, "E", 0x0, "B"
	DCB	0x0, "U", 0x0, "G", 0x0, "C", 0x0, "H", 0x0, "K", 0x0, " "
	DCB	0x0, "f", 0x0, "a", 0x0, "i", 0x0, "l", 0x0, "e", 0x0, "d"
	DCB	0x0, " ", 0x0, "i", 0x0, "n", 0x0, " ", 0x0, "f", 0x0, "i"
	DCB	0x0, "l", 0x0, "e", 0x0, " ", 0x0, "%", 0x0, "s", 0x0, " "
	DCB	0x0, "a", 0x0, "t", 0x0, " ", 0x0, "l", 0x0, "i", 0x0, "n"
	DCB	0x0, "e", 0x0, " ", 0x0, "%", 0x0, "d", 0x0, " ", 0x0, 0xd
	DCB	0x0, 0xa, 0x0, 0x0, 0x0			; `string'
; Function compile flags: /Ogsp
; File c:\wince800\platform\rrm_ppc_windows\src\drivers\pm\mdd\pmdisplay.cpp

  00064			 AREA	 |.text|, CODE, THUMB

  00064		 |?RequestDisplayDevice@@YAHPAXK0K0KPAK@Z| PROC ; RequestDisplayDevice

; 162  : {

  00064		 |$LN61@RequestDis|
  00064	b40f		 push        {r0-r3}
  00066	e92d 4ffe	 push        {r1-r11,lr}
  0006a	f20d 0b28	 addw        r11,sp,#0x28
  0006e	466f		 mov         r7,sp
  00070	b082		 sub         sp,sp,#8
  00072		 |$LN59@RequestDis|
  00072	607b		 str         r3,[r7,#4]
  00074	603a		 str         r2,[r7]
  00076	460d		 mov         r5,r1
  00078	637d		 str         r5,[r7,#0x34]
  0007a	4682		 mov         r10,r0
  0007c	6338		 str         r0,[r7,#0x30]

; 163  :     BOOL fOk = FALSE;

  0007e	f04f 0800	 mov         r8,#0

; 164  :     int iStatus;
; 165  :     SETFNAME(_T("RequestDisplayDevice"));
; 166  : 
; 167  :     DEBUGCHK(gpfnCreateDCW != NULL);

  00082	f8df 91d8	 ldr         r9,|$LN69@RequestDis| ; =|gpfnCreateDCW|
  00086	f8d9 4000	 ldr         r4,[r9]
  0008a	4e73		 ldr         r6,|$LN68@RequestDis| ; =|dpCurSettings|
  0008c	b934		 cbnz        r4,|$LN7@RequestDis|
  0008e	23a7		 movs        r3,#0xA7
  00090	4a80		 ldr         r2,|$LN83@RequestDis| ; =|??_C@_1IM@KHGGJINK@?$AAc?$AA?3?$AA?2?$AAw?$AAi?$AAn?$AAc?$AAe?$AA8?$AA0?$AA0?$AA?2?$AAp?$AAl?$AAa?$AAt?$AAf?$AAo?$AAr?$AAm?$AA?2?$AAr?$AAr?$AAm?$AA_?$AAp?$AAp?$AAc?$AA_?$AAw?$AAi?$AAn@|
  00092	4631		 mov         r1,r6
  00094	487e		 ldr         r0,|$LN82@RequestDis| ; =|??_C@_1FK@FNONLNGN@?$AA?$CF?$AAs?$AA?3?$AA?5?$AAD?$AAE?$AAB?$AAU?$AAG?$AAC?$AAH?$AAK?$AA?5?$AAf?$AAa?$AAi?$AAl?$AAe?$AAd?$AA?5?$AAi?$AAn?$AA?5?$AAf?$AAi?$AAl?$AAe?$AA?5?$AA?$CF?$AAs?$AA?5?$AAa@|
  00096	f000 f800	 bl          NKDbgPrintfW
  0009a	defe		 __debugbreak
  0009c		 |$LN7@RequestDis|

; 168  :     PREFAST_DEBUGCHK(gpfnDeleteDC != NULL);

  0009c	f8d9 3004	 ldr         r3,[r9,#4]
  000a0	b933		 cbnz        r3,|$LN9@RequestDis|
  000a2	23a8		 movs        r3,#0xA8
  000a4	4a7b		 ldr         r2,|$LN83@RequestDis| ; =|??_C@_1IM@KHGGJINK@?$AAc?$AA?3?$AA?2?$AAw?$AAi?$AAn?$AAc?$AAe?$AA8?$AA0?$AA0?$AA?2?$AAp?$AAl?$AAa?$AAt?$AAf?$AAo?$AAr?$AAm?$AA?2?$AAr?$AAr?$AAm?$AA_?$AAp?$AAp?$AAc?$AA_?$AAw?$AAi?$AAn@|
  000a6	4631		 mov         r1,r6
  000a8	4879		 ldr         r0,|$LN82@RequestDis| ; =|??_C@_1FK@FNONLNGN@?$AA?$CF?$AAs?$AA?3?$AA?5?$AAD?$AAE?$AAB?$AAU?$AAG?$AAC?$AAH?$AAK?$AA?5?$AAf?$AAa?$AAi?$AAl?$AAe?$AAd?$AA?5?$AAi?$AAn?$AA?5?$AAf?$AAi?$AAl?$AAe?$AA?5?$AA?$CF?$AAs?$AA?5?$AAa@|
  000aa	f000 f800	 bl          NKDbgPrintfW
  000ae	defe		 __debugbreak
  000b0		 |$LN9@RequestDis|

; 169  :     PREFAST_DEBUGCHK(gpfnExtEscape != NULL);

  000b0	f8d9 3008	 ldr         r3,[r9,#8]
  000b4	b933		 cbnz        r3,|$LN11@RequestDis|
  000b6	23a9		 movs        r3,#0xA9
  000b8	4a76		 ldr         r2,|$LN83@RequestDis| ; =|??_C@_1IM@KHGGJINK@?$AAc?$AA?3?$AA?2?$AAw?$AAi?$AAn?$AAc?$AAe?$AA8?$AA0?$AA0?$AA?2?$AAp?$AAl?$AAa?$AAt?$AAf?$AAo?$AAr?$AAm?$AA?2?$AAr?$AAr?$AAm?$AA_?$AAp?$AAp?$AAc?$AA_?$AAw?$AAi?$AAn@|
  000ba	4631		 mov         r1,r6
  000bc	4874		 ldr         r0,|$LN82@RequestDis| ; =|??_C@_1FK@FNONLNGN@?$AA?$CF?$AAs?$AA?3?$AA?5?$AAD?$AAE?$AAB?$AAU?$AAG?$AAC?$AAH?$AAK?$AA?5?$AAf?$AAa?$AAi?$AAl?$AAe?$AAd?$AA?5?$AAi?$AAn?$AA?5?$AAf?$AAi?$AAl?$AAe?$AA?5?$AA?$CF?$AAs?$AA?5?$AAa@|
  000be	f000 f800	 bl          NKDbgPrintfW
  000c2	defe		 __debugbreak
  000c4		 |$LN11@RequestDis|

; 170  :     DEBUGCHK(hDevice != NULL && hDevice != INVALID_HANDLE_VALUE);

  000c4	f1ba 0f00	 cmp         r10,#0
  000c8	d002		 beq         |$LN12@RequestDis|
  000ca	f1ba 3fff	 cmp         r10,#0xFFFFFFFF
  000ce	d106		 bne         |$LN13@RequestDis|
  000d0		 |$LN12@RequestDis|
  000d0	23aa		 movs        r3,#0xAA
  000d2	4a70		 ldr         r2,|$LN83@RequestDis| ; =|??_C@_1IM@KHGGJINK@?$AAc?$AA?3?$AA?2?$AAw?$AAi?$AAn?$AAc?$AAe?$AA8?$AA0?$AA0?$AA?2?$AAp?$AAl?$AAa?$AAt?$AAf?$AAo?$AAr?$AAm?$AA?2?$AAr?$AAr?$AAm?$AA_?$AAp?$AAp?$AAc?$AA_?$AAw?$AAi?$AAn@|
  000d4	4631		 mov         r1,r6
  000d6	486e		 ldr         r0,|$LN82@RequestDis| ; =|??_C@_1FK@FNONLNGN@?$AA?$CF?$AAs?$AA?3?$AA?5?$AAD?$AAE?$AAB?$AAU?$AAG?$AAC?$AAH?$AAK?$AA?5?$AAf?$AAa?$AAi?$AAl?$AAe?$AAd?$AA?5?$AAi?$AAn?$AA?5?$AAf?$AAi?$AAl?$AAe?$AA?5?$AA?$CF?$AAs?$AA?5?$AAa@|
  000d8	f000 f800	 bl          NKDbgPrintfW
  000dc	defe		 __debugbreak
  000de		 |$LN13@RequestDis|

; 171  :     DEBUGCHK(gfGwesReady);

  000de	f8d9 300c	 ldr         r3,[r9,#0xC]
  000e2	b933		 cbnz        r3,|$LN15@RequestDis|
  000e4	23ab		 movs        r3,#0xAB
  000e6	4a6b		 ldr         r2,|$LN83@RequestDis| ; =|??_C@_1IM@KHGGJINK@?$AAc?$AA?3?$AA?2?$AAw?$AAi?$AAn?$AAc?$AAe?$AA8?$AA0?$AA0?$AA?2?$AAp?$AAl?$AAa?$AAt?$AAf?$AAo?$AAr?$AAm?$AA?2?$AAr?$AAr?$AAm?$AA_?$AAp?$AAp?$AAc?$AA_?$AAw?$AAi?$AAn@|
  000e8	4631		 mov         r1,r6
  000ea	4869		 ldr         r0,|$LN82@RequestDis| ; =|??_C@_1FK@FNONLNGN@?$AA?$CF?$AAs?$AA?3?$AA?5?$AAD?$AAE?$AAB?$AAU?$AAG?$AAC?$AAH?$AAK?$AA?5?$AAf?$AAa?$AAi?$AAl?$AAe?$AAd?$AA?5?$AAi?$AAn?$AA?5?$AAf?$AAi?$AAl?$AAe?$AA?5?$AA?$CF?$AAs?$AA?5?$AAa@|
  000ec	f000 f800	 bl          NKDbgPrintfW
  000f0	defe		 __debugbreak
  000f2		 |$LN15@RequestDis|
  000f2		 |$LN48@RequestDis|

; 172  : 
; 173  :     __try {
; 174  :         PMLOGMSG(ZONE_IOCTL, (_T("%s: calling ExtEscape(0x%08x) w/ request %d ('%s')\r\n"),
; 175  :             pszFname, hDevice, dwRequest, 
; 176  :             dwRequest == IOCTL_POWER_CAPABILITIES ? _T("IOCTL_POWER_CAPABILITIES") 
; 177  :             : dwRequest == IOCTL_POWER_GET ? _T("IOCTL_POWER_GET") 
; 178  :             : dwRequest == IOCTL_POWER_SET ? _T("IOCTL_POWER_SET") 
; 179  :             : dwRequest == IOCTL_POWER_QUERY ? _T("IOCTL_POWER_QUERY") 
; 180  :             : dwRequest == IOCTL_REGISTER_POWER_RELATIONSHIP ? _T("IOCTL_REGISTER_POWER_RELATIONSHIP")
; 181  :             : _T("<UNKNOWN>")));

  000f2	f8d6 3440	 ldr         r3,[r6,#0x440]
  000f6	f013 0f20	 tst         r3,#0x20
  000fa	d045		 beq         |$LN54@RequestDis|
  000fc	4b61		 ldr         r3,|$LN79@RequestDis| ; =0x321000
  000fe	429d		 cmp         r5,r3
  00100	d104		 bne         |$LN24@RequestDis|
  00102	4c61		 ldr         r4,|$LN80@RequestDis| ; =|??_C@_1DC@NLFIAHNJ@?$AAI?$AAO?$AAC?$AAT?$AAL?$AA_?$AAP?$AAO?$AAW?$AAE?$AAR?$AA_?$AAC?$AAA?$AAP?$AAA?$AAB?$AAI?$AAL?$AAI?$AAT?$AAI?$AAE?$AAS?$AA?$AA@|
  00104	4623		 mov         r3,r4
  00106	f8df 9184	 ldr         r9,|$LN81@RequestDis| ; =0x321018
  0010a	e018		 b           |$LN17@RequestDis|
  0010c		 |$LN24@RequestDis|
  0010c	4b5c		 ldr         r3,|$LN78@RequestDis| ; =0x321004
  0010e	429d		 cmp         r5,r3
  00110	d103		 bne         |$LN22@RequestDis|
  00112	4b5a		 ldr         r3,|$LN77@RequestDis| ; =|??_C@_1CA@NEAJAFDG@?$AAI?$AAO?$AAC?$AAT?$AAL?$AA_?$AAP?$AAO?$AAW?$AAE?$AAR?$AA_?$AAG?$AAE?$AAT?$AA?$AA@|
  00114		 |$LN58@RequestDis|
  00114	f8df 9174	 ldr         r9,|$LN81@RequestDis| ; =0x321018
  00118	e010		 b           |$LN57@RequestDis|
  0011a		 |$LN22@RequestDis|
  0011a	4b57		 ldr         r3,|$LN76@RequestDis| ; =0x321008
  0011c	429d		 cmp         r5,r3
  0011e	d101		 bne         |$LN20@RequestDis|
  00120	4b54		 ldr         r3,|$LN75@RequestDis| ; =|??_C@_1CA@CMPIDKOH@?$AAI?$AAO?$AAC?$AAT?$AAL?$AA_?$AAP?$AAO?$AAW?$AAE?$AAR?$AA_?$AAS?$AAE?$AAT?$AA?$AA@|
  00122	e7f7		 b           |$LN58@RequestDis|
  00124		 |$LN20@RequestDis|
  00124	4b52		 ldr         r3,|$LN74@RequestDis| ; =0x32100c
  00126	429d		 cmp         r5,r3
  00128	f8df 9160	 ldr         r9,|$LN81@RequestDis| ; =0x321018
  0012c	d101		 bne         |$LN18@RequestDis|
  0012e	4b4f		 ldr         r3,|$LN73@RequestDis| ; =|??_C@_1CE@CONJIH@?$AAI?$AAO?$AAC?$AAT?$AAL?$AA_?$AAP?$AAO?$AAW?$AAE?$AAR?$AA_?$AAQ?$AAU?$AAE?$AAR?$AAY?$AA?$AA@|
  00130	e004		 b           |$LN57@RequestDis|
  00132		 |$LN18@RequestDis|
  00132	454d		 cmp         r5,r9
  00134	d101		 bne         |$LN16@RequestDis|
  00136	4b4c		 ldr         r3,|$LN72@RequestDis| ; =|??_C@_1EE@EJIINHMD@?$AAI?$AAO?$AAC?$AAT?$AAL?$AA_?$AAR?$AAE?$AAG?$AAI?$AAS?$AAT?$AAE?$AAR?$AA_?$AAP?$AAO?$AAW?$AAE?$AAR?$AA_?$AAR?$AAE?$AAL?$AAA?$AAT?$AAI?$AAO?$AAN?$AAS?$AAH?$AAI@|
  00138	e000		 b           |$LN57@RequestDis|
  0013a		 |$LN16@RequestDis|
  0013a	4b4a		 ldr         r3,|$LN71@RequestDis| ; =|??_C@_1BE@GFCJAFPH@?$AA?$DM?$AAU?$AAN?$AAK?$AAN?$AAO?$AAW?$AAN?$AA?$DO?$AA?$AA@|
  0013c		 |$LN57@RequestDis|
  0013c	4c52		 ldr         r4,|$LN80@RequestDis| ; =|??_C@_1DC@NLFIAHNJ@?$AAI?$AAO?$AAC?$AAT?$AAL?$AA_?$AAP?$AAO?$AAW?$AAE?$AAR?$AA_?$AAC?$AAA?$AAP?$AAA?$AAB?$AAI?$AAL?$AAI?$AAT?$AAI?$AAE?$AAS?$AA?$AA@|
  0013e		 |$LN17@RequestDis|
  0013e	9300		 str         r3,[sp]
  00140	462b		 mov         r3,r5
  00142	4652		 mov         r2,r10
  00144	4942		 ldr         r1,|$LN66@RequestDis| ; =|??_C@_1CK@GFBKGKH@?$AAR?$AAe?$AAq?$AAu?$AAe?$AAs?$AAt?$AAD?$AAi?$AAs?$AAp?$AAl?$AAa?$AAy?$AAD?$AAe?$AAv?$AAi?$AAc?$AAe?$AA?$AA@|
  00146	4846		 ldr         r0,|$LN70@RequestDis| ; =|??_C@_1GK@FEBAAHFK@?$AA?$CF?$AAs?$AA?3?$AA?5?$AAc?$AAa?$AAl?$AAl?$AAi?$AAn?$AAg?$AA?5?$AAE?$AAx?$AAt?$AAE?$AAs?$AAc?$AAa?$AAp?$AAe?$AA?$CI?$AA0?$AAx?$AA?$CF?$AA0?$AA8?$AAx?$AA?$CJ?$AA?5?$AAw?$AA?1@|
  00148	f000 f800	 bl          NKDbgPrintfW
  0014c	4b4d		 ldr         r3,|$LN79@RequestDis| ; =0x321000
  0014e	429d		 cmp         r5,r3
  00150	d013		 beq         |$LN27@RequestDis|
  00152	4b4b		 ldr         r3,|$LN78@RequestDis| ; =0x321004
  00154	429d		 cmp         r5,r3
  00156	d101		 bne         |$LN32@RequestDis|
  00158	4c48		 ldr         r4,|$LN77@RequestDis| ; =|??_C@_1CA@NEAJAFDG@?$AAI?$AAO?$AAC?$AAT?$AAL?$AA_?$AAP?$AAO?$AAW?$AAE?$AAR?$AA_?$AAG?$AAE?$AAT?$AA?$AA@|
  0015a	e00e		 b           |$LN27@RequestDis|
  0015c		 |$LN32@RequestDis|
  0015c	4b46		 ldr         r3,|$LN76@RequestDis| ; =0x321008
  0015e	429d		 cmp         r5,r3
  00160	d101		 bne         |$LN30@RequestDis|
  00162	4c44		 ldr         r4,|$LN75@RequestDis| ; =|??_C@_1CA@CMPIDKOH@?$AAI?$AAO?$AAC?$AAT?$AAL?$AA_?$AAP?$AAO?$AAW?$AAE?$AAR?$AA_?$AAS?$AAE?$AAT?$AA?$AA@|
  00164	e009		 b           |$LN27@RequestDis|
  00166		 |$LN30@RequestDis|
  00166	4b42		 ldr         r3,|$LN74@RequestDis| ; =0x32100c
  00168	429d		 cmp         r5,r3
  0016a	d101		 bne         |$LN28@RequestDis|
  0016c	4c3f		 ldr         r4,|$LN73@RequestDis| ; =|??_C@_1CE@CONJIH@?$AAI?$AAO?$AAC?$AAT?$AAL?$AA_?$AAP?$AAO?$AAW?$AAE?$AAR?$AA_?$AAQ?$AAU?$AAE?$AAR?$AAY?$AA?$AA@|
  0016e	e004		 b           |$LN27@RequestDis|
  00170		 |$LN28@RequestDis|
  00170	454d		 cmp         r5,r9
  00172	d101		 bne         |$LN26@RequestDis|
  00174	4c3c		 ldr         r4,|$LN72@RequestDis| ; =|??_C@_1EE@EJIINHMD@?$AAI?$AAO?$AAC?$AAT?$AAL?$AA_?$AAR?$AAE?$AAG?$AAI?$AAS?$AAT?$AAE?$AAR?$AA_?$AAP?$AAO?$AAW?$AAE?$AAR?$AA_?$AAR?$AAE?$AAL?$AAA?$AAT?$AAI?$AAO?$AAN?$AAS?$AAH?$AAI@|
  00176	e000		 b           |$LN27@RequestDis|
  00178		 |$LN26@RequestDis|
  00178	4c3a		 ldr         r4,|$LN71@RequestDis| ; =|??_C@_1BE@GFCJAFPH@?$AA?$DM?$AAU?$AAN?$AAK?$AAN?$AAO?$AAW?$AAN?$AA?$DO?$AA?$AA@|
  0017a		 |$LN27@RequestDis|
  0017a	9400		 str         r4,[sp]
  0017c	462b		 mov         r3,r5
  0017e	4652		 mov         r2,r10
  00180	4933		 ldr         r1,|$LN66@RequestDis| ; =|??_C@_1CK@GFBKGKH@?$AAR?$AAe?$AAq?$AAu?$AAe?$AAs?$AAt?$AAD?$AAi?$AAs?$AAp?$AAl?$AAa?$AAy?$AAD?$AAe?$AAv?$AAi?$AAc?$AAe?$AA?$AA@|
  00182	4837		 ldr         r0,|$LN70@RequestDis| ; =|??_C@_1GK@FEBAAHFK@?$AA?$CF?$AAs?$AA?3?$AA?5?$AAc?$AAa?$AAl?$AAl?$AAi?$AAn?$AAg?$AA?5?$AAE?$AAx?$AAt?$AAE?$AAs?$AAc?$AAa?$AAp?$AAe?$AA?$CI?$AA0?$AAx?$AA?$CF?$AA0?$AA8?$AAx?$AA?$CJ?$AA?5?$AAw?$AA?1@|
  00184	f000 f800	 bl          CeLogMsg
  00188		 |$LN54@RequestDis|

; 182  :         iStatus = gpfnExtEscape((HDC) hDevice, dwRequest, dwInSize, (LPCSTR) pInBuf, 
; 183  :             dwOutSize, (LPSTR) pOutBuf);

  00188	6c3b		 ldr         r3,[r7,#0x40]
  0018a	9301		 str         r3,[sp,#4]
  0018c	f8d7 9044	 ldr         r9,[r7,#0x44]
  00190	f8cd 9000	 str         r9,[sp]
  00194	683b		 ldr         r3,[r7]
  00196	687a		 ldr         r2,[r7,#4]
  00198	4629		 mov         r1,r5
  0019a	4650		 mov         r0,r10
  0019c	4c2f		 ldr         r4,|$LN69@RequestDis| ; =|gpfnCreateDCW|
  0019e	68a4		 ldr         r4,[r4,#8]
  001a0	47a0		 blx         r4

; 184  :         if(iStatus > 0) {

  001a2	2800		 cmp         r0,#0
  001a4	dd07		 ble         |$LN49@RequestDis|

; 185  :             fOk = TRUE;

  001a6	f04f 0801	 mov         r8,#1
  001aa	f8c7 8008	 str         r8,[r7,#8]

; 186  :             if(pdwBytesRet != NULL) {

  001ae	6cbb		 ldr         r3,[r7,#0x48]
  001b0	b10b		 cbz         r3,|$LN49@RequestDis|

; 187  :                 // need to fill this in with something
; 188  :                 *pdwBytesRet = dwOutSize;

  001b2	f8c3 9000	 str         r9,[r3]
  001b6		 |$LN49@RequestDis|

; 189  :             }
; 190  :         }
; 191  :     }

  001b6	f8d6 3440	 ldr         r3,[r6,#0x440]
  001ba	e01d		 b           |$LN50@RequestDis|
  001bc		 |$LN45@RequestDis|

; 192  :     __except(EXCEPTION_EXECUTE_HANDLER) {
; 193  :         PMLOGMSG(ZONE_WARN || ZONE_IOCTL, (_T("%s: exception in DeviceIoControl(%d)\r\n"), pszFname,
; 194  :             dwRequest));

  001bc	4e26		 ldr         r6,|$LN68@RequestDis| ; =|dpCurSettings|
  001be	f8d6 3440	 ldr         r3,[r6,#0x440]
  001c2	f013 0f02	 tst         r3,#2
  001c6	d104		 bne         |$LN38@RequestDis|
  001c8	f013 0f20	 tst         r3,#0x20
  001cc	d101		 bne         |$LN38@RequestDis|
  001ce	6b7d		 ldr         r5,[r7,#0x34]
  001d0	e00c		 b           |$LN39@RequestDis|
  001d2		 |$LN38@RequestDis|
  001d2	6b7d		 ldr         r5,[r7,#0x34]
  001d4	462a		 mov         r2,r5
  001d6	491e		 ldr         r1,|$LN66@RequestDis| ; =|??_C@_1CK@GFBKGKH@?$AAR?$AAe?$AAq?$AAu?$AAe?$AAs?$AAt?$AAD?$AAi?$AAs?$AAp?$AAl?$AAa?$AAy?$AAD?$AAe?$AAv?$AAi?$AAc?$AAe?$AA?$AA@|
  001d8	481e		 ldr         r0,|$LN67@RequestDis| ; =|??_C@_1EO@MFPADMDA@?$AA?$CF?$AAs?$AA?3?$AA?5?$AAe?$AAx?$AAc?$AAe?$AAp?$AAt?$AAi?$AAo?$AAn?$AA?5?$AAi?$AAn?$AA?5?$AAD?$AAe?$AAv?$AAi?$AAc?$AAe?$AAI?$AAo?$AAC?$AAo?$AAn?$AAt?$AAr?$AAo?$AAl@|
  001da	f000 f800	 bl          NKDbgPrintfW
  001de	462a		 mov         r2,r5
  001e0	491b		 ldr         r1,|$LN66@RequestDis| ; =|??_C@_1CK@GFBKGKH@?$AAR?$AAe?$AAq?$AAu?$AAe?$AAs?$AAt?$AAD?$AAi?$AAs?$AAp?$AAl?$AAa?$AAy?$AAD?$AAe?$AAv?$AAi?$AAc?$AAe?$AA?$AA@|
  001e2	481c		 ldr         r0,|$LN67@RequestDis| ; =|??_C@_1EO@MFPADMDA@?$AA?$CF?$AAs?$AA?3?$AA?5?$AAe?$AAx?$AAc?$AAe?$AAp?$AAt?$AAi?$AAo?$AAn?$AA?5?$AAi?$AAn?$AA?5?$AAD?$AAe?$AAv?$AAi?$AAc?$AAe?$AAI?$AAo?$AAC?$AAo?$AAn?$AAt?$AAr?$AAo?$AAl@|
  001e4	f000 f800	 bl          CeLogMsg
  001e8	f8d6 3440	 ldr         r3,[r6,#0x440]
  001ec		 |$LN39@RequestDis|

; 195  :         fOk = FALSE;

  001ec	f04f 0800	 mov         r8,#0
  001f0	f8c7 8008	 str         r8,[r7,#8]
  001f4	f8d7 a030	 ldr         r10,[r7,#0x30]
  001f8		 |$LN50@RequestDis|

; 196  :     }
; 197  : 
; 198  :     PMLOGMSG(!fOk && (ZONE_WARN || ZONE_IOCTL), 
; 199  :         (_T("%s: DeviceIoControl(%d) to 0x%08x failed %d (0x%08x)\r\n"), pszFname,
; 200  :         dwRequest, hDevice, GetLastError(), GetLastError()));

  001f8	f1b8 0f00	 cmp         r8,#0
  001fc	d11f		 bne         |$LN4@RequestDis|
  001fe	f013 0f02	 tst         r3,#2
  00202	d102		 bne         |$LN40@RequestDis|
  00204	f013 0f20	 tst         r3,#0x20
  00208	d019		 beq         |$LN4@RequestDis|
  0020a		 |$LN40@RequestDis|
  0020a	f000 f800	 bl          GetLastError
  0020e	4604		 mov         r4,r0
  00210	f000 f800	 bl          GetLastError
  00214	9401		 str         r4,[sp,#4]
  00216	9000		 str         r0,[sp]
  00218	4653		 mov         r3,r10
  0021a	462a		 mov         r2,r5
  0021c	490c		 ldr         r1,|$LN66@RequestDis| ; =|??_C@_1CK@GFBKGKH@?$AAR?$AAe?$AAq?$AAu?$AAe?$AAs?$AAt?$AAD?$AAi?$AAs?$AAp?$AAl?$AAa?$AAy?$AAD?$AAe?$AAv?$AAi?$AAc?$AAe?$AA?$AA@|
  0021e	480b		 ldr         r0,|$LN65@RequestDis| ; =|??_C@_1GO@OABAJFNF@?$AA?$CF?$AAs?$AA?3?$AA?5?$AAD?$AAe?$AAv?$AAi?$AAc?$AAe?$AAI?$AAo?$AAC?$AAo?$AAn?$AAt?$AAr?$AAo?$AAl?$AA?$CI?$AA?$CF?$AAd?$AA?$CJ?$AA?5?$AAt?$AAo?$AA?5?$AA0?$AAx?$AA?$CF?$AA0?$AA8@|
  00220	f000 f800	 bl          NKDbgPrintfW
  00224	f000 f800	 bl          GetLastError
  00228	4604		 mov         r4,r0
  0022a	f000 f800	 bl          GetLastError
  0022e	9401		 str         r4,[sp,#4]
  00230	9000		 str         r0,[sp]
  00232	4653		 mov         r3,r10
  00234	462a		 mov         r2,r5
  00236	4906		 ldr         r1,|$LN66@RequestDis| ; =|??_C@_1CK@GFBKGKH@?$AAR?$AAe?$AAq?$AAu?$AAe?$AAs?$AAt?$AAD?$AAi?$AAs?$AAp?$AAl?$AAa?$AAy?$AAD?$AAe?$AAv?$AAi?$AAc?$AAe?$AA?$AA@|
  00238	4804		 ldr         r0,|$LN65@RequestDis| ; =|??_C@_1GO@OABAJFNF@?$AA?$CF?$AAs?$AA?3?$AA?5?$AAD?$AAe?$AAv?$AAi?$AAc?$AAe?$AAI?$AAo?$AAC?$AAo?$AAn?$AAt?$AAr?$AAo?$AAl?$AA?$CI?$AA?$CF?$AAd?$AA?$CJ?$AA?5?$AAt?$AAo?$AA?5?$AA0?$AAx?$AA?$CF?$AA0?$AA8@|
  0023a	f000 f800	 bl          CeLogMsg
  0023e		 |$LN4@RequestDis|

; 201  :     return fOk;
; 202  : }

  0023e	4640		 mov         r0,r8
  00240		 |$M63|
  00240	b005		 add         sp,sp,#0x14
  00242	e8bd 0ff0	 pop         {r4-r11}
  00246	f85d fb14	 ldr         pc,[sp],#0x14
  0024a		 |$LN84@RequestDis|
  0024a		 |$M85|
  0024a	defe		 __debugbreak
  0024c		 |$LN64@RequestDis|
  0024c		 |$LN65@RequestDis|
  0024c	0000 0000	 DCD         |??_C@_1GO@OABAJFNF@?$AA?$CF?$AAs?$AA?3?$AA?5?$AAD?$AAe?$AAv?$AAi?$AAc?$AAe?$AAI?$AAo?$AAC?$AAo?$AAn?$AAt?$AAr?$AAo?$AAl?$AA?$CI?$AA?$CF?$AAd?$AA?$CJ?$AA?5?$AAt?$AAo?$AA?5?$AA0?$AAx?$AA?$CF?$AA0?$AA8@|
  00250		 |$LN66@RequestDis|
  00250	0000 0000	 DCD         |??_C@_1CK@GFBKGKH@?$AAR?$AAe?$AAq?$AAu?$AAe?$AAs?$AAt?$AAD?$AAi?$AAs?$AAp?$AAl?$AAa?$AAy?$AAD?$AAe?$AAv?$AAi?$AAc?$AAe?$AA?$AA@|
  00254		 |$LN67@RequestDis|
  00254	0000 0000	 DCD         |??_C@_1EO@MFPADMDA@?$AA?$CF?$AAs?$AA?3?$AA?5?$AAe?$AAx?$AAc?$AAe?$AAp?$AAt?$AAi?$AAo?$AAn?$AA?5?$AAi?$AAn?$AA?5?$AAD?$AAe?$AAv?$AAi?$AAc?$AAe?$AAI?$AAo?$AAC?$AAo?$AAn?$AAt?$AAr?$AAo?$AAl@|
  00258		 |$LN68@RequestDis|
  00258	0000 0000	 DCD         |dpCurSettings|
  0025c		 |$LN69@RequestDis|
  0025c	0000 0000	 DCD         |gpfnCreateDCW|
  00260		 |$LN70@RequestDis|
  00260	0000 0000	 DCD         |??_C@_1GK@FEBAAHFK@?$AA?$CF?$AAs?$AA?3?$AA?5?$AAc?$AAa?$AAl?$AAl?$AAi?$AAn?$AAg?$AA?5?$AAE?$AAx?$AAt?$AAE?$AAs?$AAc?$AAa?$AAp?$AAe?$AA?$CI?$AA0?$AAx?$AA?$CF?$AA0?$AA8?$AAx?$AA?$CJ?$AA?5?$AAw?$AA?1@|
  00264		 |$LN71@RequestDis|
  00264	0000 0000	 DCD         |??_C@_1BE@GFCJAFPH@?$AA?$DM?$AAU?$AAN?$AAK?$AAN?$AAO?$AAW?$AAN?$AA?$DO?$AA?$AA@|
  00268		 |$LN72@RequestDis|
  00268	0000 0000	 DCD         |??_C@_1EE@EJIINHMD@?$AAI?$AAO?$AAC?$AAT?$AAL?$AA_?$AAR?$AAE?$AAG?$AAI?$AAS?$AAT?$AAE?$AAR?$AA_?$AAP?$AAO?$AAW?$AAE?$AAR?$AA_?$AAR?$AAE?$AAL?$AAA?$AAT?$AAI?$AAO?$AAN?$AAS?$AAH?$AAI@|
  0026c		 |$LN73@RequestDis|
  0026c	0000 0000	 DCD         |??_C@_1CE@CONJIH@?$AAI?$AAO?$AAC?$AAT?$AAL?$AA_?$AAP?$AAO?$AAW?$AAE?$AAR?$AA_?$AAQ?$AAU?$AAE?$AAR?$AAY?$AA?$AA@|
  00270		 |$LN74@RequestDis|
  00270	100c 0032	 DCD         0x32100c
  00274		 |$LN75@RequestDis|
  00274	0000 0000	 DCD         |??_C@_1CA@CMPIDKOH@?$AAI?$AAO?$AAC?$AAT?$AAL?$AA_?$AAP?$AAO?$AAW?$AAE?$AAR?$AA_?$AAS?$AAE?$AAT?$AA?$AA@|
  00278		 |$LN76@RequestDis|
  00278	1008 0032	 DCD         0x321008
  0027c		 |$LN77@RequestDis|
  0027c	0000 0000	 DCD         |??_C@_1CA@NEAJAFDG@?$AAI?$AAO?$AAC?$AAT?$AAL?$AA_?$AAP?$AAO?$AAW?$AAE?$AAR?$AA_?$AAG?$AAE?$AAT?$AA?$AA@|
  00280		 |$LN78@RequestDis|
  00280	1004 0032	 DCD         0x321004
  00284		 |$LN79@RequestDis|
  00284	1000 0032	 DCD         0x321000
  00288		 |$LN80@RequestDis|
  00288	0000 0000	 DCD         |??_C@_1DC@NLFIAHNJ@?$AAI?$AAO?$AAC?$AAT?$AAL?$AA_?$AAP?$AAO?$AAW?$AAE?$AAR?$AA_?$AAC?$AAA?$AAP?$AAA?$AAB?$AAI?$AAL?$AAI?$AAT?$AAI?$AAE?$AAS?$AA?$AA@|
  0028c		 |$LN81@RequestDis|
  0028c	1018 0032	 DCD         0x321018
  00290		 |$LN82@RequestDis|
  00290	0000 0000	 DCD         |??_C@_1FK@FNONLNGN@?$AA?$CF?$AAs?$AA?3?$AA?5?$AAD?$AAE?$AAB?$AAU?$AAG?$AAC?$AAH?$AAK?$AA?5?$AAf?$AAa?$AAi?$AAl?$AAe?$AAd?$AA?5?$AAi?$AAn?$AA?5?$AAf?$AAi?$AAl?$AAe?$AA?5?$AA?$CF?$AAs?$AA?5?$AAa@|
  00294		 |$LN83@RequestDis|
  00294	0000 0000	 DCD         |??_C@_1IM@KHGGJINK@?$AAc?$AA?3?$AA?2?$AAw?$AAi?$AAn?$AAc?$AAe?$AA8?$AA0?$AA0?$AA?2?$AAp?$AAl?$AAa?$AAt?$AAf?$AAo?$AAr?$AAm?$AA?2?$AAr?$AAr?$AAm?$AA_?$AAp?$AAp?$AAc?$AA_?$AAw?$AAi?$AAn@|

			 ENDP  ; |?RequestDisplayDevice@@YAHPAXK0K0KPAK@Z|, RequestDisplayDevice

  00298		 |$LN60@RequestDis|
	EXPORT	|??_C@_1CK@OHDAKAFA@?$AA?$CF?$AAs?$AA?3?$AA?5?$AAc?$AAl?$AAo?$AAs?$AAi?$AAn?$AAg?$AA?5?$AA0?$AAx?$AA?$CF?$AA0?$AA8?$AAx?$AA?$AN?$AA?6?$AA?$AA@| [ DATA ] ; `string'
	EXPORT	|??_C@_1CG@KPJCBOPI@?$AAC?$AAl?$AAo?$AAs?$AAe?$AAD?$AAi?$AAs?$AAp?$AAl?$AAa?$AAy?$AAD?$AAe?$AAv?$AAi?$AAc?$AAe?$AA?$AA@| [ DATA ] ; `string'
	EXPORT	|??_C@_1FE@DCIDGGHM@?$AA?$CF?$AAs?$AA?3?$AA?5?$AAD?$AAe?$AAl?$AAe?$AAt?$AAe?$AAD?$AAC?$AA?$CI?$AA0?$AAx?$AA?$CF?$AA0?$AA8?$AAx?$AA?$CJ?$AA?5?$AAf?$AAa?$AAi?$AAl?$AAe?$AAd?$AA?5?$AA?$CF?$AAd?$AA?5?$AA?$CI@| [ DATA ] ; `string'

  00010			 AREA	 |.pdata|, PDATA
|$pdata1$?CloseDisplayDevice@@YAHPAX@Z| DCD imagerel |$LN21@CloseDispl|
	DCD	0xfdb261c1

  00000			 AREA	 |.rdata|, DATA, READONLY
|??_C@_1FE@DCIDGGHM@?$AA?$CF?$AAs?$AA?3?$AA?5?$AAD?$AAe?$AAl?$AAe?$AAt?$AAe?$AAD?$AAC?$AA?$CI?$AA0?$AAx?$AA?$CF?$AA0?$AA8?$AAx?$AA?$CJ?$AA?5?$AAf?$AAa?$AAi?$AAl?$AAe?$AAd?$AA?5?$AA?$CF?$AAd?$AA?5?$AA?$CI@| DCB "%"
	DCB	0x0, "s", 0x0, ":", 0x0, " ", 0x0, "D", 0x0, "e", 0x0, "l"
	DCB	0x0, "e", 0x0, "t", 0x0, "e", 0x0, "D", 0x0, "C", 0x0, "("
	DCB	0x0, "0", 0x0, "x", 0x0, "%", 0x0, "0", 0x0, "8", 0x0, "x"
	DCB	0x0, ")", 0x0, " ", 0x0, "f", 0x0, "a", 0x0, "i", 0x0, "l"
	DCB	0x0, "e", 0x0, "d", 0x0, " ", 0x0, "%", 0x0, "d", 0x0, " "
	DCB	0x0, "(", 0x0, "0", 0x0, "x", 0x0, "%", 0x0, "0", 0x0, "8"
	DCB	0x0, "x", 0x0, ")", 0x0, 0xd, 0x0, 0xa, 0x0, 0x0, 0x0 ; `string'

  00000			 AREA	 |.rdata|, DATA, READONLY
|??_C@_1CG@KPJCBOPI@?$AAC?$AAl?$AAo?$AAs?$AAe?$AAD?$AAi?$AAs?$AAp?$AAl?$AAa?$AAy?$AAD?$AAe?$AAv?$AAi?$AAc?$AAe?$AA?$AA@| DCB "C"
	DCB	0x0, "l", 0x0, "o", 0x0, "s", 0x0, "e", 0x0, "D", 0x0, "i"
	DCB	0x0, "s", 0x0, "p", 0x0, "l", 0x0, "a", 0x0, "y", 0x0, "D"
	DCB	0x0, "e", 0x0, "v", 0x0, "i", 0x0, "c", 0x0, "e", 0x0, 0x0
	DCB	0x0					; `string'

  00000			 AREA	 |.rdata|, DATA, READONLY
|??_C@_1CK@OHDAKAFA@?$AA?$CF?$AAs?$AA?3?$AA?5?$AAc?$AAl?$AAo?$AAs?$AAi?$AAn?$AAg?$AA?5?$AA0?$AAx?$AA?$CF?$AA0?$AA8?$AAx?$AA?$AN?$AA?6?$AA?$AA@| DCB "%"
	DCB	0x0, "s", 0x0, ":", 0x0, " ", 0x0, "c", 0x0, "l", 0x0, "o"
	DCB	0x0, "s", 0x0, "i", 0x0, "n", 0x0, "g", 0x0, " ", 0x0, "0"
	DCB	0x0, "x", 0x0, "%", 0x0, "0", 0x0, "8", 0x0, "x", 0x0, 0xd
	DCB	0x0, 0xa, 0x0, 0x0, 0x0			; `string'
; Function compile flags: /Ogsp
; File c:\wince800\platform\rrm_ppc_windows\src\drivers\pm\mdd\pmdisplay.cpp

  00298			 AREA	 |.text|, CODE, THUMB

  00298		 |?CloseDisplayDevice@@YAHPAX@Z| PROC	; CloseDisplayDevice

; 141  : {

  00298		 |$LN21@CloseDispl|
  00298	e92d 487e	 push        {r1-r6,r11,lr}
  0029c	f20d 0b18	 addw        r11,sp,#0x18
  002a0		 |$M19|

; 142  :     SETFNAME(_T("CloseDisplayDevice"));
; 143  : 
; 144  :     DEBUGCHK(gpfnCreateDCW != NULL);

  002a0	4d3b		 ldr         r5,|$LN30@CloseDispl| ; =|gpfnCreateDCW|
  002a2	4c3a		 ldr         r4,|$LN29@CloseDispl| ; =|dpCurSettings|
  002a4	4606		 mov         r6,r0
  002a6	682b		 ldr         r3,[r5]
  002a8	b933		 cbnz        r3,|$LN4@CloseDispl|
  002aa	4a37		 ldr         r2,|$LN28@CloseDispl| ; =|??_C@_1IM@KHGGJINK@?$AAc?$AA?3?$AA?2?$AAw?$AAi?$AAn?$AAc?$AAe?$AA8?$AA0?$AA0?$AA?2?$AAp?$AAl?$AAa?$AAt?$AAf?$AAo?$AAr?$AAm?$AA?2?$AAr?$AAr?$AAm?$AA_?$AAp?$AAp?$AAc?$AA_?$AAw?$AAi?$AAn@|
  002ac	4835		 ldr         r0,|$LN27@CloseDispl| ; =|??_C@_1FK@FNONLNGN@?$AA?$CF?$AAs?$AA?3?$AA?5?$AAD?$AAE?$AAB?$AAU?$AAG?$AAC?$AAH?$AAK?$AA?5?$AAf?$AAa?$AAi?$AAl?$AAe?$AAd?$AA?5?$AAi?$AAn?$AA?5?$AAf?$AAi?$AAl?$AAe?$AA?5?$AA?$CF?$AAs?$AA?5?$AAa@|
  002ae	2390		 movs        r3,#0x90
  002b0	4621		 mov         r1,r4
  002b2	f000 f800	 bl          NKDbgPrintfW
  002b6	defe		 __debugbreak
  002b8		 |$LN4@CloseDispl|

; 145  :     DEBUGCHK(gpfnDeleteDC != NULL);

  002b8	686b		 ldr         r3,[r5,#4]
  002ba	b933		 cbnz        r3,|$LN6@CloseDispl|
  002bc	4a32		 ldr         r2,|$LN28@CloseDispl| ; =|??_C@_1IM@KHGGJINK@?$AAc?$AA?3?$AA?2?$AAw?$AAi?$AAn?$AAc?$AAe?$AA8?$AA0?$AA0?$AA?2?$AAp?$AAl?$AAa?$AAt?$AAf?$AAo?$AAr?$AAm?$AA?2?$AAr?$AAr?$AAm?$AA_?$AAp?$AAp?$AAc?$AA_?$AAw?$AAi?$AAn@|
  002be	4831		 ldr         r0,|$LN27@CloseDispl| ; =|??_C@_1FK@FNONLNGN@?$AA?$CF?$AAs?$AA?3?$AA?5?$AAD?$AAE?$AAB?$AAU?$AAG?$AAC?$AAH?$AAK?$AA?5?$AAf?$AAa?$AAi?$AAl?$AAe?$AAd?$AA?5?$AAi?$AAn?$AA?5?$AAf?$AAi?$AAl?$AAe?$AA?5?$AA?$CF?$AAs?$AA?5?$AAa@|
  002c0	2391		 movs        r3,#0x91
  002c2	4621		 mov         r1,r4
  002c4	f000 f800	 bl          NKDbgPrintfW
  002c8	defe		 __debugbreak
  002ca		 |$LN6@CloseDispl|

; 146  :     DEBUGCHK(gpfnExtEscape != NULL);

  002ca	68ab		 ldr         r3,[r5,#8]
  002cc	b933		 cbnz        r3,|$LN8@CloseDispl|
  002ce	4a2e		 ldr         r2,|$LN28@CloseDispl| ; =|??_C@_1IM@KHGGJINK@?$AAc?$AA?3?$AA?2?$AAw?$AAi?$AAn?$AAc?$AAe?$AA8?$AA0?$AA0?$AA?2?$AAp?$AAl?$AAa?$AAt?$AAf?$AAo?$AAr?$AAm?$AA?2?$AAr?$AAr?$AAm?$AA_?$AAp?$AAp?$AAc?$AA_?$AAw?$AAi?$AAn@|
  002d0	482c		 ldr         r0,|$LN27@CloseDispl| ; =|??_C@_1FK@FNONLNGN@?$AA?$CF?$AAs?$AA?3?$AA?5?$AAD?$AAE?$AAB?$AAU?$AAG?$AAC?$AAH?$AAK?$AA?5?$AAf?$AAa?$AAi?$AAl?$AAe?$AAd?$AA?5?$AAi?$AAn?$AA?5?$AAf?$AAi?$AAl?$AAe?$AA?5?$AA?$CF?$AAs?$AA?5?$AAa@|
  002d2	2392		 movs        r3,#0x92
  002d4	4621		 mov         r1,r4
  002d6	f000 f800	 bl          NKDbgPrintfW
  002da	defe		 __debugbreak
  002dc		 |$LN8@CloseDispl|

; 147  :     DEBUGCHK(hDevice != NULL && hDevice != INVALID_HANDLE_VALUE);

  002dc	b116		 cbz         r6,|$LN9@CloseDispl|
  002de	f1b6 3fff	 cmp         r6,#0xFFFFFFFF
  002e2	d106		 bne         |$LN10@CloseDispl|
  002e4		 |$LN9@CloseDispl|
  002e4	4a28		 ldr         r2,|$LN28@CloseDispl| ; =|??_C@_1IM@KHGGJINK@?$AAc?$AA?3?$AA?2?$AAw?$AAi?$AAn?$AAc?$AAe?$AA8?$AA0?$AA0?$AA?2?$AAp?$AAl?$AAa?$AAt?$AAf?$AAo?$AAr?$AAm?$AA?2?$AAr?$AAr?$AAm?$AA_?$AAp?$AAp?$AAc?$AA_?$AAw?$AAi?$AAn@|
  002e6	4827		 ldr         r0,|$LN27@CloseDispl| ; =|??_C@_1FK@FNONLNGN@?$AA?$CF?$AAs?$AA?3?$AA?5?$AAD?$AAE?$AAB?$AAU?$AAG?$AAC?$AAH?$AAK?$AA?5?$AAf?$AAa?$AAi?$AAl?$AAe?$AAd?$AA?5?$AAi?$AAn?$AA?5?$AAf?$AAi?$AAl?$AAe?$AA?5?$AA?$CF?$AAs?$AA?5?$AAa@|
  002e8	2393		 movs        r3,#0x93
  002ea	4621		 mov         r1,r4
  002ec	f000 f800	 bl          NKDbgPrintfW
  002f0	defe		 __debugbreak
  002f2		 |$LN10@CloseDispl|

; 148  :     DEBUGCHK(gfGwesReady);

  002f2	68eb		 ldr         r3,[r5,#0xC]
  002f4	b933		 cbnz        r3,|$LN12@CloseDispl|
  002f6	4a24		 ldr         r2,|$LN28@CloseDispl| ; =|??_C@_1IM@KHGGJINK@?$AAc?$AA?3?$AA?2?$AAw?$AAi?$AAn?$AAc?$AAe?$AA8?$AA0?$AA0?$AA?2?$AAp?$AAl?$AAa?$AAt?$AAf?$AAo?$AAr?$AAm?$AA?2?$AAr?$AAr?$AAm?$AA_?$AAp?$AAp?$AAc?$AA_?$AAw?$AAi?$AAn@|
  002f8	4822		 ldr         r0,|$LN27@CloseDispl| ; =|??_C@_1FK@FNONLNGN@?$AA?$CF?$AAs?$AA?3?$AA?5?$AAD?$AAE?$AAB?$AAU?$AAG?$AAC?$AAH?$AAK?$AA?5?$AAf?$AAa?$AAi?$AAl?$AAe?$AAd?$AA?5?$AAi?$AAn?$AA?5?$AAf?$AAi?$AAl?$AAe?$AA?5?$AA?$CF?$AAs?$AA?5?$AAa@|
  002fa	2394		 movs        r3,#0x94
  002fc	4621		 mov         r1,r4
  002fe	f000 f800	 bl          NKDbgPrintfW
  00302	defe		 __debugbreak
  00304		 |$LN12@CloseDispl|

; 149  : 
; 150  :     PMLOGMSG(ZONE_DEVICE || ZONE_IOCTL, (_T("%s: closing 0x%08x\r\n"), pszFname, hDevice));

  00304	f8d4 3440	 ldr         r3,[r4,#0x440]
  00308	f013 0f10	 tst         r3,#0x10
  0030c	d102		 bne         |$LN13@CloseDispl|
  0030e	f013 0f20	 tst         r3,#0x20
  00312	d009		 beq         |$LN14@CloseDispl|
  00314		 |$LN13@CloseDispl|
  00314	4919		 ldr         r1,|$LN25@CloseDispl| ; =|??_C@_1CG@KPJCBOPI@?$AAC?$AAl?$AAo?$AAs?$AAe?$AAD?$AAi?$AAs?$AAp?$AAl?$AAa?$AAy?$AAD?$AAe?$AAv?$AAi?$AAc?$AAe?$AA?$AA@|
  00316	481a		 ldr         r0,|$LN26@CloseDispl| ; =|??_C@_1CK@OHDAKAFA@?$AA?$CF?$AAs?$AA?3?$AA?5?$AAc?$AAl?$AAo?$AAs?$AAi?$AAn?$AAg?$AA?5?$AA0?$AAx?$AA?$CF?$AA0?$AA8?$AAx?$AA?$AN?$AA?6?$AA?$AA@|
  00318	4632		 mov         r2,r6
  0031a	f000 f800	 bl          NKDbgPrintfW
  0031e	4917		 ldr         r1,|$LN25@CloseDispl| ; =|??_C@_1CG@KPJCBOPI@?$AAC?$AAl?$AAo?$AAs?$AAe?$AAD?$AAi?$AAs?$AAp?$AAl?$AAa?$AAy?$AAD?$AAe?$AAv?$AAi?$AAc?$AAe?$AA?$AA@|
  00320	4817		 ldr         r0,|$LN26@CloseDispl| ; =|??_C@_1CK@OHDAKAFA@?$AA?$CF?$AAs?$AA?3?$AA?5?$AAc?$AAl?$AAo?$AAs?$AAi?$AAn?$AAg?$AA?5?$AA0?$AAx?$AA?$CF?$AA0?$AA8?$AAx?$AA?$AN?$AA?6?$AA?$AA@|
  00322	4632		 mov         r2,r6
  00324	f000 f800	 bl          CeLogMsg
  00328		 |$LN14@CloseDispl|

; 151  :     BOOL fOk = gpfnDeleteDC((HDC) hDevice);

  00328	686b		 ldr         r3,[r5,#4]
  0032a	4630		 mov         r0,r6
  0032c	4798		 blx         r3
  0032e	4605		 mov         r5,r0

; 152  :     PMLOGMSG(!fOk && (ZONE_WARN || ZONE_IOCTL), (_T("%s: DeleteDC(0x%08x) failed %d (0x%08x)\r\n"), pszFname,
; 153  :         hDevice, GetLastError(), GetLastError()));

  00330	b9fd		 cbnz        r5,|$LN16@CloseDispl|
  00332	f8d4 3440	 ldr         r3,[r4,#0x440]
  00336	f013 0f02	 tst         r3,#2
  0033a	d102		 bne         |$LN15@CloseDispl|
  0033c	f013 0f20	 tst         r3,#0x20
  00340	d017		 beq         |$LN16@CloseDispl|
  00342		 |$LN15@CloseDispl|
  00342	f000 f800	 bl          GetLastError
  00346	4604		 mov         r4,r0
  00348	f000 f800	 bl          GetLastError
  0034c	490b		 ldr         r1,|$LN25@CloseDispl| ; =|??_C@_1CG@KPJCBOPI@?$AAC?$AAl?$AAo?$AAs?$AAe?$AAD?$AAi?$AAs?$AAp?$AAl?$AAa?$AAy?$AAD?$AAe?$AAv?$AAi?$AAc?$AAe?$AA?$AA@|
  0034e	4603		 mov         r3,r0
  00350	4809		 ldr         r0,|$LN24@CloseDispl| ; =|??_C@_1FE@DCIDGGHM@?$AA?$CF?$AAs?$AA?3?$AA?5?$AAD?$AAe?$AAl?$AAe?$AAt?$AAe?$AAD?$AAC?$AA?$CI?$AA0?$AAx?$AA?$CF?$AA0?$AA8?$AAx?$AA?$CJ?$AA?5?$AAf?$AAa?$AAi?$AAl?$AAe?$AAd?$AA?5?$AA?$CF?$AAd?$AA?5?$AA?$CI@|
  00352	4632		 mov         r2,r6
  00354	9400		 str         r4,[sp]
  00356	f000 f800	 bl          NKDbgPrintfW
  0035a	f000 f800	 bl          GetLastError
  0035e	4604		 mov         r4,r0
  00360	f000 f800	 bl          GetLastError
  00364	4905		 ldr         r1,|$LN25@CloseDispl| ; =|??_C@_1CG@KPJCBOPI@?$AAC?$AAl?$AAo?$AAs?$AAe?$AAD?$AAi?$AAs?$AAp?$AAl?$AAa?$AAy?$AAD?$AAe?$AAv?$AAi?$AAc?$AAe?$AA?$AA@|
  00366	4603		 mov         r3,r0
  00368	4803		 ldr         r0,|$LN24@CloseDispl| ; =|??_C@_1FE@DCIDGGHM@?$AA?$CF?$AAs?$AA?3?$AA?5?$AAD?$AAe?$AAl?$AAe?$AAt?$AAe?$AAD?$AAC?$AA?$CI?$AA0?$AAx?$AA?$CF?$AA0?$AA8?$AAx?$AA?$CJ?$AA?5?$AAf?$AAa?$AAi?$AAl?$AAe?$AAd?$AA?5?$AA?$CF?$AAd?$AA?5?$AA?$CI@|
  0036a	4632		 mov         r2,r6
  0036c	9400		 str         r4,[sp]
  0036e	f000 f800	 bl          CeLogMsg
  00372		 |$LN16@CloseDispl|

; 154  :     return fOk;
; 155  : }

  00372	4628		 mov         r0,r5
  00374		 |$M22|
  00374	e8bd 887e	 pop         {r1-r6,r11,pc}
  00378		 |$LN23@CloseDispl|
  00378		 |$LN24@CloseDispl|
  00378	0000 0000	 DCD         |??_C@_1FE@DCIDGGHM@?$AA?$CF?$AAs?$AA?3?$AA?5?$AAD?$AAe?$AAl?$AAe?$AAt?$AAe?$AAD?$AAC?$AA?$CI?$AA0?$AAx?$AA?$CF?$AA0?$AA8?$AAx?$AA?$CJ?$AA?5?$AAf?$AAa?$AAi?$AAl?$AAe?$AAd?$AA?5?$AA?$CF?$AAd?$AA?5?$AA?$CI@|
  0037c		 |$LN25@CloseDispl|
  0037c	0000 0000	 DCD         |??_C@_1CG@KPJCBOPI@?$AAC?$AAl?$AAo?$AAs?$AAe?$AAD?$AAi?$AAs?$AAp?$AAl?$AAa?$AAy?$AAD?$AAe?$AAv?$AAi?$AAc?$AAe?$AA?$AA@|
  00380		 |$LN26@CloseDispl|
  00380	0000 0000	 DCD         |??_C@_1CK@OHDAKAFA@?$AA?$CF?$AAs?$AA?3?$AA?5?$AAc?$AAl?$AAo?$AAs?$AAi?$AAn?$AAg?$AA?5?$AA0?$AAx?$AA?$CF?$AA0?$AA8?$AAx?$AA?$AN?$AA?6?$AA?$AA@|
  00384		 |$LN27@CloseDispl|
  00384	0000 0000	 DCD         |??_C@_1FK@FNONLNGN@?$AA?$CF?$AAs?$AA?3?$AA?5?$AAD?$AAE?$AAB?$AAU?$AAG?$AAC?$AAH?$AAK?$AA?5?$AAf?$AAa?$AAi?$AAl?$AAe?$AAd?$AA?5?$AAi?$AAn?$AA?5?$AAf?$AAi?$AAl?$AAe?$AA?5?$AA?$CF?$AAs?$AA?5?$AAa@|
  00388		 |$LN28@CloseDispl|
  00388	0000 0000	 DCD         |??_C@_1IM@KHGGJINK@?$AAc?$AA?3?$AA?2?$AAw?$AAi?$AAn?$AAc?$AAe?$AA8?$AA0?$AA0?$AA?2?$AAp?$AAl?$AAa?$AAt?$AAf?$AAo?$AAr?$AAm?$AA?2?$AAr?$AAr?$AAm?$AA_?$AAp?$AAp?$AAc?$AA_?$AAw?$AAi?$AAn@|
  0038c		 |$LN29@CloseDispl|
  0038c	0000 0000	 DCD         |dpCurSettings|
  00390		 |$LN30@CloseDispl|
  00390	0000 0000	 DCD         |gpfnCreateDCW|
  00394		 |$M20|

			 ENDP  ; |?CloseDisplayDevice@@YAHPAX@Z|, CloseDisplayDevice

	EXPORT	|??_C@_1EK@KLGFKKGB@?$AA?$CF?$AAs?$AA?3?$AA?5?$AAw?$AAa?$AAi?$AAt?$AAi?$AAn?$AAg?$AA?5?$AAf?$AAo?$AAr?$AA?5?$AAG?$AAW?$AAE?$AAS?$AA?5?$AAt?$AAo?$AA?5?$AAi?$AAn?$AAi?$AAt?$AAi?$AAa?$AAl?$AAi@| [ DATA ] ; `string'
	EXPORT	|??_C@_1CE@NLOFCKJG@?$AAO?$AAp?$AAe?$AAn?$AAD?$AAi?$AAs?$AAp?$AAl?$AAa?$AAy?$AAD?$AAe?$AAv?$AAi?$AAc?$AAe?$AA?$AA@| [ DATA ] ; `string'
	EXPORT	|??_C@_1IO@GLEDLCJG@?$AA?$CF?$AAs?$AA?3?$AA?5?$AAW?$AAa?$AAi?$AAt?$AAF?$AAo?$AAr?$AAS?$AAi?$AAn?$AAg?$AAl?$AAe?$AAO?$AAb?$AAj?$AAe?$AAc?$AAt?$AA?$CI?$AA?$CJ?$AA?5?$AAr?$AAe?$AAt?$AAu?$AAr?$AAn@| [ DATA ] ; `string'
	EXPORT	|??_C@_1DM@KCHPFGBA@?$AA?$CF?$AAs?$AA?3?$AA?5?$AAG?$AAW?$AAE?$AAS?$AA?5?$AAA?$AAP?$AAI?$AA?5?$AAs?$AAe?$AAt?$AAs?$AA?5?$AAa?$AAr?$AAe?$AA?5?$AAr?$AAe?$AAa?$AAd?$AAy?$AA?$AN?$AA?6?$AA?$AA@| [ DATA ] ; `string'
	EXPORT	|??_C@_1FA@LMOJFAIF@?$AA?$CF?$AAs?$AA?3?$AA?5?$AAC?$AAr?$AAe?$AAa?$AAt?$AAe?$AAD?$AAC?$AA?$CI?$AA?8?$AA?$CF?$AAs?$AA?8?$AA?$CJ?$AA?5?$AAf?$AAa?$AAi?$AAl?$AAe?$AAd?$AA?5?$AA?$CF?$AAd?$AA?5?$AA?$CI?$AA0?$AAx@| [ DATA ] ; `string'
	EXPORT	|??_C@_1HG@BLPIKJJG@?$AA?$CF?$AAs?$AA?3?$AA?5?$AA?8?$AA?$CF?$AAs?$AA?8?$AA?5?$AAd?$AAo?$AAe?$AAs?$AAn?$AA?8?$AAt?$AA?5?$AAs?$AAu?$AAp?$AAp?$AAo?$AAr?$AAt?$AA?5?$AAa?$AAl?$AAl?$AA?5?$AAp?$AAo?$AAw@| [ DATA ] ; `string'
	EXPORT	|??_C@_1DO@PDLLAHEA@?$AA?$CF?$AAs?$AA?3?$AA?5?$AAh?$AAa?$AAn?$AAd?$AAl?$AAe?$AA?5?$AAt?$AAo?$AA?5?$AA?8?$AA?$CF?$AAs?$AA?8?$AA?5?$AAi?$AAs?$AA?5?$AA0?$AAx?$AA?$CF?$AA0?$AA8?$AAx?$AA?$AN?$AA?6?$AA?$AA@| [ DATA ] ; `string'
	IMPORT	|WaitForAPIReady|

  00018			 AREA	 |.pdata|, PDATA
|$pdata1$?OpenDisplayDevice@@YAPAXPAU_DeviceState_tag@@@Z| DCD imagerel |$LN42@OpenDispla|
	DCD	imagerel |$unwind2$?OpenDisplayDevice@@YAPAXPAU_DeviceState_tag@@@Z|

  00048			 AREA	 |.xdata|, DATA
|$unwind2$?OpenDisplayDevice@@YAPAXPAU_DeviceState_tag@@@Z| DCD 0x333000dd
	DCD	0xfc01e806
	DCD	0x1e8ffdf
	DCD	0xffdf
	DCD	imagerel |__GSHandlerCheck|
	DCD	0xffffffd9

  00000			 AREA	 |.rdata|, DATA, READONLY
|??_C@_1DO@PDLLAHEA@?$AA?$CF?$AAs?$AA?3?$AA?5?$AAh?$AAa?$AAn?$AAd?$AAl?$AAe?$AA?5?$AAt?$AAo?$AA?5?$AA?8?$AA?$CF?$AAs?$AA?8?$AA?5?$AAi?$AAs?$AA?5?$AA0?$AAx?$AA?$CF?$AA0?$AA8?$AAx?$AA?$AN?$AA?6?$AA?$AA@| DCB "%"
	DCB	0x0, "s", 0x0, ":", 0x0, " ", 0x0, "h", 0x0, "a", 0x0, "n"
	DCB	0x0, "d", 0x0, "l", 0x0, "e", 0x0, " ", 0x0, "t", 0x0, "o"
	DCB	0x0, " ", 0x0, "'", 0x0, "%", 0x0, "s", 0x0, "'", 0x0, " "
	DCB	0x0, "i", 0x0, "s", 0x0, " ", 0x0, "0", 0x0, "x", 0x0, "%"
	DCB	0x0, "0", 0x0, "8", 0x0, "x", 0x0, 0xd, 0x0, 0xa, 0x0, 0x0
	DCB	0x0					; `string'

  00000			 AREA	 |.rdata|, DATA, READONLY
|??_C@_1HG@BLPIKJJG@?$AA?$CF?$AAs?$AA?3?$AA?5?$AA?8?$AA?$CF?$AAs?$AA?8?$AA?5?$AAd?$AAo?$AAe?$AAs?$AAn?$AA?8?$AAt?$AA?5?$AAs?$AAu?$AAp?$AAp?$AAo?$AAr?$AAt?$AA?5?$AAa?$AAl?$AAl?$AA?5?$AAp?$AAo?$AAw@| DCB "%"
	DCB	0x0, "s", 0x0, ":", 0x0, " ", 0x0, "'", 0x0, "%", 0x0, "s"
	DCB	0x0, "'", 0x0, " ", 0x0, "d", 0x0, "o", 0x0, "e", 0x0, "s"
	DCB	0x0, "n", 0x0, "'", 0x0, "t", 0x0, " ", 0x0, "s", 0x0, "u"
	DCB	0x0, "p", 0x0, "p", 0x0, "o", 0x0, "r", 0x0, "t", 0x0, " "
	DCB	0x0, "a", 0x0, "l", 0x0, "l", 0x0, " ", 0x0, "p", 0x0, "o"
	DCB	0x0, "w", 0x0, "e", 0x0, "r", 0x0, " ", 0x0, "m", 0x0, "a"
	DCB	0x0, "n", 0x0, "a", 0x0, "g", 0x0, "e", 0x0, "r", 0x0, " "
	DCB	0x0, "c", 0x0, "o", 0x0, "n", 0x0, "t", 0x0, "r", 0x0, "o"
	DCB	0x0, "l", 0x0, " ", 0x0, "c", 0x0, "o", 0x0, "d", 0x0, "e"
	DCB	0x0, "s", 0x0, 0xd, 0x0, 0xa, 0x0, 0x0, 0x0 ; `string'

  00000			 AREA	 |.rdata|, DATA, READONLY
|??_C@_1FA@LMOJFAIF@?$AA?$CF?$AAs?$AA?3?$AA?5?$AAC?$AAr?$AAe?$AAa?$AAt?$AAe?$AAD?$AAC?$AA?$CI?$AA?8?$AA?$CF?$AAs?$AA?8?$AA?$CJ?$AA?5?$AAf?$AAa?$AAi?$AAl?$AAe?$AAd?$AA?5?$AA?$CF?$AAd?$AA?5?$AA?$CI?$AA0?$AAx@| DCB "%"
	DCB	0x0, "s", 0x0, ":", 0x0, " ", 0x0, "C", 0x0, "r", 0x0, "e"
	DCB	0x0, "a", 0x0, "t", 0x0, "e", 0x0, "D", 0x0, "C", 0x0, "("
	DCB	0x0, "'", 0x0, "%", 0x0, "s", 0x0, "'", 0x0, ")", 0x0, " "
	DCB	0x0, "f", 0x0, "a", 0x0, "i", 0x0, "l", 0x0, "e", 0x0, "d"
	DCB	0x0, " ", 0x0, "%", 0x0, "d", 0x0, " ", 0x0, "(", 0x0, "0"
	DCB	0x0, "x", 0x0, "%", 0x0, "0", 0x0, "8", 0x0, "x", 0x0, ")"
	DCB	0x0, 0xd, 0x0, 0xa, 0x0, 0x0, 0x0	; `string'

  00000			 AREA	 |.rdata|, DATA, READONLY
|??_C@_1DM@KCHPFGBA@?$AA?$CF?$AAs?$AA?3?$AA?5?$AAG?$AAW?$AAE?$AAS?$AA?5?$AAA?$AAP?$AAI?$AA?5?$AAs?$AAe?$AAt?$AAs?$AA?5?$AAa?$AAr?$AAe?$AA?5?$AAr?$AAe?$AAa?$AAd?$AAy?$AA?$AN?$AA?6?$AA?$AA@| DCB "%"
	DCB	0x0, "s", 0x0, ":", 0x0, " ", 0x0, "G", 0x0, "W", 0x0, "E"
	DCB	0x0, "S", 0x0, " ", 0x0, "A", 0x0, "P", 0x0, "I", 0x0, " "
	DCB	0x0, "s", 0x0, "e", 0x0, "t", 0x0, "s", 0x0, " ", 0x0, "a"
	DCB	0x0, "r", 0x0, "e", 0x0, " ", 0x0, "r", 0x0, "e", 0x0, "a"
	DCB	0x0, "d", 0x0, "y", 0x0, 0xd, 0x0, 0xa, 0x0, 0x0, 0x0 ; `string'

  00000			 AREA	 |.rdata|, DATA, READONLY
|??_C@_1IO@GLEDLCJG@?$AA?$CF?$AAs?$AA?3?$AA?5?$AAW?$AAa?$AAi?$AAt?$AAF?$AAo?$AAr?$AAS?$AAi?$AAn?$AAg?$AAl?$AAe?$AAO?$AAb?$AAj?$AAe?$AAc?$AAt?$AA?$CI?$AA?$CJ?$AA?5?$AAr?$AAe?$AAt?$AAu?$AAr?$AAn@| DCB "%"
	DCB	0x0, "s", 0x0, ":", 0x0, " ", 0x0, "W", 0x0, "a", 0x0, "i"
	DCB	0x0, "t", 0x0, "F", 0x0, "o", 0x0, "r", 0x0, "S", 0x0, "i"
	DCB	0x0, "n", 0x0, "g", 0x0, "l", 0x0, "e", 0x0, "O", 0x0, "b"
	DCB	0x0, "j", 0x0, "e", 0x0, "c", 0x0, "t", 0x0, "(", 0x0, ")"
	DCB	0x0, " ", 0x0, "r", 0x0, "e", 0x0, "t", 0x0, "u", 0x0, "r"
	DCB	0x0, "n", 0x0, "e", 0x0, "d", 0x0, " ", 0x0, "%", 0x0, "d"
	DCB	0x0, " ", 0x0, "(", 0x0, "e", 0x0, "r", 0x0, "r", 0x0, "o"
	DCB	0x0, "r", 0x0, " ", 0x0, "%", 0x0, "d", 0x0, ")", 0x0, " "
	DCB	0x0, "o", 0x0, "n", 0x0, " ", 0x0, "G", 0x0, "W", 0x0, "E"
	DCB	0x0, "S", 0x0, " ", 0x0, "r", 0x0, "e", 0x0, "a", 0x0, "d"
	DCB	0x0, "y", 0x0, " ", 0x0, "e", 0x0, "v", 0x0, "e", 0x0, "n"
	DCB	0x0, "t", 0x0, 0xd, 0x0, 0xa, 0x0, 0x0, 0x0 ; `string'

  00000			 AREA	 |.rdata|, DATA, READONLY
|??_C@_1CE@NLOFCKJG@?$AAO?$AAp?$AAe?$AAn?$AAD?$AAi?$AAs?$AAp?$AAl?$AAa?$AAy?$AAD?$AAe?$AAv?$AAi?$AAc?$AAe?$AA?$AA@| DCB "O"
	DCB	0x0, "p", 0x0, "e", 0x0, "n", 0x0, "D", 0x0, "i", 0x0, "s"
	DCB	0x0, "p", 0x0, "l", 0x0, "a", 0x0, "y", 0x0, "D", 0x0, "e"
	DCB	0x0, "v", 0x0, "i", 0x0, "c", 0x0, "e", 0x0, 0x0, 0x0 ; `string'

  00000			 AREA	 |.rdata|, DATA, READONLY
|??_C@_1EK@KLGFKKGB@?$AA?$CF?$AAs?$AA?3?$AA?5?$AAw?$AAa?$AAi?$AAt?$AAi?$AAn?$AAg?$AA?5?$AAf?$AAo?$AAr?$AA?5?$AAG?$AAW?$AAE?$AAS?$AA?5?$AAt?$AAo?$AA?5?$AAi?$AAn?$AAi?$AAt?$AAi?$AAa?$AAl?$AAi@| DCB "%"
	DCB	0x0, "s", 0x0, ":", 0x0, " ", 0x0, "w", 0x0, "a", 0x0, "i"
	DCB	0x0, "t", 0x0, "i", 0x0, "n", 0x0, "g", 0x0, " ", 0x0, "f"
	DCB	0x0, "o", 0x0, "r", 0x0, " ", 0x0, "G", 0x0, "W", 0x0, "E"
	DCB	0x0, "S", 0x0, " ", 0x0, "t", 0x0, "o", 0x0, " ", 0x0, "i"
	DCB	0x0, "n", 0x0, "i", 0x0, "t", 0x0, "i", 0x0, "a", 0x0, "l"
	DCB	0x0, "i", 0x0, "z", 0x0, "e", 0x0, 0xd, 0x0, 0xa, 0x0, 0x0
	DCB	0x0					; `string'
; Function compile flags: /Ogsp
; File c:\wince800\platform\rrm_ppc_windows\src\drivers\pm\mdd\pmdisplay.cpp

  00394			 AREA	 |.text|, CODE, THUMB

  00394		 |?OpenDisplayDevice@@YAPAXPAU_DeviceState_tag@@@Z| PROC ; OpenDisplayDevice

; 78   : {

  00394		 |$LN42@OpenDispla|
  00394	e92d 4ff0	 push        {r4-r11,lr}
  00398	f20d 0b1c	 addw        r11,sp,#0x1C
  0039c	f000 f800	 bl          __security_push_cookie
  003a0	b086		 sub         sp,sp,#0x18
  003a2		 |$M40|

; 79   :     SETFNAME(_T("OpenDisplayDevice"));
; 80   :     HANDLE hRet = NULL;
; 81   : 
; 82   :     // Get a handle to the client device.  The client's name will generally be "DISPLAY" for 
; 83   :     // the default display, but it could be anything that CreateDC supports.
; 84   :     PREFAST_DEBUGCHK(gpfnCreateDCW != NULL);

  003a2	4e78		 ldr         r6,|$LN58@OpenDispla| ; =|gpfnCreateDCW|
  003a4	4d6d		 ldr         r5,|$LN48@OpenDispla| ; =|dpCurSettings|
  003a6	2700		 movs        r7,#0
  003a8	6833		 ldr         r3,[r6]
  003aa	4682		 mov         r10,r0
  003ac	b933		 cbnz        r3,|$LN15@OpenDispla|
  003ae	4a74		 ldr         r2,|$LN57@OpenDispla| ; =|??_C@_1IM@KHGGJINK@?$AAc?$AA?3?$AA?2?$AAw?$AAi?$AAn?$AAc?$AAe?$AA8?$AA0?$AA0?$AA?2?$AAp?$AAl?$AAa?$AAt?$AAf?$AAo?$AAr?$AAm?$AA?2?$AAr?$AAr?$AAm?$AA_?$AAp?$AAp?$AAc?$AA_?$AAw?$AAi?$AAn@|
  003b0	4872		 ldr         r0,|$LN56@OpenDispla| ; =|??_C@_1FK@FNONLNGN@?$AA?$CF?$AAs?$AA?3?$AA?5?$AAD?$AAE?$AAB?$AAU?$AAG?$AAC?$AAH?$AAK?$AA?5?$AAf?$AAa?$AAi?$AAl?$AAe?$AAd?$AA?5?$AAi?$AAn?$AA?5?$AAf?$AAi?$AAl?$AAe?$AA?5?$AA?$CF?$AAs?$AA?5?$AAa@|
  003b2	2354		 movs        r3,#0x54
  003b4	4629		 mov         r1,r5
  003b6	f000 f800	 bl          NKDbgPrintfW
  003ba	defe		 __debugbreak
  003bc		 |$LN15@OpenDispla|

; 85   :     PREFAST_DEBUGCHK(gpfnDeleteDC != NULL);

  003bc	6873		 ldr         r3,[r6,#4]
  003be	b933		 cbnz        r3,|$LN17@OpenDispla|
  003c0	4a6f		 ldr         r2,|$LN57@OpenDispla| ; =|??_C@_1IM@KHGGJINK@?$AAc?$AA?3?$AA?2?$AAw?$AAi?$AAn?$AAc?$AAe?$AA8?$AA0?$AA0?$AA?2?$AAp?$AAl?$AAa?$AAt?$AAf?$AAo?$AAr?$AAm?$AA?2?$AAr?$AAr?$AAm?$AA_?$AAp?$AAp?$AAc?$AA_?$AAw?$AAi?$AAn@|
  003c2	486e		 ldr         r0,|$LN56@OpenDispla| ; =|??_C@_1FK@FNONLNGN@?$AA?$CF?$AAs?$AA?3?$AA?5?$AAD?$AAE?$AAB?$AAU?$AAG?$AAC?$AAH?$AAK?$AA?5?$AAf?$AAa?$AAi?$AAl?$AAe?$AAd?$AA?5?$AAi?$AAn?$AA?5?$AAf?$AAi?$AAl?$AAe?$AA?5?$AA?$CF?$AAs?$AA?5?$AAa@|
  003c4	2355		 movs        r3,#0x55
  003c6	4629		 mov         r1,r5
  003c8	f000 f800	 bl          NKDbgPrintfW
  003cc	defe		 __debugbreak
  003ce		 |$LN17@OpenDispla|

; 86   :     PREFAST_DEBUGCHK(gpfnExtEscape != NULL);

  003ce	68b3		 ldr         r3,[r6,#8]
  003d0	b933		 cbnz        r3,|$LN19@OpenDispla|
  003d2	4a6b		 ldr         r2,|$LN57@OpenDispla| ; =|??_C@_1IM@KHGGJINK@?$AAc?$AA?3?$AA?2?$AAw?$AAi?$AAn?$AAc?$AAe?$AA8?$AA0?$AA0?$AA?2?$AAp?$AAl?$AAa?$AAt?$AAf?$AAo?$AAr?$AAm?$AA?2?$AAr?$AAr?$AAm?$AA_?$AAp?$AAp?$AAc?$AA_?$AAw?$AAi?$AAn@|
  003d4	4869		 ldr         r0,|$LN56@OpenDispla| ; =|??_C@_1FK@FNONLNGN@?$AA?$CF?$AAs?$AA?3?$AA?5?$AAD?$AAE?$AAB?$AAU?$AAG?$AAC?$AAH?$AAK?$AA?5?$AAf?$AAa?$AAi?$AAl?$AAe?$AAd?$AA?5?$AAi?$AAn?$AA?5?$AAf?$AAi?$AAl?$AAe?$AA?5?$AA?$CF?$AAs?$AA?5?$AAa@|
  003d6	2356		 movs        r3,#0x56
  003d8	4629		 mov         r1,r5
  003da	f000 f800	 bl          NKDbgPrintfW
  003de	defe		 __debugbreak
  003e0		 |$LN19@OpenDispla|

; 87   : 
; 88   :     // Make sure GWES is ready for us to access this device
; 89   :     if(!gfGwesReady) {

  003e0	68f3		 ldr         r3,[r6,#0xC]
  003e2	bbb3		 cbnz        r3,|$LN36@OpenDispla|

; 90   :         // We need to wait for GWES to finish -- since this is happening
; 91   :         // at boot time, we shouldn't have to wait for long.
; 92   :         PMLOGMSG(ZONE_INIT, (_T("%s: waiting for GWES to initialize\r\n"),
; 93   :             pszFname));

  003e4	f8d5 3440	 ldr         r3,[r5,#0x440]
  003e8	f013 0f04	 tst         r3,#4
  003ec	d007		 beq         |$LN20@OpenDispla|
  003ee	4959		 ldr         r1,|$LN46@OpenDispla| ; =|??_C@_1CE@NLOFCKJG@?$AAO?$AAp?$AAe?$AAn?$AAD?$AAi?$AAs?$AAp?$AAl?$AAa?$AAy?$AAD?$AAe?$AAv?$AAi?$AAc?$AAe?$AA?$AA@|
  003f0	4861		 ldr         r0,|$LN55@OpenDispla| ; =|??_C@_1EK@KLGFKKGB@?$AA?$CF?$AAs?$AA?3?$AA?5?$AAw?$AAa?$AAi?$AAt?$AAi?$AAn?$AAg?$AA?5?$AAf?$AAo?$AAr?$AA?5?$AAG?$AAW?$AAE?$AAS?$AA?5?$AAt?$AAo?$AA?5?$AAi?$AAn?$AAi?$AAt?$AAi?$AAa?$AAl?$AAi@|
  003f2	f000 f800	 bl          NKDbgPrintfW
  003f6	4957		 ldr         r1,|$LN46@OpenDispla| ; =|??_C@_1CE@NLOFCKJG@?$AAO?$AAp?$AAe?$AAn?$AAD?$AAi?$AAs?$AAp?$AAl?$AAa?$AAy?$AAD?$AAe?$AAv?$AAi?$AAc?$AAe?$AA?$AA@|
  003f8	485f		 ldr         r0,|$LN55@OpenDispla| ; =|??_C@_1EK@KLGFKKGB@?$AA?$CF?$AAs?$AA?3?$AA?5?$AAw?$AAa?$AAi?$AAt?$AAi?$AAn?$AAg?$AA?5?$AAf?$AAo?$AAr?$AA?5?$AAG?$AAW?$AAE?$AAS?$AA?5?$AAt?$AAo?$AA?5?$AAi?$AAn?$AAi?$AAt?$AAi?$AAa?$AAl?$AAi@|
  003fa	f000 f800	 bl          CeLogMsg
  003fe		 |$LN20@OpenDispla|

; 94   :         DWORD dwStatus = WaitForAPIReady(SH_GDI, INFINITE);

  003fe	f06f 0100	 mvn         r1,#0
  00402	2050		 movs        r0,#0x50
  00404	f000 f800	 bl          WaitForAPIReady

; 95   :         if(dwStatus != WAIT_OBJECT_0) {
; 96   :             PMLOGMSG(ZONE_WARN, 
; 97   :                 (_T("%s: WaitForSingleObject() returned %d (error %d) on GWES ready event\r\n"),
; 98   :                 pszFname, GetLastError()));

  00408	f8d5 3440	 ldr         r3,[r5,#0x440]
  0040c	b188		 cbz         r0,|$LN10@OpenDispla|
  0040e	f013 0f02	 tst         r3,#2
  00412	d01b		 beq         |$LN37@OpenDispla|
  00414	f000 f800	 bl          GetLastError
  00418	494e		 ldr         r1,|$LN46@OpenDispla| ; =|??_C@_1CE@NLOFCKJG@?$AAO?$AAp?$AAe?$AAn?$AAD?$AAi?$AAs?$AAp?$AAl?$AAa?$AAy?$AAD?$AAe?$AAv?$AAi?$AAc?$AAe?$AA?$AA@|
  0041a	4602		 mov         r2,r0
  0041c	4855		 ldr         r0,|$LN54@OpenDispla| ; =|??_C@_1IO@GLEDLCJG@?$AA?$CF?$AAs?$AA?3?$AA?5?$AAW?$AAa?$AAi?$AAt?$AAF?$AAo?$AAr?$AAS?$AAi?$AAn?$AAg?$AAl?$AAe?$AAO?$AAb?$AAj?$AAe?$AAc?$AAt?$AA?$CI?$AA?$CJ?$AA?5?$AAr?$AAe?$AAt?$AAu?$AAr?$AAn@|
  0041e	f000 f800	 bl          NKDbgPrintfW
  00422	f000 f800	 bl          GetLastError
  00426	494b		 ldr         r1,|$LN46@OpenDispla| ; =|??_C@_1CE@NLOFCKJG@?$AAO?$AAp?$AAe?$AAn?$AAD?$AAi?$AAs?$AAp?$AAl?$AAa?$AAy?$AAD?$AAe?$AAv?$AAi?$AAc?$AAe?$AA?$AA@|
  00428	4602		 mov         r2,r0
  0042a	4852		 ldr         r0,|$LN54@OpenDispla| ; =|??_C@_1IO@GLEDLCJG@?$AA?$CF?$AAs?$AA?3?$AA?5?$AAW?$AAa?$AAi?$AAt?$AAF?$AAo?$AAr?$AAS?$AAi?$AAn?$AAg?$AAl?$AAe?$AAO?$AAb?$AAj?$AAe?$AAc?$AAt?$AA?$CI?$AA?$CJ?$AA?5?$AAr?$AAe?$AAt?$AAu?$AAr?$AAn@|
  0042c	f000 f800	 bl          CeLogMsg

; 99   :         } else {

  00430	e00c		 b           |$LN37@OpenDispla|
  00432		 |$LN10@OpenDispla|

; 100  :             PMLOGMSG(ZONE_INIT, (_T("%s: GWES API sets are ready\r\n"), pszFname));

  00432	f013 0f04	 tst         r3,#4
  00436	d007		 beq         |$LN24@OpenDispla|
  00438	4946		 ldr         r1,|$LN46@OpenDispla| ; =|??_C@_1CE@NLOFCKJG@?$AAO?$AAp?$AAe?$AAn?$AAD?$AAi?$AAs?$AAp?$AAl?$AAa?$AAy?$AAD?$AAe?$AAv?$AAi?$AAc?$AAe?$AA?$AA@|
  0043a	484d		 ldr         r0,|$LN53@OpenDispla| ; =|??_C@_1DM@KCHPFGBA@?$AA?$CF?$AAs?$AA?3?$AA?5?$AAG?$AAW?$AAE?$AAS?$AA?5?$AAA?$AAP?$AAI?$AA?5?$AAs?$AAe?$AAt?$AAs?$AA?5?$AAa?$AAr?$AAe?$AA?5?$AAr?$AAe?$AAa?$AAd?$AAy?$AA?$AN?$AA?6?$AA?$AA@|
  0043c	f000 f800	 bl          NKDbgPrintfW
  00440	4944		 ldr         r1,|$LN46@OpenDispla| ; =|??_C@_1CE@NLOFCKJG@?$AAO?$AAp?$AAe?$AAn?$AAD?$AAi?$AAs?$AAp?$AAl?$AAa?$AAy?$AAD?$AAe?$AAv?$AAi?$AAc?$AAe?$AA?$AA@|
  00442	484b		 ldr         r0,|$LN53@OpenDispla| ; =|??_C@_1DM@KCHPFGBA@?$AA?$CF?$AAs?$AA?3?$AA?5?$AAG?$AAW?$AAE?$AAS?$AA?5?$AAA?$AAP?$AAI?$AA?5?$AAs?$AAe?$AAt?$AAs?$AA?5?$AAa?$AAr?$AAe?$AA?5?$AAr?$AAe?$AAa?$AAd?$AAy?$AA?$AN?$AA?6?$AA?$AA@|
  00444	f000 f800	 bl          CeLogMsg
  00448		 |$LN24@OpenDispla|

; 101  :             // we don't need to access the event, but keep the handle value non-NULL
; 102  :             // in case more than one display registers itself
; 103  :             gfGwesReady = TRUE;

  00448	2301		 movs        r3,#1
  0044a	60f3		 str         r3,[r6,#0xC]
  0044c		 |$LN37@OpenDispla|

; 104  :         }
; 105  :     }
; 106  : 
; 107  :     if(gfGwesReady) {

  0044c	68f3		 ldr         r3,[r6,#0xC]
  0044e	2b00		 cmp         r3,#0
  00450	d061		 beq         |$LN38@OpenDispla|
  00452		 |$LN36@OpenDispla|

; 108  :         hRet = gpfnCreateDCW(pds->pszName, NULL, NULL, NULL);

  00452	f8da 0000	 ldr         r0,[r10]
  00456	6834		 ldr         r4,[r6]
  00458	2300		 movs        r3,#0
  0045a	2200		 movs        r2,#0
  0045c	2100		 movs        r1,#0
  0045e	47a0		 blx         r4
  00460	4607		 mov         r7,r0

; 109  :         if(hRet == NULL) {

  00462	bb17		 cbnz        r7,|$LN7@OpenDispla|

; 110  :             PMLOGMSG(ZONE_WARN || ZONE_IOCTL, (_T("%s: CreateDC('%s') failed %d (0x%08x)\r\n"), pszFname,
; 111  :                 pds->pszName, GetLastError(), GetLastError()));

  00464	f8d5 3440	 ldr         r3,[r5,#0x440]
  00468	f013 0f02	 tst         r3,#2
  0046c	d102		 bne         |$LN26@OpenDispla|
  0046e	f013 0f20	 tst         r3,#0x20
  00472	d04e		 beq         |$LN27@OpenDispla|
  00474		 |$LN26@OpenDispla|
  00474	f000 f800	 bl          GetLastError
  00478	4604		 mov         r4,r0
  0047a	f000 f800	 bl          GetLastError
  0047e	f8da 2000	 ldr         r2,[r10]
  00482	4934		 ldr         r1,|$LN46@OpenDispla| ; =|??_C@_1CE@NLOFCKJG@?$AAO?$AAp?$AAe?$AAn?$AAD?$AAi?$AAs?$AAp?$AAl?$AAa?$AAy?$AAD?$AAe?$AAv?$AAi?$AAc?$AAe?$AA?$AA@|
  00484	4603		 mov         r3,r0
  00486	4839		 ldr         r0,|$LN52@OpenDispla| ; =|??_C@_1FA@LMOJFAIF@?$AA?$CF?$AAs?$AA?3?$AA?5?$AAC?$AAr?$AAe?$AAa?$AAt?$AAe?$AAD?$AAC?$AA?$CI?$AA?8?$AA?$CF?$AAs?$AA?8?$AA?$CJ?$AA?5?$AAf?$AAa?$AAi?$AAl?$AAe?$AAd?$AA?5?$AA?$CF?$AAd?$AA?5?$AA?$CI?$AA0?$AAx@|
  00488	9400		 str         r4,[sp]
  0048a	f000 f800	 bl          NKDbgPrintfW
  0048e	f000 f800	 bl          GetLastError
  00492	4604		 mov         r4,r0
  00494	f000 f800	 bl          GetLastError
  00498	f8da 2000	 ldr         r2,[r10]
  0049c	492d		 ldr         r1,|$LN46@OpenDispla| ; =|??_C@_1CE@NLOFCKJG@?$AAO?$AAp?$AAe?$AAn?$AAD?$AAi?$AAs?$AAp?$AAl?$AAa?$AAy?$AAD?$AAe?$AAv?$AAi?$AAc?$AAe?$AA?$AA@|
  0049e	4603		 mov         r3,r0
  004a0	4832		 ldr         r0,|$LN52@OpenDispla| ; =|??_C@_1FA@LMOJFAIF@?$AA?$CF?$AAs?$AA?3?$AA?5?$AAC?$AAr?$AAe?$AAa?$AAt?$AAe?$AAD?$AAC?$AA?$CI?$AA?8?$AA?$CF?$AAs?$AA?8?$AA?$CJ?$AA?5?$AAf?$AAa?$AAi?$AAl?$AAe?$AAd?$AA?5?$AA?$CF?$AAd?$AA?5?$AA?$CI?$AA0?$AAx@|
  004a2	9400		 str         r4,[sp]
  004a4	f000 f800	 bl          CeLogMsg

; 112  :             hRet = INVALID_HANDLE_VALUE;
; 113  :         } else {

  004a8	e033		 b           |$LN27@OpenDispla|
  004aa		 |$LN7@OpenDispla|

; 114  :             // determine whether the display driver really supports the PM IOCTLs
; 115  :             DWORD dwIoctl[] = { IOCTL_POWER_CAPABILITIES, IOCTL_POWER_SET, IOCTL_POWER_GET };

  004aa	4b2f		 ldr         r3,|$LN51@OpenDispla| ; =0x321000

; 116  :             int i;
; 117  :             for(i = 0; i < _countof(dwIoctl); i++) {

  004ac	f04f 0800	 mov         r8,#0
  004b0	f10d 0908	 add         r9,sp,#8
  004b4	9302		 str         r3,[sp,#8]
  004b6	4b2b		 ldr         r3,|$LN50@OpenDispla| ; =0x321008
  004b8	2500		 movs        r5,#0
  004ba	9303		 str         r3,[sp,#0xC]
  004bc	4b28		 ldr         r3,|$LN49@OpenDispla| ; =0x321004
  004be	9304		 str         r3,[sp,#0x10]
  004c0		 |$LL5@OpenDispla|

; 118  :                 if(gpfnExtEscape((HDC) hRet, QUERYESCSUPPORT, sizeof(dwIoctl[i]), (LPCSTR) &dwIoctl[i], 0, NULL) <= 0) {

  004c0	68b4		 ldr         r4,[r6,#8]
  004c2	464b		 mov         r3,r9
  004c4	2204		 movs        r2,#4
  004c6	2108		 movs        r1,#8
  004c8	4638		 mov         r0,r7
  004ca	9501		 str         r5,[sp,#4]
  004cc	9500		 str         r5,[sp]
  004ce	47a0		 blx         r4
  004d0	2800		 cmp         r0,#0
  004d2	dd06		 ble         |$LN33@OpenDispla|

; 116  :             int i;
; 117  :             for(i = 0; i < _countof(dwIoctl); i++) {

  004d4	f108 0801	 add         r8,r8,#1
  004d8	f1b8 0f03	 cmp         r8,#3
  004dc	f109 0904	 add         r9,r9,#4
  004e0	d3ee		 bcc         |$LL5@OpenDispla|
  004e2		 |$LN33@OpenDispla|

; 119  :                     break;
; 120  :                 }
; 121  :             }
; 122  :             if(i < _countof(dwIoctl)) {

  004e2	4d1e		 ldr         r5,|$LN48@OpenDispla| ; =|dpCurSettings|
  004e4	f1b8 0f03	 cmp         r8,#3
  004e8	d215		 bcs         |$LN38@OpenDispla|

; 123  :                 PMLOGMSG(ZONE_WARN, (_T("%s: '%s' doesn't support all power manager control codes\r\n"),
; 124  :                     pszFname, pds->pszName));

  004ea	f8d5 3440	 ldr         r3,[r5,#0x440]
  004ee	f013 0f02	 tst         r3,#2
  004f2	d00b		 beq         |$LN28@OpenDispla|
  004f4	f8da 2000	 ldr         r2,[r10]
  004f8	4916		 ldr         r1,|$LN46@OpenDispla| ; =|??_C@_1CE@NLOFCKJG@?$AAO?$AAp?$AAe?$AAn?$AAD?$AAi?$AAs?$AAp?$AAl?$AAa?$AAy?$AAD?$AAe?$AAv?$AAi?$AAc?$AAe?$AA?$AA@|
  004fa	4817		 ldr         r0,|$LN47@OpenDispla| ; =|??_C@_1HG@BLPIKJJG@?$AA?$CF?$AAs?$AA?3?$AA?5?$AA?8?$AA?$CF?$AAs?$AA?8?$AA?5?$AAd?$AAo?$AAe?$AAs?$AAn?$AA?8?$AAt?$AA?5?$AAs?$AAu?$AAp?$AAp?$AAo?$AAr?$AAt?$AA?5?$AAa?$AAl?$AAl?$AA?5?$AAp?$AAo?$AAw@|
  004fc	f000 f800	 bl          NKDbgPrintfW
  00500	f8da 2000	 ldr         r2,[r10]
  00504	4913		 ldr         r1,|$LN46@OpenDispla| ; =|??_C@_1CE@NLOFCKJG@?$AAO?$AAp?$AAe?$AAn?$AAD?$AAi?$AAs?$AAp?$AAl?$AAa?$AAy?$AAD?$AAe?$AAv?$AAi?$AAc?$AAe?$AA?$AA@|
  00506	4814		 ldr         r0,|$LN47@OpenDispla| ; =|??_C@_1HG@BLPIKJJG@?$AA?$CF?$AAs?$AA?3?$AA?5?$AA?8?$AA?$CF?$AAs?$AA?8?$AA?5?$AAd?$AAo?$AAe?$AAs?$AAn?$AA?8?$AAt?$AA?5?$AAs?$AAu?$AAp?$AAp?$AAo?$AAr?$AAt?$AA?5?$AAa?$AAl?$AAl?$AA?5?$AAp?$AAo?$AAw@|
  00508	f000 f800	 bl          CeLogMsg
  0050c		 |$LN28@OpenDispla|

; 125  :                 gpfnDeleteDC((HDC) hRet);

  0050c	6873		 ldr         r3,[r6,#4]
  0050e	4638		 mov         r0,r7
  00510	4798		 blx         r3
  00512		 |$LN27@OpenDispla|

; 126  :                 hRet = INVALID_HANDLE_VALUE;

  00512	f06f 0700	 mvn         r7,#0
  00516		 |$LN38@OpenDispla|

; 95   :         if(dwStatus != WAIT_OBJECT_0) {
; 96   :             PMLOGMSG(ZONE_WARN, 
; 97   :                 (_T("%s: WaitForSingleObject() returned %d (error %d) on GWES ready event\r\n"),
; 98   :                 pszFname, GetLastError()));

  00516	f8d5 3440	 ldr         r3,[r5,#0x440]

; 127  :             }
; 128  :         }
; 129  :     }
; 130  :     
; 131  :     PMLOGMSG(ZONE_DEVICE || ZONE_IOCTL, (_T("%s: handle to '%s' is 0x%08x\r\n"), \
; 132  :         pszFname, pds->pszName, hRet));

  0051a	f013 0f10	 tst         r3,#0x10
  0051e	d102		 bne         |$LN30@OpenDispla|
  00520	f013 0f20	 tst         r3,#0x20
  00524	d00d		 beq         |$LN31@OpenDispla|
  00526		 |$LN30@OpenDispla|
  00526	f8da 2000	 ldr         r2,[r10]
  0052a	490a		 ldr         r1,|$LN46@OpenDispla| ; =|??_C@_1CE@NLOFCKJG@?$AAO?$AAp?$AAe?$AAn?$AAD?$AAi?$AAs?$AAp?$AAl?$AAa?$AAy?$AAD?$AAe?$AAv?$AAi?$AAc?$AAe?$AA?$AA@|
  0052c	4808		 ldr         r0,|$LN45@OpenDispla| ; =|??_C@_1DO@PDLLAHEA@?$AA?$CF?$AAs?$AA?3?$AA?5?$AAh?$AAa?$AAn?$AAd?$AAl?$AAe?$AA?5?$AAt?$AAo?$AA?5?$AA?8?$AA?$CF?$AAs?$AA?8?$AA?5?$AAi?$AAs?$AA?5?$AA0?$AAx?$AA?$CF?$AA0?$AA8?$AAx?$AA?$AN?$AA?6?$AA?$AA@|
  0052e	463b		 mov         r3,r7
  00530	f000 f800	 bl          NKDbgPrintfW
  00534	f8da 2000	 ldr         r2,[r10]
  00538	4906		 ldr         r1,|$LN46@OpenDispla| ; =|??_C@_1CE@NLOFCKJG@?$AAO?$AAp?$AAe?$AAn?$AAD?$AAi?$AAs?$AAp?$AAl?$AAa?$AAy?$AAD?$AAe?$AAv?$AAi?$AAc?$AAe?$AA?$AA@|
  0053a	4805		 ldr         r0,|$LN45@OpenDispla| ; =|??_C@_1DO@PDLLAHEA@?$AA?$CF?$AAs?$AA?3?$AA?5?$AAh?$AAa?$AAn?$AAd?$AAl?$AAe?$AA?5?$AAt?$AAo?$AA?5?$AA?8?$AA?$CF?$AAs?$AA?8?$AA?5?$AAi?$AAs?$AA?5?$AA0?$AAx?$AA?$CF?$AA0?$AA8?$AAx?$AA?$AN?$AA?6?$AA?$AA@|
  0053c	463b		 mov         r3,r7
  0053e	f000 f800	 bl          CeLogMsg
  00542		 |$LN31@OpenDispla|

; 133  : 
; 134  :     return hRet;
; 135  : }

  00542	4638		 mov         r0,r7
  00544		 |$M43|
  00544	b006		 add         sp,sp,#0x18
  00546	f000 f800	 bl          __security_pop_cookie
  0054a	e8bd 8ff0	 pop         {r4-r11,pc}
  0054e		 |$LN59@OpenDispla|
  0054e		 |$M60|
  0054e	defe		 __debugbreak
  00550		 |$LN44@OpenDispla|
  00550		 |$LN45@OpenDispla|
  00550	0000 0000	 DCD         |??_C@_1DO@PDLLAHEA@?$AA?$CF?$AAs?$AA?3?$AA?5?$AAh?$AAa?$AAn?$AAd?$AAl?$AAe?$AA?5?$AAt?$AAo?$AA?5?$AA?8?$AA?$CF?$AAs?$AA?8?$AA?5?$AAi?$AAs?$AA?5?$AA0?$AAx?$AA?$CF?$AA0?$AA8?$AAx?$AA?$AN?$AA?6?$AA?$AA@|
  00554		 |$LN46@OpenDispla|
  00554	0000 0000	 DCD         |??_C@_1CE@NLOFCKJG@?$AAO?$AAp?$AAe?$AAn?$AAD?$AAi?$AAs?$AAp?$AAl?$AAa?$AAy?$AAD?$AAe?$AAv?$AAi?$AAc?$AAe?$AA?$AA@|
  00558		 |$LN47@OpenDispla|
  00558	0000 0000	 DCD         |??_C@_1HG@BLPIKJJG@?$AA?$CF?$AAs?$AA?3?$AA?5?$AA?8?$AA?$CF?$AAs?$AA?8?$AA?5?$AAd?$AAo?$AAe?$AAs?$AAn?$AA?8?$AAt?$AA?5?$AAs?$AAu?$AAp?$AAp?$AAo?$AAr?$AAt?$AA?5?$AAa?$AAl?$AAl?$AA?5?$AAp?$AAo?$AAw@|
  0055c		 |$LN48@OpenDispla|
  0055c	0000 0000	 DCD         |dpCurSettings|
  00560		 |$LN49@OpenDispla|
  00560	1004 0032	 DCD         0x321004
  00564		 |$LN50@OpenDispla|
  00564	1008 0032	 DCD         0x321008
  00568		 |$LN51@OpenDispla|
  00568	1000 0032	 DCD         0x321000
  0056c		 |$LN52@OpenDispla|
  0056c	0000 0000	 DCD         |??_C@_1FA@LMOJFAIF@?$AA?$CF?$AAs?$AA?3?$AA?5?$AAC?$AAr?$AAe?$AAa?$AAt?$AAe?$AAD?$AAC?$AA?$CI?$AA?8?$AA?$CF?$AAs?$AA?8?$AA?$CJ?$AA?5?$AAf?$AAa?$AAi?$AAl?$AAe?$AAd?$AA?5?$AA?$CF?$AAd?$AA?5?$AA?$CI?$AA0?$AAx@|
  00570		 |$LN53@OpenDispla|
  00570	0000 0000	 DCD         |??_C@_1DM@KCHPFGBA@?$AA?$CF?$AAs?$AA?3?$AA?5?$AAG?$AAW?$AAE?$AAS?$AA?5?$AAA?$AAP?$AAI?$AA?5?$AAs?$AAe?$AAt?$AAs?$AA?5?$AAa?$AAr?$AAe?$AA?5?$AAr?$AAe?$AAa?$AAd?$AAy?$AA?$AN?$AA?6?$AA?$AA@|
  00574		 |$LN54@OpenDispla|
  00574	0000 0000	 DCD         |??_C@_1IO@GLEDLCJG@?$AA?$CF?$AAs?$AA?3?$AA?5?$AAW?$AAa?$AAi?$AAt?$AAF?$AAo?$AAr?$AAS?$AAi?$AAn?$AAg?$AAl?$AAe?$AAO?$AAb?$AAj?$AAe?$AAc?$AAt?$AA?$CI?$AA?$CJ?$AA?5?$AAr?$AAe?$AAt?$AAu?$AAr?$AAn@|
  00578		 |$LN55@OpenDispla|
  00578	0000 0000	 DCD         |??_C@_1EK@KLGFKKGB@?$AA?$CF?$AAs?$AA?3?$AA?5?$AAw?$AAa?$AAi?$AAt?$AAi?$AAn?$AAg?$AA?5?$AAf?$AAo?$AAr?$AA?5?$AAG?$AAW?$AAE?$AAS?$AA?5?$AAt?$AAo?$AA?5?$AAi?$AAn?$AAi?$AAt?$AAi?$AAa?$AAl?$AAi@|
  0057c		 |$LN56@OpenDispla|
  0057c	0000 0000	 DCD         |??_C@_1FK@FNONLNGN@?$AA?$CF?$AAs?$AA?3?$AA?5?$AAD?$AAE?$AAB?$AAU?$AAG?$AAC?$AAH?$AAK?$AA?5?$AAf?$AAa?$AAi?$AAl?$AAe?$AAd?$AA?5?$AAi?$AAn?$AA?5?$AAf?$AAi?$AAl?$AAe?$AA?5?$AA?$CF?$AAs?$AA?5?$AAa@|
  00580		 |$LN57@OpenDispla|
  00580	0000 0000	 DCD         |??_C@_1IM@KHGGJINK@?$AAc?$AA?3?$AA?2?$AAw?$AAi?$AAn?$AAc?$AAe?$AA8?$AA0?$AA0?$AA?2?$AAp?$AAl?$AAa?$AAt?$AAf?$AAo?$AAr?$AAm?$AA?2?$AAr?$AAr?$AAm?$AA_?$AAp?$AAp?$AAc?$AA_?$AAw?$AAi?$AAn@|
  00584		 |$LN58@OpenDispla|
  00584	0000 0000	 DCD         |gpfnCreateDCW|
  00588		 |$M41|

			 ENDP  ; |?OpenDisplayDevice@@YAPAXPAU_DeviceState_tag@@@Z|, OpenDisplayDevice

	EXPORT	|??_C@_1BI@CJKPFBEK@?$AAc?$AAo?$AAr?$AAe?$AAd?$AAl?$AAl?$AA?4?$AAd?$AAl?$AAl?$AA?$AA@| [ DATA ] ; `string'
	EXPORT	|??_C@_1DM@EMCCGGJK@?$AA?$CF?$AAs?$AA?3?$AA?5?$AAL?$AAo?$AAa?$AAd?$AAL?$AAi?$AAb?$AAr?$AAa?$AAr?$AAy?$AA?$CI?$AA?$CJ?$AA?5?$AAf?$AAa?$AAi?$AAl?$AAe?$AAd?$AA?5?$AA?$CF?$AAd?$AA?$AN?$AA?6?$AA?$AA@| [ DATA ] ; `string'
	EXPORT	|??_C@_1DG@PGIPNLAG@?$AAI?$AAn?$AAi?$AAt?$AAD?$AAi?$AAs?$AAp?$AAl?$AAa?$AAy?$AAD?$AAe?$AAv?$AAi?$AAc?$AAe?$AAI?$AAn?$AAt?$AAe?$AAr?$AAf?$AAa?$AAc?$AAe?$AA?$AA@| [ DATA ] ; `string'
	EXPORT	|??_C@_1BE@IMLDAOJP@?$AAE?$AAx?$AAt?$AAE?$AAs?$AAc?$AAa?$AAp?$AAe?$AA?$AA@| [ DATA ] ; `string'
	EXPORT	|??_C@_1BC@GMBPGMN@?$AAD?$AAe?$AAl?$AAe?$AAt?$AAe?$AAD?$AAC?$AA?$AA@| [ DATA ] ; `string'
	EXPORT	|??_C@_1BE@JGEOLONK@?$AAC?$AAr?$AAe?$AAa?$AAt?$AAe?$AAD?$AAC?$AAW?$AA?$AA@| [ DATA ] ; `string'
	EXPORT	|??_C@_1KG@HHIOCDCE@?$AA?$CF?$AAs?$AA?3?$AA?5?$AAc?$AAa?$AAn?$AA?8?$AAt?$AA?5?$AAg?$AAe?$AAt?$AA?5?$AAA?$AAP?$AAI?$AAs?$AA?3?$AA?5?$AAp?$AAf?$AAn?$AAC?$AAr?$AAe?$AAa?$AAt?$AAe?$AAD?$AAC?$AAW@| [ DATA ] ; `string'
	EXPORT	|??_C@_1CG@EPNLEKEF@?$AA?$CF?$AAs?$AA?3?$AA?5?$AAr?$AAe?$AAt?$AAu?$AAr?$AAn?$AAi?$AAn?$AAg?$AA?5?$AA?$CF?$AAd?$AA?$AN?$AA?6?$AA?$AA@| [ DATA ] ; `string'
	IMPORT	|LoadLibraryW|
	IMPORT	|GetProcAddressW|
	IMPORT	|FreeLibrary|

  00020			 AREA	 |.pdata|, PDATA
|$pdata1$?InitDisplayDeviceInterface@@YAHXZ| DCD imagerel |$LN20@InitDispla|
	DCD	0xfd7361a1

  00000			 AREA	 |.rdata|, DATA, READONLY
|??_C@_1CG@EPNLEKEF@?$AA?$CF?$AAs?$AA?3?$AA?5?$AAr?$AAe?$AAt?$AAu?$AAr?$AAn?$AAi?$AAn?$AAg?$AA?5?$AA?$CF?$AAd?$AA?$AN?$AA?6?$AA?$AA@| DCB "%"
	DCB	0x0, "s", 0x0, ":", 0x0, " ", 0x0, "r", 0x0, "e", 0x0, "t"
	DCB	0x0, "u", 0x0, "r", 0x0, "n", 0x0, "i", 0x0, "n", 0x0, "g"
	DCB	0x0, " ", 0x0, "%", 0x0, "d", 0x0, 0xd, 0x0, 0xa, 0x0, 0x0
	DCB	0x0					; `string'

  00000			 AREA	 |.rdata|, DATA, READONLY
|??_C@_1KG@HHIOCDCE@?$AA?$CF?$AAs?$AA?3?$AA?5?$AAc?$AAa?$AAn?$AA?8?$AAt?$AA?5?$AAg?$AAe?$AAt?$AA?5?$AAA?$AAP?$AAI?$AAs?$AA?3?$AA?5?$AAp?$AAf?$AAn?$AAC?$AAr?$AAe?$AAa?$AAt?$AAe?$AAD?$AAC?$AAW@| DCB "%"
	DCB	0x0, "s", 0x0, ":", 0x0, " ", 0x0, "c", 0x0, "a", 0x0, "n"
	DCB	0x0, "'", 0x0, "t", 0x0, " ", 0x0, "g", 0x0, "e", 0x0, "t"
	DCB	0x0, " ", 0x0, "A", 0x0, "P", 0x0, "I", 0x0, "s", 0x0, ":"
	DCB	0x0, " ", 0x0, "p", 0x0, "f", 0x0, "n", 0x0, "C", 0x0, "r"
	DCB	0x0, "e", 0x0, "a", 0x0, "t", 0x0, "e", 0x0, "D", 0x0, "C"
	DCB	0x0, "W", 0x0, " ", 0x0, "0", 0x0, "x", 0x0, "%", 0x0, "0"
	DCB	0x0, "8", 0x0, "x", 0x0, ",", 0x0, " ", 0x0, "p", 0x0, "f"
	DCB	0x0, "n", 0x0, "D", 0x0, "e", 0x0, "l", 0x0, "e", 0x0, "t"
	DCB	0x0, "e", 0x0, "D", 0x0, "C", 0x0, " ", 0x0, "0", 0x0, "x"
	DCB	0x0, "%", 0x0, "0", 0x0, "8", 0x0, "x", 0x0, ",", 0x0, " "
	DCB	0x0, "p", 0x0, "f", 0x0, "n", 0x0, "E", 0x0, "x", 0x0, "t"
	DCB	0x0, "E", 0x0, "s", 0x0, "c", 0x0, "a", 0x0, "p", 0x0, "e"
	DCB	0x0, " ", 0x0, "0", 0x0, "x", 0x0, "%", 0x0, "0", 0x0, "8"
	DCB	0x0, "x", 0x0, 0xd, 0x0, 0xa, 0x0, 0x0, 0x0 ; `string'

  00000			 AREA	 |.rdata|, DATA, READONLY
|??_C@_1BE@JGEOLONK@?$AAC?$AAr?$AAe?$AAa?$AAt?$AAe?$AAD?$AAC?$AAW?$AA?$AA@| DCB "C"
	DCB	0x0, "r", 0x0, "e", 0x0, "a", 0x0, "t", 0x0, "e", 0x0, "D"
	DCB	0x0, "C", 0x0, "W", 0x0, 0x0, 0x0	; `string'

  00000			 AREA	 |.rdata|, DATA, READONLY
|??_C@_1BC@GMBPGMN@?$AAD?$AAe?$AAl?$AAe?$AAt?$AAe?$AAD?$AAC?$AA?$AA@| DCB "D"
	DCB	0x0, "e", 0x0, "l", 0x0, "e", 0x0, "t", 0x0, "e", 0x0, "D"
	DCB	0x0, "C", 0x0, 0x0, 0x0			; `string'

  00000			 AREA	 |.rdata|, DATA, READONLY
|??_C@_1BE@IMLDAOJP@?$AAE?$AAx?$AAt?$AAE?$AAs?$AAc?$AAa?$AAp?$AAe?$AA?$AA@| DCB "E"
	DCB	0x0, "x", 0x0, "t", 0x0, "E", 0x0, "s", 0x0, "c", 0x0, "a"
	DCB	0x0, "p", 0x0, "e", 0x0, 0x0, 0x0	; `string'

  00000			 AREA	 |.rdata|, DATA, READONLY
|??_C@_1DG@PGIPNLAG@?$AAI?$AAn?$AAi?$AAt?$AAD?$AAi?$AAs?$AAp?$AAl?$AAa?$AAy?$AAD?$AAe?$AAv?$AAi?$AAc?$AAe?$AAI?$AAn?$AAt?$AAe?$AAr?$AAf?$AAa?$AAc?$AAe?$AA?$AA@| DCB "I"
	DCB	0x0, "n", 0x0, "i", 0x0, "t", 0x0, "D", 0x0, "i", 0x0, "s"
	DCB	0x0, "p", 0x0, "l", 0x0, "a", 0x0, "y", 0x0, "D", 0x0, "e"
	DCB	0x0, "v", 0x0, "i", 0x0, "c", 0x0, "e", 0x0, "I", 0x0, "n"
	DCB	0x0, "t", 0x0, "e", 0x0, "r", 0x0, "f", 0x0, "a", 0x0, "c"
	DCB	0x0, "e", 0x0, 0x0, 0x0			; `string'

  00000			 AREA	 |.rdata|, DATA, READONLY
|??_C@_1DM@EMCCGGJK@?$AA?$CF?$AAs?$AA?3?$AA?5?$AAL?$AAo?$AAa?$AAd?$AAL?$AAi?$AAb?$AAr?$AAa?$AAr?$AAy?$AA?$CI?$AA?$CJ?$AA?5?$AAf?$AAa?$AAi?$AAl?$AAe?$AAd?$AA?5?$AA?$CF?$AAd?$AA?$AN?$AA?6?$AA?$AA@| DCB "%"
	DCB	0x0, "s", 0x0, ":", 0x0, " ", 0x0, "L", 0x0, "o", 0x0, "a"
	DCB	0x0, "d", 0x0, "L", 0x0, "i", 0x0, "b", 0x0, "r", 0x0, "a"
	DCB	0x0, "r", 0x0, "y", 0x0, "(", 0x0, ")", 0x0, " ", 0x0, "f"
	DCB	0x0, "a", 0x0, "i", 0x0, "l", 0x0, "e", 0x0, "d", 0x0, " "
	DCB	0x0, "%", 0x0, "d", 0x0, 0xd, 0x0, 0xa, 0x0, 0x0, 0x0 ; `string'

  00000			 AREA	 |.rdata|, DATA, READONLY
|??_C@_1BI@CJKPFBEK@?$AAc?$AAo?$AAr?$AAe?$AAd?$AAl?$AAl?$AA?4?$AAd?$AAl?$AAl?$AA?$AA@| DCB "c"
	DCB	0x0, "o", 0x0, "r", 0x0, "e", 0x0, "d", 0x0, "l", 0x0, "l"
	DCB	0x0, ".", 0x0, "d", 0x0, "l", 0x0, "l", 0x0, 0x0, 0x0 ; `string'
; Function compile flags: /Ogsp
; File c:\wince800\platform\rrm_ppc_windows\src\drivers\pm\mdd\pmdisplay.cpp

  00588			 AREA	 |.text|, CODE, THUMB

  00588		 |?InitDisplayDeviceInterface@@YAHXZ| PROC ; InitDisplayDeviceInterface

; 40   : {

  00588		 |$LN20@InitDispla|
  00588	e92d 48fc	 push        {r2-r7,r11,lr}
  0058c	f20d 0b18	 addw        r11,sp,#0x18
  00590		 |$M18|

; 41   :     BOOL fOk = FALSE;
; 42   :     SETFNAME(_T("InitDisplayDeviceInterface"));
; 43   : 
; 44   :     if(gpfnCreateDCW == NULL) {

  00590	4d3a		 ldr         r5,|$LN32@InitDispla| ; =|gpfnCreateDCW|
  00592	4e39		 ldr         r6,|$LN31@InitDispla| ; =|dpCurSettings|
  00594	2400		 movs        r4,#0
  00596	682b		 ldr         r3,[r5]
  00598	2b00		 cmp         r3,#0
  0059a	d147		 bne         |$LN16@InitDispla|

; 45   :         HMODULE hmCore = (HMODULE) LoadLibrary(_T("coredll.dll"));

  0059c	4835		 ldr         r0,|$LN30@InitDispla| ; =|??_C@_1BI@CJKPFBEK@?$AAc?$AAo?$AAr?$AAe?$AAd?$AAl?$AAl?$AA?4?$AAd?$AAl?$AAl?$AA?$AA@|
  0059e	f000 f800	 bl          LoadLibraryW

; 46   :         PMLOGMSG(ZONE_WARN && hmCore == NULL, (_T("%s: LoadLibrary() failed %d\r\n"),
; 47   :             pszFname, GetLastError()));

  005a2	f8d6 3440	 ldr         r3,[r6,#0x440]
  005a6	4607		 mov         r7,r0
  005a8	f013 0f02	 tst         r3,#2
  005ac	d00e		 beq         |$LN8@InitDispla|
  005ae	b977		 cbnz        r7,|$LN15@InitDispla|
  005b0	f000 f800	 bl          GetLastError
  005b4	4929		 ldr         r1,|$LN24@InitDispla| ; =|??_C@_1DG@PGIPNLAG@?$AAI?$AAn?$AAi?$AAt?$AAD?$AAi?$AAs?$AAp?$AAl?$AAa?$AAy?$AAD?$AAe?$AAv?$AAi?$AAc?$AAe?$AAI?$AAn?$AAt?$AAe?$AAr?$AAf?$AAa?$AAc?$AAe?$AA?$AA@|
  005b6	4602		 mov         r2,r0
  005b8	482d		 ldr         r0,|$LN29@InitDispla| ; =|??_C@_1DM@EMCCGGJK@?$AA?$CF?$AAs?$AA?3?$AA?5?$AAL?$AAo?$AAa?$AAd?$AAL?$AAi?$AAb?$AAr?$AAa?$AAr?$AAy?$AA?$CI?$AA?$CJ?$AA?5?$AAf?$AAa?$AAi?$AAl?$AAe?$AAd?$AA?5?$AA?$CF?$AAd?$AA?$AN?$AA?6?$AA?$AA@|
  005ba	f000 f800	 bl          NKDbgPrintfW
  005be	f000 f800	 bl          GetLastError
  005c2	4926		 ldr         r1,|$LN24@InitDispla| ; =|??_C@_1DG@PGIPNLAG@?$AAI?$AAn?$AAi?$AAt?$AAD?$AAi?$AAs?$AAp?$AAl?$AAa?$AAy?$AAD?$AAe?$AAv?$AAi?$AAc?$AAe?$AAI?$AAn?$AAt?$AAe?$AAr?$AAf?$AAa?$AAc?$AAe?$AA?$AA@|
  005c4	4602		 mov         r2,r0
  005c6	482a		 ldr         r0,|$LN29@InitDispla| ; =|??_C@_1DM@EMCCGGJK@?$AA?$CF?$AAs?$AA?3?$AA?5?$AAL?$AAo?$AAa?$AAd?$AAL?$AAi?$AAb?$AAr?$AAa?$AAr?$AAy?$AA?$CI?$AA?$CJ?$AA?5?$AAf?$AAa?$AAi?$AAl?$AAe?$AAd?$AA?5?$AA?$CF?$AAd?$AA?$AN?$AA?6?$AA?$AA@|
  005c8	f000 f800	 bl          CeLogMsg
  005cc		 |$LN8@InitDispla|

; 48   :         if(hmCore != NULL) {

  005cc	b377		 cbz         r7,|$LN16@InitDispla|
  005ce		 |$LN15@InitDispla|

; 49   :             // get procedure addresses
; 50   :             gpfnCreateDCW = (PFN_CreateDCW) GetProcAddress(hmCore, _T("CreateDCW"));

  005ce	4927		 ldr         r1,|$LN28@InitDispla| ; =|??_C@_1BE@JGEOLONK@?$AAC?$AAr?$AAe?$AAa?$AAt?$AAe?$AAD?$AAC?$AAW?$AA?$AA@|
  005d0	4638		 mov         r0,r7
  005d2	f000 f800	 bl          GetProcAddressW

; 51   :             gpfnDeleteDC = (PFN_DeleteDC) GetProcAddress(hmCore, _T("DeleteDC"));

  005d6	4924		 ldr         r1,|$LN27@InitDispla| ; =|??_C@_1BC@GMBPGMN@?$AAD?$AAe?$AAl?$AAe?$AAt?$AAe?$AAD?$AAC?$AA?$AA@|
  005d8	6028		 str         r0,[r5]
  005da	4638		 mov         r0,r7
  005dc	f000 f800	 bl          GetProcAddressW

; 52   :             gpfnExtEscape = (PFN_ExtEscape) GetProcAddress(hmCore, _T("ExtEscape"));

  005e0	4920		 ldr         r1,|$LN26@InitDispla| ; =|??_C@_1BE@IMLDAOJP@?$AAE?$AAx?$AAt?$AAE?$AAs?$AAc?$AAa?$AAp?$AAe?$AA?$AA@|
  005e2	6068		 str         r0,[r5,#4]
  005e4	4638		 mov         r0,r7
  005e6	f000 f800	 bl          GetProcAddressW

; 53   :             if(gpfnCreateDCW == NULL || gpfnExtEscape == NULL || gpfnDeleteDC == NULL) {

  005ea	682a		 ldr         r2,[r5]
  005ec	686b		 ldr         r3,[r5,#4]
  005ee	60a8		 str         r0,[r5,#8]
  005f0	b11a		 cbz         r2,|$LN2@InitDispla|
  005f2	b110		 cbz         r0,|$LN2@InitDispla|
  005f4	b10b		 cbz         r3,|$LN2@InitDispla|

; 61   :             }
; 62   :             else
; 63   :             {
; 64   :                 fOk = TRUE;

  005f6	2401		 movs        r4,#1
  005f8	e018		 b           |$LN16@InitDispla|
  005fa		 |$LN2@InitDispla|

; 54   :                 PMLOGMSG(ZONE_WARN, 
; 55   :                     (_T("%s: can't get APIs: pfnCreateDCW 0x%08x, pfnDeleteDC 0x%08x, pfnExtEscape 0x%08x\r\n"),
; 56   :                     pszFname, gpfnCreateDCW, gpfnDeleteDC, gpfnExtEscape));

  005fa	f8d6 1440	 ldr         r1,[r6,#0x440]
  005fe	f011 0f02	 tst         r1,#2
  00602	d00c		 beq         |$LN10@InitDispla|
  00604	4915		 ldr         r1,|$LN24@InitDispla| ; =|??_C@_1DG@PGIPNLAG@?$AAI?$AAn?$AAi?$AAt?$AAD?$AAi?$AAs?$AAp?$AAl?$AAa?$AAy?$AAD?$AAe?$AAv?$AAi?$AAc?$AAe?$AAI?$AAn?$AAt?$AAe?$AAr?$AAf?$AAa?$AAc?$AAe?$AA?$AA@|
  00606	9000		 str         r0,[sp]
  00608	4815		 ldr         r0,|$LN25@InitDispla| ; =|??_C@_1KG@HHIOCDCE@?$AA?$CF?$AAs?$AA?3?$AA?5?$AAc?$AAa?$AAn?$AA?8?$AAt?$AA?5?$AAg?$AAe?$AAt?$AA?5?$AAA?$AAP?$AAI?$AAs?$AA?3?$AA?5?$AAp?$AAf?$AAn?$AAC?$AAr?$AAe?$AAa?$AAt?$AAe?$AAD?$AAC?$AAW@|
  0060a	f000 f800	 bl          NKDbgPrintfW
  0060e	68ab		 ldr         r3,[r5,#8]
  00610	682a		 ldr         r2,[r5]
  00612	4912		 ldr         r1,|$LN24@InitDispla| ; =|??_C@_1DG@PGIPNLAG@?$AAI?$AAn?$AAi?$AAt?$AAD?$AAi?$AAs?$AAp?$AAl?$AAa?$AAy?$AAD?$AAe?$AAv?$AAi?$AAc?$AAe?$AAI?$AAn?$AAt?$AAe?$AAr?$AAf?$AAa?$AAc?$AAe?$AA?$AA@|
  00614	4812		 ldr         r0,|$LN25@InitDispla| ; =|??_C@_1KG@HHIOCDCE@?$AA?$CF?$AAs?$AA?3?$AA?5?$AAc?$AAa?$AAn?$AA?8?$AAt?$AA?5?$AAg?$AAe?$AAt?$AA?5?$AAA?$AAP?$AAI?$AAs?$AA?3?$AA?5?$AAp?$AAf?$AAn?$AAC?$AAr?$AAe?$AAa?$AAt?$AAe?$AAD?$AAC?$AAW@|
  00616	9300		 str         r3,[sp]
  00618	686b		 ldr         r3,[r5,#4]
  0061a	f000 f800	 bl          CeLogMsg
  0061e		 |$LN10@InitDispla|

; 57   :                 gpfnCreateDCW = NULL;

  0061e	2300		 movs        r3,#0

; 58   :                 gpfnDeleteDC = NULL;
; 59   :                 gpfnExtEscape = NULL;
; 60   :                 FreeLibrary(hmCore);

  00620	4638		 mov         r0,r7
  00622	602b		 str         r3,[r5]
  00624	606b		 str         r3,[r5,#4]
  00626	60ab		 str         r3,[r5,#8]
  00628	f000 f800	 bl          FreeLibrary
  0062c		 |$LN16@InitDispla|

; 65   :             }
; 66   :         }
; 67   :     }
; 68   :     
; 69   :     PMLOGMSG(ZONE_INIT || (ZONE_WARN && !fOk), (_T("%s: returning %d\r\n"), pszFname, fOk));

  0062c	f8d6 3440	 ldr         r3,[r6,#0x440]
  00630	f013 0f04	 tst         r3,#4
  00634	d103		 bne         |$LN13@InitDispla|
  00636	f013 0f02	 tst         r3,#2
  0063a	d00a		 beq         |$LN14@InitDispla|
  0063c	b94c		 cbnz        r4,|$LN14@InitDispla|
  0063e		 |$LN13@InitDispla|
  0063e	4907		 ldr         r1,|$LN24@InitDispla| ; =|??_C@_1DG@PGIPNLAG@?$AAI?$AAn?$AAi?$AAt?$AAD?$AAi?$AAs?$AAp?$AAl?$AAa?$AAy?$AAD?$AAe?$AAv?$AAi?$AAc?$AAe?$AAI?$AAn?$AAt?$AAe?$AAr?$AAf?$AAa?$AAc?$AAe?$AA?$AA@|
  00640	4805		 ldr         r0,|$LN23@InitDispla| ; =|??_C@_1CG@EPNLEKEF@?$AA?$CF?$AAs?$AA?3?$AA?5?$AAr?$AAe?$AAt?$AAu?$AAr?$AAn?$AAi?$AAn?$AAg?$AA?5?$AA?$CF?$AAd?$AA?$AN?$AA?6?$AA?$AA@|
  00642	4622		 mov         r2,r4
  00644	f000 f800	 bl          NKDbgPrintfW
  00648	4904		 ldr         r1,|$LN24@InitDispla| ; =|??_C@_1DG@PGIPNLAG@?$AAI?$AAn?$AAi?$AAt?$AAD?$AAi?$AAs?$AAp?$AAl?$AAa?$AAy?$AAD?$AAe?$AAv?$AAi?$AAc?$AAe?$AAI?$AAn?$AAt?$AAe?$AAr?$AAf?$AAa?$AAc?$AAe?$AA?$AA@|
  0064a	4803		 ldr         r0,|$LN23@InitDispla| ; =|??_C@_1CG@EPNLEKEF@?$AA?$CF?$AAs?$AA?3?$AA?5?$AAr?$AAe?$AAt?$AAu?$AAr?$AAn?$AAi?$AAn?$AAg?$AA?5?$AA?$CF?$AAd?$AA?$AN?$AA?6?$AA?$AA@|
  0064c	4622		 mov         r2,r4
  0064e	f000 f800	 bl          CeLogMsg
  00652		 |$LN14@InitDispla|

; 70   :     return fOk;
; 71   : }

  00652	4620		 mov         r0,r4
  00654		 |$M21|
  00654	e8bd 88fc	 pop         {r2-r7,r11,pc}
  00658		 |$LN22@InitDispla|
  00658		 |$LN23@InitDispla|
  00658	0000 0000	 DCD         |??_C@_1CG@EPNLEKEF@?$AA?$CF?$AAs?$AA?3?$AA?5?$AAr?$AAe?$AAt?$AAu?$AAr?$AAn?$AAi?$AAn?$AAg?$AA?5?$AA?$CF?$AAd?$AA?$AN?$AA?6?$AA?$AA@|
  0065c		 |$LN24@InitDispla|
  0065c	0000 0000	 DCD         |??_C@_1DG@PGIPNLAG@?$AAI?$AAn?$AAi?$AAt?$AAD?$AAi?$AAs?$AAp?$AAl?$AAa?$AAy?$AAD?$AAe?$AAv?$AAi?$AAc?$AAe?$AAI?$AAn?$AAt?$AAe?$AAr?$AAf?$AAa?$AAc?$AAe?$AA?$AA@|
  00660		 |$LN25@InitDispla|
  00660	0000 0000	 DCD         |??_C@_1KG@HHIOCDCE@?$AA?$CF?$AAs?$AA?3?$AA?5?$AAc?$AAa?$AAn?$AA?8?$AAt?$AA?5?$AAg?$AAe?$AAt?$AA?5?$AAA?$AAP?$AAI?$AAs?$AA?3?$AA?5?$AAp?$AAf?$AAn?$AAC?$AAr?$AAe?$AAa?$AAt?$AAe?$AAD?$AAC?$AAW@|
  00664		 |$LN26@InitDispla|
  00664	0000 0000	 DCD         |??_C@_1BE@IMLDAOJP@?$AAE?$AAx?$AAt?$AAE?$AAs?$AAc?$AAa?$AAp?$AAe?$AA?$AA@|
  00668		 |$LN27@InitDispla|
  00668	0000 0000	 DCD         |??_C@_1BC@GMBPGMN@?$AAD?$AAe?$AAl?$AAe?$AAt?$AAe?$AAD?$AAC?$AA?$AA@|
  0066c		 |$LN28@InitDispla|
  0066c	0000 0000	 DCD         |??_C@_1BE@JGEOLONK@?$AAC?$AAr?$AAe?$AAa?$AAt?$AAe?$AAD?$AAC?$AAW?$AA?$AA@|
  00670		 |$LN29@InitDispla|
  00670	0000 0000	 DCD         |??_C@_1DM@EMCCGGJK@?$AA?$CF?$AAs?$AA?3?$AA?5?$AAL?$AAo?$AAa?$AAd?$AAL?$AAi?$AAb?$AAr?$AAa?$AAr?$AAy?$AA?$CI?$AA?$CJ?$AA?5?$AAf?$AAa?$AAi?$AAl?$AAe?$AAd?$AA?5?$AA?$CF?$AAd?$AA?$AN?$AA?6?$AA?$AA@|
  00674		 |$LN30@InitDispla|
  00674	0000 0000	 DCD         |??_C@_1BI@CJKPFBEK@?$AAc?$AAo?$AAr?$AAe?$AAd?$AAl?$AAl?$AA?4?$AAd?$AAl?$AAl?$AA?$AA@|
  00678		 |$LN31@InitDispla|
  00678	0000 0000	 DCD         |dpCurSettings|
  0067c		 |$LN32@InitDispla|
  0067c	0000 0000	 DCD         |gpfnCreateDCW|
  00680		 |$M19|

			 ENDP  ; |?InitDisplayDeviceInterface@@YAHXZ|, InitDisplayDeviceInterface

	END
