; Listing generated by Microsoft (R) Optimizing Compiler Version 17.00.50727.114 

	TTL	C:\wince800\platform\rrm_ppc_windows\src\drivers\pm\mdd\pmexthdl.cpp
	THUMB

  00000			 AREA	 |.drectve|, DRECTVE
	DCB	"-defaultlib:LIBCMT "
	DCB	"-defaultlib:OLDNAMES "

	EXPORT	|?g_pPMExtMgr@@3PAVPMExtensionMgr@@A| [ DATA ] ; g_pPMExtMgr

  00000			 AREA	 |.bss|, NOINIT
|?g_pPMExtMgr@@3PAVPMExtensionMgr@@A| % 0x4		; g_pPMExtMgr
	IMPORT	|__security_push_cookie|
	IMPORT	|__security_pop_cookie|
	IMPORT	|__GSHandlerCheck|
	IMPORT	|StringCchVPrintfW|
	IMPORT	|StringCchLengthW|
	IMPORT	|CeLogData|

  00000			 AREA	 |.pdata|, PDATA
|$pdata1$CeLogMsg| DCD imagerel |$LN8@CeLogMsg|
	DCD	imagerel |$unwind2$CeLogMsg|

  00000			 AREA	 |.xdata|, DATA
|$unwind2$CeLogMsg| DCD 0x44b00032
	DCD	0x1e889e8
	DCD	0x400a8fb
	DCD	0x8801e8ff
	DCD	0xff05ef00
	DCD	imagerel |__GSHandlerCheck|
	DCD	0xffffffe5
; Function compile flags: /Ogsp
; File c:\wince800\public\common\sdk\inc\celog.h

  00000			 AREA	 |.text|, CODE, THUMB

  00000		 |CeLogMsg| PROC

; 1208 : {

  00000		 |$LN8@CeLogMsg|
  00000	b40f		 push        {r0-r3}
  00002	e92d 4800	 push        {r11,lr}
  00006	46eb		 mov         r11,sp
  00008	f000 f800	 bl          __security_push_cookie
  0000c	f2ad 2d24	 subw        sp,sp,#0x224
  00010		 |$M6|
  00010	4602		 mov         r2,r0

; 1209 :     va_list arglist;
; 1210 :     WCHAR   szTemp[MAX_PATH];
; 1211 :     size_t  cchLen;
; 1212 :     HRESULT hr;
; 1213 : 
; 1214 :     // Compose a single string using the input args
; 1215 :     va_start(arglist, szFormat);
; 1216 :     hr = StringCchVPrintfW(szTemp, MAX_PATH, szFormat, arglist);

  00012	a806		 add         r0,sp,#0x18
  00014	ab8d		 add         r3,sp,#0x234
  00016	f44f 7182	 mov         r1,#0x104
  0001a	928c		 str         r2,[sp,#0x230]
  0001c	f000 f800	 bl          StringCchVPrintfW

; 1217 :     if (SUCCEEDED(hr)) {

  00020	2800		 cmp         r0,#0
  00022	db17		 blt         |$LN1@CeLogMsg|

; 1218 :         hr = StringCchLengthW(szTemp, MAX_PATH, &cchLen);

  00024	aa04		 add         r2,sp,#0x10
  00026	a806		 add         r0,sp,#0x18
  00028	f44f 7182	 mov         r1,#0x104
  0002c	f000 f800	 bl          StringCchLengthW

; 1219 :         if (SUCCEEDED(hr)) {

  00030	2800		 cmp         r0,#0
  00032	db0f		 blt         |$LN1@CeLogMsg|

; 1220 :             CeLogData(TRUE, CELID_RAW_WCHAR, szTemp, (WORD)((cchLen + 1) * sizeof(WCHAR)),
; 1221 :                       0, CELZONE_ALWAYSON, 0, FALSE);

  00034	f04f 4380	 mov         r3,#0x40000000
  00038	9301		 str         r3,[sp,#4]
  0003a	9b04		 ldr         r3,[sp,#0x10]
  0003c	2200		 movs        r2,#0
  0003e	9203		 str         r2,[sp,#0xC]
  00040	3301		 adds        r3,#1
  00042	005b		 lsls        r3,r3,#1
  00044	9202		 str         r2,[sp,#8]
  00046	9200		 str         r2,[sp]
  00048	aa06		 add         r2,sp,#0x18
  0004a	214a		 movs        r1,#0x4A
  0004c	b29b		 uxth        r3,r3
  0004e	2001		 movs        r0,#1
  00050	f000 f800	 bl          CeLogData
  00054		 |$LN1@CeLogMsg|
  00054		 |$M9|

; 1222 :         }
; 1223 :     }
; 1224 : }

  00054	f20d 2d24	 addw        sp,sp,#0x224
  00058	f000 f800	 bl          __security_pop_cookie
  0005c	f85d bb04	 pop         {r11}
  00060	f85d fb14	 ldr         pc,[sp],#0x14
  00064		 |$M7|

			 ENDP  ; |CeLogMsg|

	EXPORT	|??0CRegistryEdit@@QAA@PAUHKEY__@@PBG@Z| ; CRegistryEdit::CRegistryEdit
	IMPORT	|RegOpenKeyExW|

  00000			 AREA	 |.pdata|, PDATA
|$pdata1$??0CRegistryEdit@@QAA@PAUHKEY__@@PBG@Z| DCD imagerel |$LN8@CRegistryE|
	DCD	0xfd736059
; Function compile flags: /Ogsp
; File c:\wince800\public\common\oak\inc\cregedit.h

  00000			 AREA	 |.text|, CODE, THUMB

  00000		 |??0CRegistryEdit@@QAA@PAUHKEY__@@PBG@Z| PROC ; CRegistryEdit::CRegistryEdit

; 42   :     CRegistryEdit( HKEY hKey, LPCTSTR pszRegPath )

  00000		 |$LN8@CRegistryE|
  00000	e92d 48fc	 push        {r2-r7,r11,lr}
  00004	f20d 0b18	 addw        r11,sp,#0x18
  00008		 |$M6|
  00008	4615		 mov         r5,r2
  0000a	4604		 mov         r4,r0

; 43   :     {
; 44   :         m_hDevKey = NULL;

  0000c	2700		 movs        r7,#0
  0000e	6027		 str         r7,[r4]

; 45   :         if( pszRegPath )

  00010	460e		 mov         r6,r1
  00012	b145		 cbz         r5,|$LN1@CRegistryE|

; 46   :         {
; 47   :             if( RegOpenKeyEx( hKey, pszRegPath, 0, 0, &m_hDevKey ) != ERROR_SUCCESS )

  00014	2300		 movs        r3,#0
  00016	2200		 movs        r2,#0
  00018	4629		 mov         r1,r5
  0001a	4630		 mov         r0,r6
  0001c	9400		 str         r4,[sp]
  0001e	f000 f800	 bl          RegOpenKeyExW
  00022	b100		 cbz         r0,|$LN1@CRegistryE|

; 48   :             {
; 49   :                 m_hDevKey = NULL;

  00024	6027		 str         r7,[r4]
  00026		 |$LN1@CRegistryE|

; 50   :             }
; 51   :         }
; 52   :     }

  00026	4620		 mov         r0,r4
  00028		 |$M9|
  00028	e8bd 88fc	 pop         {r2-r7,r11,pc}
  0002c		 |$M7|

			 ENDP  ; |??0CRegistryEdit@@QAA@PAUHKEY__@@PBG@Z|, CRegistryEdit::CRegistryEdit

	EXPORT	|?CloseKey@CRegistryEdit@@QAAHXZ|	; CRegistryEdit::CloseKey
	IMPORT	|RegCloseKey|

  00000			 AREA	 |.pdata|, PDATA
|$pdata1$?CloseKey@CRegistryEdit@@QAAHXZ| DCD imagerel |$LN7@CloseKey|
	DCD	0xfd306041
; Function compile flags: /Ogsp
; File c:\wince800\public\common\oak\inc\cregedit.h

  00000			 AREA	 |.text|, CODE, THUMB

  00000		 |?CloseKey@CRegistryEdit@@QAAHXZ| PROC	; CRegistryEdit::CloseKey

; 92   :     BOOL CloseKey() {

  00000		 |$LN7@CloseKey|
  00000	e92d 4818	 push        {r3,r4,r11,lr}
  00004	f20d 0b08	 addw        r11,sp,#8
  00008		 |$M5|
  00008	4604		 mov         r4,r0

; 93   :         if( m_hDevKey )

  0000a	6820		 ldr         r0,[r4]
  0000c	b128		 cbz         r0,|$LN1@CloseKey|

; 94   :         {
; 95   :             RegCloseKey( m_hDevKey );

  0000e	f000 f800	 bl          RegCloseKey

; 96   :             m_hDevKey = NULL;

  00012	2300		 movs        r3,#0
  00014	6023		 str         r3,[r4]

; 97   :             return TRUE;

  00016	2001		 movs        r0,#1
  00018	e000		 b           |$LN2@CloseKey|
  0001a		 |$LN1@CloseKey|

; 98   :         }
; 99   :         return FALSE;

  0001a	2000		 movs        r0,#0
  0001c		 |$LN2@CloseKey|
  0001c		 |$M8|

; 100  :     }

  0001c	e8bd 8818	 pop         {r3,r4,r11,pc}
  00020		 |$M6|

			 ENDP  ; |?CloseKey@CRegistryEdit@@QAAHXZ|, CRegistryEdit::CloseKey

	EXPORT	|?GetRegValue@CRegistryEdit@@QAAHPBGPAEK@Z| ; CRegistryEdit::GetRegValue
	IMPORT	|RegQueryValueExW|

  00000			 AREA	 |.pdata|, PDATA
|$pdata1$?GetRegValue@CRegistryEdit@@QAAHPBGPAEK@Z| DCD imagerel |$LN8@GetRegValu|
	DCD	0xfdff8061
; Function compile flags: /Ogsp
; File c:\wince800\public\common\oak\inc\cregedit.h

  00000			 AREA	 |.text|, CODE, THUMB

  00000		 |?GetRegValue@CRegistryEdit@@QAAHPBGPAEK@Z| PROC ; CRegistryEdit::GetRegValue

; 145  :     {

  00000		 |$LN8@GetRegValu|
  00000	b40f		 push        {r0-r3}
  00002	e92d 480f	 push        {r0-r3,r11,lr}
  00006	f20d 0b10	 addw        r11,sp,#0x10
  0000a		 |$M6|

; 146  :         DWORD dwType = 0;

  0000a	2300		 movs        r3,#0
  0000c	9302		 str         r3,[sp,#8]

; 147  :         LONG status = ::RegQueryValueEx( m_hDevKey,
; 148  :                                            lpcName,
; 149  :                                            NULL,
; 150  :                                            &dwType,
; 151  :                                            lpData,
; 152  :                                            &dwDataLen );

  0000e	6800		 ldr         r0,[r0]
  00010	ab09		 add         r3,sp,#0x24
  00012	9301		 str         r3,[sp,#4]
  00014	9200		 str         r2,[sp]
  00016	ab02		 add         r3,sp,#8
  00018	2200		 movs        r2,#0
  0001a	f000 f800	 bl          RegQueryValueExW

; 153  :         return ( status == ERROR_SUCCESS );

  0001e	b908		 cbnz        r0,|$LN3@GetRegValu|
  00020	2001		 movs        r0,#1
  00022	e000		 b           |$LN4@GetRegValu|
  00024		 |$LN3@GetRegValu|
  00024	2000		 movs        r0,#0
  00026		 |$LN4@GetRegValu|
  00026		 |$M9|

; 154  :     }

  00026	b004		 add         sp,sp,#0x10
  00028	f85d bb04	 pop         {r11}
  0002c	f85d fb14	 ldr         pc,[sp],#0x14
  00030		 |$M7|

			 ENDP  ; |?GetRegValue@CRegistryEdit@@QAAHPBGPAEK@Z|, CRegistryEdit::GetRegValue

	EXPORT	|?IsKeyOpened@CRegistryEdit@@QBAHXZ|	; CRegistryEdit::IsKeyOpened
; Function compile flags: /Ogsp
; File c:\wince800\public\common\oak\inc\cregedit.h

  00000			 AREA	 |.text|, CODE, THUMB

  00000		 |?IsKeyOpened@CRegistryEdit@@QBAHXZ| PROC ; CRegistryEdit::IsKeyOpened

; 198  :         return ( m_hDevKey != NULL );

  00000	6803		 ldr         r3,[r0]
  00002	b10b		 cbz         r3,|$LN3@IsKeyOpene|
  00004	2001		 movs        r0,#1
  00006		 |$M6|

; 199  :     }

  00006	4770		 bx          lr
  00008		 |$LN3@IsKeyOpene|

; 198  :         return ( m_hDevKey != NULL );

  00008	2000		 movs        r0,#0
  0000a		 |$M7|

; 199  :     }

  0000a	4770		 bx          lr

			 ENDP  ; |?IsKeyOpened@CRegistryEdit@@QBAHXZ|, CRegistryEdit::IsKeyOpened

	EXPORT	|?GetHKey@CRegistryEdit@@QAAPAUHKEY__@@XZ| ; CRegistryEdit::GetHKey
; Function compile flags: /Ogsp
; File c:\wince800\public\common\oak\inc\cregedit.h

  00000			 AREA	 |.text|, CODE, THUMB

  00000		 |?GetHKey@CRegistryEdit@@QAAPAUHKEY__@@XZ| PROC ; CRegistryEdit::GetHKey

; 203  :         return m_hDevKey;

  00000	6800		 ldr         r0,[r0]
  00002		 |$M4|

; 204  :     }

  00002	4770		 bx          lr

			 ENDP  ; |?GetHKey@CRegistryEdit@@QAAPAUHKEY__@@XZ|, CRegistryEdit::GetHKey

	EXPORT	|?RegEnumKeyExW@CRegistryEdit@@QAAHKPAGPAK101PAU_FILETIME@@@Z| ; CRegistryEdit::RegEnumKeyExW
	IMPORT	|RegEnumKeyExW|

  00000			 AREA	 |.pdata|, PDATA
|$pdata1$?RegEnumKeyExW@CRegistryEdit@@QAAHKPAGPAK101PAU_FILETIME@@@Z| DCD imagerel |$LN8@RegEnumKey|
	DCD	0x170005d
; Function compile flags: /Ogsp
; File c:\wince800\public\common\oak\inc\cregedit.h

  00000			 AREA	 |.text|, CODE, THUMB

  00000		 |?RegEnumKeyExW@CRegistryEdit@@QAAHKPAGPAK101PAU_FILETIME@@@Z| PROC ; CRegistryEdit::RegEnumKeyExW

; 239  :     {

  00000		 |$LN8@RegEnumKey|
  00000	e92d 4810	 push        {r4,r11,lr}
  00004	f20d 0b04	 addw        r11,sp,#4
  00008	b085		 sub         sp,sp,#0x14
  0000a		 |$M6|

; 240  :         PREFAST_SUPPRESS(386, "Buffer overrun while writing to 'lpClass': the writable size is 'lpcbClass' bytes, but 'lpcbClass*2' bytes may be written.");
; 241  :         return ( ::RegEnumKeyEx( m_hDevKey,
; 242  :                                  dwIndex,
; 243  :                                  lpName,
; 244  :                                  lpcchName,
; 245  :                                  lpReserved,
; 246  :                                  lpClass,
; 247  :                                  lpcbClass,
; 248  :                                  lpftLastWriteTime ) == ERROR_SUCCESS );

  0000a	9c0b		 ldr         r4,[sp,#0x2C]
  0000c	6800		 ldr         r0,[r0]
  0000e	9403		 str         r4,[sp,#0xC]
  00010	9c0a		 ldr         r4,[sp,#0x28]
  00012	9402		 str         r4,[sp,#8]
  00014	9c09		 ldr         r4,[sp,#0x24]
  00016	9401		 str         r4,[sp,#4]
  00018	9c08		 ldr         r4,[sp,#0x20]
  0001a	9400		 str         r4,[sp]
  0001c	f000 f800	 bl          RegEnumKeyExW
  00020	b908		 cbnz        r0,|$LN3@RegEnumKey|
  00022	2001		 movs        r0,#1
  00024	e000		 b           |$LN4@RegEnumKey|
  00026		 |$LN3@RegEnumKey|
  00026	2000		 movs        r0,#0
  00028		 |$LN4@RegEnumKey|
  00028		 |$M9|

; 249  :     }

  00028	b005		 add         sp,sp,#0x14
  0002a	e8bd 8810	 pop         {r4,r11,pc}
  0002e		 |$M7|

			 ENDP  ; |?RegEnumKeyExW@CRegistryEdit@@QAAHKPAGPAK101PAU_FILETIME@@@Z|, CRegistryEdit::RegEnumKeyExW

	EXPORT	|?Init@PMExtension@@QAAHXZ|		; PMExtension::Init
; Function compile flags: /Ogsp
; File c:\wince800\platform\rrm_ppc_windows\src\drivers\pm\mdd\pmexthdl.hpp

  00000			 AREA	 |.text|, CODE, THUMB

  00000		 |?Init@PMExtension@@QAAHXZ| PROC	; PMExtension::Init

; 35   :     BOOL    Init() { return (m_dwContext!=0); };

  00000	6883		 ldr         r3,[r0,#8]
  00002	b10b		 cbz         r3,|$LN3@Init|
  00004	2001		 movs        r0,#1
  00006		 |$M6|
  00006	4770		 bx          lr
  00008		 |$LN3@Init|
  00008	2000		 movs        r0,#0
  0000a		 |$M7|
  0000a	4770		 bx          lr

			 ENDP  ; |?Init@PMExtension@@QAAHXZ|, PMExtension::Init

	EXPORT	|?GetNextPmExt@PMExtension@@QAAPAV1@XZ|	; PMExtension::GetNextPmExt
; Function compile flags: /Ogsp
; File c:\wince800\platform\rrm_ppc_windows\src\drivers\pm\mdd\pmexthdl.hpp

  00000			 AREA	 |.text|, CODE, THUMB

  00000		 |?GetNextPmExt@PMExtension@@QAAPAV1@XZ| PROC ; PMExtension::GetNextPmExt

; 36   :     PMExtension *GetNextPmExt() { return m_pNextPMExt; };

  00000	68c0		 ldr         r0,[r0,#0xC]
  00002		 |$M4|
  00002	4770		 bx          lr

			 ENDP  ; |?GetNextPmExt@PMExtension@@QAAPAV1@XZ|, PMExtension::GetNextPmExt

	EXPORT	|?PMExt_Init@PMExtension@@QAAKPAUHKEY__@@PBG@Z| ; PMExtension::PMExt_Init
	IMPORT	|__C_specific_handler|

  00000			 AREA	 |.pdata|, PDATA
|$pdata1$?PMExt_Init@PMExtension@@QAAKPAUHKEY__@@PBG@Z| DCD imagerel |$LN18@PMExt_Init|
	DCD	imagerel |$unwind2$?PMExt_Init@PMExtension@@QAAKPAUHKEY__@@PBG@Z|

  00000			 AREA	 |.xdata|, DATA
|$unwind2$?PMExt_Init@PMExtension@@QAAKPAUHKEY__@@PBG@Z| DCD 0x3330001a
	DCD	0xb8a8fcc7
	DCD	0x5efff04
	DCD	0xff
	DCD	imagerel |__C_specific_handler|
	DCD	0x1
	DCD	imagerel |$LN10@PMExt_Init|
	DCD	imagerel |$LN11@PMExt_Init|
	DCD	0x1
	DCD	imagerel |$LN7@PMExt_Init|
; Function compile flags: /Ogsp
; File c:\wince800\platform\rrm_ppc_windows\src\drivers\pm\mdd\pmexthdl.hpp

  00000			 AREA	 |.text|, CODE, THUMB

  00000		 |?PMExt_Init@PMExtension@@QAAKPAUHKEY__@@PBG@Z| PROC ; PMExtension::PMExt_Init

; 37   :     DWORD   PMExt_Init(HKEY hKey, LPCTSTR lpRegistryPath) {

  00000		 |$LN18@PMExt_Init|
  00000	b40f		 push        {r0-r3}
  00002	e92d 48b8	 push        {r3-r5,r7,r11,lr}
  00006	f20d 0b10	 addw        r11,sp,#0x10
  0000a	466f		 mov         r7,sp
  0000c		 |$LN16@PMExt_Init|
  0000c	460d		 mov         r5,r1
  0000e	4604		 mov         r4,r0
  00010	61bc		 str         r4,[r7,#0x18]

; 38   :         if (m_dwContext == 0 && m_pInit!=NULL) {

  00012	68a3		 ldr         r3,[r4,#8]
  00014	b94b		 cbnz        r3,|$LN12@PMExt_Init|
  00016	6923		 ldr         r3,[r4,#0x10]
  00018	b13b		 cbz         r3,|$LN12@PMExt_Init|
  0001a		 |$LN10@PMExt_Init|

; 39   :             __try {
; 40   :                 m_dwContext =m_pInit(hKey, lpRegistryPath);

  0001a	4611		 mov         r1,r2
  0001c	4628		 mov         r0,r5
  0001e	4798		 blx         r3
  00020	60a0		 str         r0,[r4,#8]
  00022		 |$LN11@PMExt_Init|

; 41   :             }

  00022	e002		 b           |$LN12@PMExt_Init|
  00024		 |$LN7@PMExt_Init|
  00024		 |$LN9@PMExt_Init|

; 42   :             __except(EXCEPTION_EXECUTE_HANDLER) {
; 43   :                 m_dwContext = 0;

  00024	2300		 movs        r3,#0
  00026	69bc		 ldr         r4,[r7,#0x18]
  00028	60a3		 str         r3,[r4,#8]
  0002a		 |$LN12@PMExt_Init|

; 44   :             }
; 45   :         }
; 46   :         return m_dwContext;

  0002a	68a0		 ldr         r0,[r4,#8]
  0002c		 |$M20|

; 47   :     }

  0002c	e8bd 08b8	 pop         {r3-r5,r7,r11}
  00030	f85d fb14	 ldr         pc,[sp],#0x14

			 ENDP  ; |?PMExt_Init@PMExtension@@QAAKPAUHKEY__@@PBG@Z|, PMExtension::PMExt_Init

  00034		 |$LN17@PMExt_Init|
	EXPORT	|?PMExt_DeInit@PMExtension@@QAAXXZ|	; PMExtension::PMExt_DeInit

  00000			 AREA	 |.pdata|, PDATA
|$pdata1$?PMExt_DeInit@PMExtension@@QAAXXZ| DCD imagerel |$LN17@PMExt_DeIn|
	DCD	imagerel |$unwind2$?PMExt_DeInit@PMExtension@@QAAXXZ|

  00000			 AREA	 |.xdata|, DATA
|$unwind2$?PMExt_DeInit@PMExtension@@QAAXXZ| DCD 0x33300015
	DCD	0x90a8fcc7
	DCD	0x3efff02
	DCD	0xff
	DCD	imagerel |__C_specific_handler|
	DCD	0x1
	DCD	imagerel |$LN10@PMExt_DeIn|
	DCD	imagerel |$LN11@PMExt_DeIn|
	DCD	0x1
	DCD	imagerel |$LN7@PMExt_DeIn|
; Function compile flags: /Ogsp
; File c:\wince800\platform\rrm_ppc_windows\src\drivers\pm\mdd\pmexthdl.hpp

  00000			 AREA	 |.text|, CODE, THUMB

  00000		 |?PMExt_DeInit@PMExtension@@QAAXXZ| PROC ; PMExtension::PMExt_DeInit

; 48   :     VOID    PMExt_DeInit() {

  00000		 |$LN17@PMExt_DeIn|
  00000	b403		 push        {r0,r1}
  00002	e92d 4890	 push        {r4,r7,r11,lr}
  00006	f20d 0b08	 addw        r11,sp,#8
  0000a	466f		 mov         r7,sp
  0000c		 |$LN15@PMExt_DeIn|
  0000c	4604		 mov         r4,r0
  0000e	613c		 str         r4,[r7,#0x10]

; 49   :         if (m_dwContext && m_pDeinit) {

  00010	68a0		 ldr         r0,[r4,#8]
  00012	b120		 cbz         r0,|$LN12@PMExt_DeIn|
  00014	6963		 ldr         r3,[r4,#0x14]
  00016	b113		 cbz         r3,|$LN12@PMExt_DeIn|
  00018		 |$LN10@PMExt_DeIn|

; 50   :             __try {
; 51   :                 m_pDeinit(m_dwContext);

  00018	4798		 blx         r3
  0001a		 |$LN11@PMExt_DeIn|

; 52   :             }

  0001a	e000		 b           |$LN12@PMExt_DeIn|
  0001c		 |$LN7@PMExt_DeIn|
  0001c		 |$LN9@PMExt_DeIn|
  0001c	693c		 ldr         r4,[r7,#0x10]
  0001e		 |$LN12@PMExt_DeIn|

; 53   :             __except(EXCEPTION_EXECUTE_HANDLER) {
; 54   :             }
; 55   :         }
; 56   :         m_dwContext = 0 ;

  0001e	2300		 movs        r3,#0
  00020	60a3		 str         r3,[r4,#8]
  00022		 |$M19|

; 57   :     }

  00022	e8bd 0890	 pop         {r4,r7,r11}
  00026	f85d fb0c	 ldr         pc,[sp],#0xC

			 ENDP  ; |?PMExt_DeInit@PMExtension@@QAAXXZ|, PMExtension::PMExt_DeInit

  0002a		 |$LN16@PMExt_DeIn|
	EXPORT	|?PMExt_GetNotificationHandle@PMExtension@@QAAPAXXZ| ; PMExtension::PMExt_GetNotificationHandle

  00000			 AREA	 |.pdata|, PDATA
|$pdata1$?PMExt_GetNotificationHandle@PMExtension@@QAAPAXXZ| DCD imagerel |$LN18@PMExt_GetN|
	DCD	imagerel |$unwind2$?PMExt_GetNotificationHandle@PMExtension@@QAAPAXXZ|

  00000			 AREA	 |.xdata|, DATA
|$unwind2$?PMExt_GetNotificationHandle@PMExtension@@QAAPAXXZ| DCD 0x20100013
	DCD	0x8ea8fcc7
	DCD	0xff
	DCD	imagerel |__C_specific_handler|
	DCD	0x1
	DCD	imagerel |$LN10@PMExt_GetN|
	DCD	imagerel |$LN11@PMExt_GetN|
	DCD	0x1
	DCD	imagerel |$LN7@PMExt_GetN|
; Function compile flags: /Ogsp
; File c:\wince800\platform\rrm_ppc_windows\src\drivers\pm\mdd\pmexthdl.hpp

  00000			 AREA	 |.text|, CODE, THUMB

  00000		 |?PMExt_GetNotificationHandle@PMExtension@@QAAPAXXZ| PROC ; PMExtension::PMExt_GetNotificationHandle

; 58   :     HANDLE  PMExt_GetNotificationHandle() {

  00000		 |$LN18@PMExt_GetN|
  00000	e92d 488e	 push        {r1-r3,r7,r11,lr}
  00004	f20d 0b10	 addw        r11,sp,#0x10
  00008	466f		 mov         r7,sp
  0000a		 |$LN16@PMExt_GetN|
  0000a	4603		 mov         r3,r0

; 59   :         HANDLE hHandle = NULL;

  0000c	2000		 movs        r0,#0

; 60   :         if (m_dwContext && m_pGetNotificationHandle) {

  0000e	689a		 ldr         r2,[r3,#8]
  00010	b13a		 cbz         r2,|$LN12@PMExt_GetN|
  00012	699b		 ldr         r3,[r3,#0x18]
  00014	b12b		 cbz         r3,|$LN12@PMExt_GetN|
  00016		 |$LN10@PMExt_GetN|

; 61   :             __try {
; 62   :                 hHandle =m_pGetNotificationHandle(m_dwContext);

  00016	4610		 mov         r0,r2
  00018	4798		 blx         r3
  0001a	6038		 str         r0,[r7]
  0001c		 |$LN11@PMExt_GetN|

; 63   :             }

  0001c	e001		 b           |$LN12@PMExt_GetN|
  0001e		 |$LN7@PMExt_GetN|
  0001e		 |$LN9@PMExt_GetN|

; 64   :             __except(EXCEPTION_EXECUTE_HANDLER) {
; 65   :                 hHandle = NULL;

  0001e	2000		 movs        r0,#0
  00020	6038		 str         r0,[r7]
  00022		 |$LN12@PMExt_GetN|
  00022		 |$M20|

; 66   :             }
; 67   :         }
; 68   :         return hHandle;
; 69   :     }

  00022	e8bd 888e	 pop         {r1-r3,r7,r11,pc}

			 ENDP  ; |?PMExt_GetNotificationHandle@PMExtension@@QAAPAXXZ|, PMExtension::PMExt_GetNotificationHandle

  00026		 |$LN17@PMExt_GetN|
	EXPORT	|?PMExt_EventNotification@PMExtension@@QAAXW4PLATFORM_ACTIVITY_EVENT@@@Z| ; PMExtension::PMExt_EventNotification

  00000			 AREA	 |.pdata|, PDATA
|$pdata1$?PMExt_EventNotification@PMExtension@@QAAXW4PLATFORM_ACTIVITY_EVENT@@@Z| DCD imagerel |$LN17@PMExt_Even|
	DCD	imagerel |$unwind2$?PMExt_EventNotification@PMExtension@@QAAXW4PLATFORM_ACTIVITY_EVENT@@@Z|

  00000			 AREA	 |.xdata|, DATA
|$unwind2$?PMExt_EventNotification@PMExtension@@QAAXW4PLATFORM_ACTIVITY_EVENT@@@Z| DCD 0x2010000d
	DCD	0x88a8fcc7
	DCD	0xff
	DCD	imagerel |__C_specific_handler|
	DCD	0x1
	DCD	imagerel |$LN10@PMExt_Even|
	DCD	imagerel |$LN11@PMExt_Even|
	DCD	0x1
	DCD	imagerel |$LN7@PMExt_Even|
; Function compile flags: /Ogsp
; File c:\wince800\platform\rrm_ppc_windows\src\drivers\pm\mdd\pmexthdl.hpp

  00000			 AREA	 |.text|, CODE, THUMB

  00000		 |?PMExt_EventNotification@PMExtension@@QAAXW4PLATFORM_ACTIVITY_EVENT@@@Z| PROC ; PMExtension::PMExt_EventNotification

; 70   :     VOID    PMExt_EventNotification(PLATFORM_ACTIVITY_EVENT platformActivityEvent) {

  00000		 |$LN17@PMExt_Even|
  00000	e92d 4888	 push        {r3,r7,r11,lr}
  00004	f20d 0b08	 addw        r11,sp,#8
  00008	466f		 mov         r7,sp
  0000a		 |$LN15@PMExt_Even|

; 71   :         if (m_dwContext && m_pEventNotification) {

  0000a	6882		 ldr         r2,[r0,#8]
  0000c	b11a		 cbz         r2,|$LN12@PMExt_Even|
  0000e	69c3		 ldr         r3,[r0,#0x1C]
  00010	b10b		 cbz         r3,|$LN12@PMExt_Even|
  00012		 |$LN10@PMExt_Even|

; 72   :             __try {
; 73   :                 m_pEventNotification(m_dwContext,platformActivityEvent);

  00012	4610		 mov         r0,r2
  00014	4798		 blx         r3
  00016		 |$LN11@PMExt_Even|
  00016		 |$LN7@PMExt_Even|
  00016		 |$LN9@PMExt_Even|
  00016		 |$LN12@PMExt_Even|
  00016		 |$M19|

; 74   :             }
; 75   :             __except(EXCEPTION_EXECUTE_HANDLER) {
; 76   :             }
; 77   :         }
; 78   :     }

  00016	e8bd 8888	 pop         {r3,r7,r11,pc}

			 ENDP  ; |?PMExt_EventNotification@PMExtension@@QAAXW4PLATFORM_ACTIVITY_EVENT@@@Z|, PMExtension::PMExt_EventNotification

  0001a		 |$LN16@PMExt_Even|
	EXPORT	|?PMExt_PMBeforeNewSystemState@PMExtension@@QAAXPBGK@Z| ; PMExtension::PMExt_PMBeforeNewSystemState

  00000			 AREA	 |.pdata|, PDATA
|$pdata1$?PMExt_PMBeforeNewSystemState@PMExtension@@QAAXPBGK@Z| DCD imagerel |$LN17@PMExt_PMBe|
	DCD	imagerel |$unwind2$?PMExt_PMBeforeNewSystemState@PMExtension@@QAAXPBGK@Z|

  00000			 AREA	 |.xdata|, DATA
|$unwind2$?PMExt_PMBeforeNewSystemState@PMExtension@@QAAXPBGK@Z| DCD 0x2010000d
	DCD	0x90a8fcc7
	DCD	0xff
	DCD	imagerel |__C_specific_handler|
	DCD	0x1
	DCD	imagerel |$LN10@PMExt_PMBe|
	DCD	imagerel |$LN11@PMExt_PMBe|
	DCD	0x1
	DCD	imagerel |$LN7@PMExt_PMBe|
; Function compile flags: /Ogsp
; File c:\wince800\platform\rrm_ppc_windows\src\drivers\pm\mdd\pmexthdl.hpp

  00000			 AREA	 |.text|, CODE, THUMB

  00000		 |?PMExt_PMBeforeNewSystemState@PMExtension@@QAAXPBGK@Z| PROC ; PMExtension::PMExt_PMBeforeNewSystemState

; 79   :     VOID    PMExt_PMBeforeNewSystemState(LPCTSTR lpNewStateName, DWORD dwFlags) {

  00000		 |$LN17@PMExt_PMBe|
  00000	e92d 4890	 push        {r4,r7,r11,lr}
  00004	f20d 0b08	 addw        r11,sp,#8
  00008	466f		 mov         r7,sp
  0000a		 |$LN15@PMExt_PMBe|

; 80   :         if (m_dwContext && m_pPMExt_PMBeforeNewSystemState) {

  0000a	6884		 ldr         r4,[r0,#8]
  0000c	b11c		 cbz         r4,|$LN12@PMExt_PMBe|
  0000e	6a03		 ldr         r3,[r0,#0x20]
  00010	b10b		 cbz         r3,|$LN12@PMExt_PMBe|
  00012		 |$LN10@PMExt_PMBe|

; 81   :             __try {
; 82   :                 m_pPMExt_PMBeforeNewSystemState(m_dwContext,lpNewStateName,dwFlags);

  00012	4620		 mov         r0,r4
  00014	4798		 blx         r3
  00016		 |$LN11@PMExt_PMBe|
  00016		 |$LN7@PMExt_PMBe|
  00016		 |$LN9@PMExt_PMBe|
  00016		 |$LN12@PMExt_PMBe|
  00016		 |$M19|

; 83   :             }
; 84   :             __except(EXCEPTION_EXECUTE_HANDLER) {
; 85   :             }
; 86   :         }
; 87   :     }

  00016	e8bd 8890	 pop         {r4,r7,r11,pc}

			 ENDP  ; |?PMExt_PMBeforeNewSystemState@PMExtension@@QAAXPBGK@Z|, PMExtension::PMExt_PMBeforeNewSystemState

  0001a		 |$LN16@PMExt_PMBe|
	EXPORT	|?PMExt_PMAfterNewSystemState@PMExtension@@QAAXPBGK@Z| ; PMExtension::PMExt_PMAfterNewSystemState

  00000			 AREA	 |.pdata|, PDATA
|$pdata1$?PMExt_PMAfterNewSystemState@PMExtension@@QAAXPBGK@Z| DCD imagerel |$LN17@PMExt_PMAf|
	DCD	imagerel |$unwind2$?PMExt_PMAfterNewSystemState@PMExtension@@QAAXPBGK@Z|

  00000			 AREA	 |.xdata|, DATA
|$unwind2$?PMExt_PMAfterNewSystemState@PMExtension@@QAAXPBGK@Z| DCD 0x2010000d
	DCD	0x90a8fcc7
	DCD	0xff
	DCD	imagerel |__C_specific_handler|
	DCD	0x1
	DCD	imagerel |$LN10@PMExt_PMAf|
	DCD	imagerel |$LN11@PMExt_PMAf|
	DCD	0x1
	DCD	imagerel |$LN7@PMExt_PMAf|
; Function compile flags: /Ogsp
; File c:\wince800\platform\rrm_ppc_windows\src\drivers\pm\mdd\pmexthdl.hpp

  00000			 AREA	 |.text|, CODE, THUMB

  00000		 |?PMExt_PMAfterNewSystemState@PMExtension@@QAAXPBGK@Z| PROC ; PMExtension::PMExt_PMAfterNewSystemState

; 88   :     VOID    PMExt_PMAfterNewSystemState(LPCTSTR lpNewStateName, DWORD dwFlags) {

  00000		 |$LN17@PMExt_PMAf|
  00000	e92d 4890	 push        {r4,r7,r11,lr}
  00004	f20d 0b08	 addw        r11,sp,#8
  00008	466f		 mov         r7,sp
  0000a		 |$LN15@PMExt_PMAf|

; 89   :         if (m_dwContext && m_pPMExt_PMAfterNewSystemState) {

  0000a	6884		 ldr         r4,[r0,#8]
  0000c	b11c		 cbz         r4,|$LN12@PMExt_PMAf|
  0000e	6a43		 ldr         r3,[r0,#0x24]
  00010	b10b		 cbz         r3,|$LN12@PMExt_PMAf|
  00012		 |$LN10@PMExt_PMAf|

; 90   :             __try {
; 91   :                 m_pPMExt_PMAfterNewSystemState(m_dwContext,lpNewStateName,dwFlags);

  00012	4620		 mov         r0,r4
  00014	4798		 blx         r3
  00016		 |$LN11@PMExt_PMAf|
  00016		 |$LN7@PMExt_PMAf|
  00016		 |$LN9@PMExt_PMAf|
  00016		 |$LN12@PMExt_PMAf|
  00016		 |$M19|

; 92   :             }
; 93   :             __except(EXCEPTION_EXECUTE_HANDLER) {
; 94   :             }
; 95   :         }
; 96   :     }

  00016	e8bd 8890	 pop         {r4,r7,r11,pc}

			 ENDP  ; |?PMExt_PMAfterNewSystemState@PMExtension@@QAAXPBGK@Z|, PMExtension::PMExt_PMAfterNewSystemState

  0001a		 |$LN16@PMExt_PMAf|
	EXPORT	|?PMExt_PMBeforeNewDeviceState@PMExtension@@QAAXPBGW4_CEDEVICE_POWER_STATE@@1@Z| ; PMExtension::PMExt_PMBeforeNewDeviceState

  00000			 AREA	 |.pdata|, PDATA
|$pdata1$?PMExt_PMBeforeNewDeviceState@PMExtension@@QAAXPBGW4_CEDEVICE_POWER_STATE@@1@Z| DCD imagerel |$LN17@PMExt_PMBe|
	DCD	imagerel |$unwind2$?PMExt_PMBeforeNewDeviceState@PMExtension@@QAAXPBGW4_CEDEVICE_POWER_STATE@@1@Z|

  00000			 AREA	 |.xdata|, DATA
|$unwind2$?PMExt_PMBeforeNewDeviceState@PMExtension@@QAAXPBGW4_CEDEVICE_POWER_STATE@@1@Z| DCD 0x2010000d
	DCD	0xb8a8fcc7
	DCD	0xff
	DCD	imagerel |__C_specific_handler|
	DCD	0x1
	DCD	imagerel |$LN10@PMExt_PMBe|
	DCD	imagerel |$LN11@PMExt_PMBe|
	DCD	0x1
	DCD	imagerel |$LN7@PMExt_PMBe|
; Function compile flags: /Ogsp
; File c:\wince800\platform\rrm_ppc_windows\src\drivers\pm\mdd\pmexthdl.hpp

  00000			 AREA	 |.text|, CODE, THUMB

  00000		 |?PMExt_PMBeforeNewDeviceState@PMExtension@@QAAXPBGW4_CEDEVICE_POWER_STATE@@1@Z| PROC ; PMExtension::PMExt_PMBeforeNewDeviceState

; 97   :     VOID    PMExt_PMBeforeNewDeviceState(LPCTSTR pszName, CEDEVICE_POWER_STATE curDx, CEDEVICE_POWER_STATE reqDx) {

  00000		 |$LN17@PMExt_PMBe|
  00000	e92d 48b8	 push        {r3-r5,r7,r11,lr}
  00004	f20d 0b10	 addw        r11,sp,#0x10
  00008	466f		 mov         r7,sp
  0000a		 |$LN15@PMExt_PMBe|

; 98   :         if (m_dwContext && m_pPMExt_PMBeforeNewDeviceState) {

  0000a	6885		 ldr         r5,[r0,#8]
  0000c	b11d		 cbz         r5,|$LN12@PMExt_PMBe|
  0000e	6a84		 ldr         r4,[r0,#0x28]
  00010	b10c		 cbz         r4,|$LN12@PMExt_PMBe|
  00012		 |$LN10@PMExt_PMBe|

; 99   :             __try {
; 100  :                 m_pPMExt_PMBeforeNewDeviceState(m_dwContext,pszName,curDx,reqDx);

  00012	4628		 mov         r0,r5
  00014	47a0		 blx         r4
  00016		 |$LN11@PMExt_PMBe|
  00016		 |$LN7@PMExt_PMBe|
  00016		 |$LN9@PMExt_PMBe|
  00016		 |$LN12@PMExt_PMBe|
  00016		 |$M19|

; 101  :             }
; 102  :             __except(EXCEPTION_EXECUTE_HANDLER) {
; 103  :             }
; 104  :         }
; 105  :         
; 106  :     }

  00016	e8bd 88b8	 pop         {r3-r5,r7,r11,pc}

			 ENDP  ; |?PMExt_PMBeforeNewDeviceState@PMExtension@@QAAXPBGW4_CEDEVICE_POWER_STATE@@1@Z|, PMExtension::PMExt_PMBeforeNewDeviceState

  0001a		 |$LN16@PMExt_PMBe|
	EXPORT	|?PMExt_PMAfterNewDeviceState@PMExtension@@QAAXPBGW4_CEDEVICE_POWER_STATE@@1@Z| ; PMExtension::PMExt_PMAfterNewDeviceState

  00000			 AREA	 |.pdata|, PDATA
|$pdata1$?PMExt_PMAfterNewDeviceState@PMExtension@@QAAXPBGW4_CEDEVICE_POWER_STATE@@1@Z| DCD imagerel |$LN17@PMExt_PMAf|
	DCD	imagerel |$unwind2$?PMExt_PMAfterNewDeviceState@PMExtension@@QAAXPBGW4_CEDEVICE_POWER_STATE@@1@Z|

  00000			 AREA	 |.xdata|, DATA
|$unwind2$?PMExt_PMAfterNewDeviceState@PMExtension@@QAAXPBGW4_CEDEVICE_POWER_STATE@@1@Z| DCD 0x2010000d
	DCD	0xb8a8fcc7
	DCD	0xff
	DCD	imagerel |__C_specific_handler|
	DCD	0x1
	DCD	imagerel |$LN10@PMExt_PMAf|
	DCD	imagerel |$LN11@PMExt_PMAf|
	DCD	0x1
	DCD	imagerel |$LN7@PMExt_PMAf|
; Function compile flags: /Ogsp
; File c:\wince800\platform\rrm_ppc_windows\src\drivers\pm\mdd\pmexthdl.hpp

  00000			 AREA	 |.text|, CODE, THUMB

  00000		 |?PMExt_PMAfterNewDeviceState@PMExtension@@QAAXPBGW4_CEDEVICE_POWER_STATE@@1@Z| PROC ; PMExtension::PMExt_PMAfterNewDeviceState

; 107  :     VOID    PMExt_PMAfterNewDeviceState(LPCTSTR pszName, CEDEVICE_POWER_STATE curDx, CEDEVICE_POWER_STATE reqDx) {

  00000		 |$LN17@PMExt_PMAf|
  00000	e92d 48b8	 push        {r3-r5,r7,r11,lr}
  00004	f20d 0b10	 addw        r11,sp,#0x10
  00008	466f		 mov         r7,sp
  0000a		 |$LN15@PMExt_PMAf|

; 108  :         if (m_dwContext && m_pPMExt_PMAfterNewDeviceState) {

  0000a	6885		 ldr         r5,[r0,#8]
  0000c	b11d		 cbz         r5,|$LN12@PMExt_PMAf|
  0000e	6ac4		 ldr         r4,[r0,#0x2C]
  00010	b10c		 cbz         r4,|$LN12@PMExt_PMAf|
  00012		 |$LN10@PMExt_PMAf|

; 109  :             __try {
; 110  :                 m_pPMExt_PMAfterNewDeviceState(m_dwContext,pszName,curDx,reqDx);

  00012	4628		 mov         r0,r5
  00014	47a0		 blx         r4
  00016		 |$LN11@PMExt_PMAf|
  00016		 |$LN7@PMExt_PMAf|
  00016		 |$LN9@PMExt_PMAf|
  00016		 |$LN12@PMExt_PMAf|
  00016		 |$M19|

; 111  :             }
; 112  :             __except(EXCEPTION_EXECUTE_HANDLER) {
; 113  :             }
; 114  :         }
; 115  :     }

  00016	e8bd 88b8	 pop         {r3-r5,r7,r11,pc}

			 ENDP  ; |?PMExt_PMAfterNewDeviceState@PMExtension@@QAAXPBGW4_CEDEVICE_POWER_STATE@@1@Z|, PMExtension::PMExt_PMAfterNewDeviceState

  0001a		 |$LN16@PMExt_PMAf|
	EXPORT	|??_C@_1EA@JANBNPGO@?$AAP?$AAM?$AA?5?$AAe?$AAx?$AAt?$AAe?$AAn?$AAs?$AAi?$AAo?$AAn?$AA?5?$AAh?$AAa?$AAn?$AAd?$AAl?$AAe?$AA?5?$AAo?$AAv?$AAe?$AAr?$AAf?$AAl?$AAo?$AAw?$AA?4?$AA?$AN?$AA?6?$AA?$AA@| [ DATA ] ; `string'
	EXPORT	|?PMExt_GetNotificationHandle@PMExtensionMgr@@QAAHAAKQAPAX@Z| ; PMExtensionMgr::PMExt_GetNotificationHandle
	IMPORT	|dpCurSettings|
	IMPORT	|NKDbgPrintfW|

  00008			 AREA	 |.pdata|, PDATA
|$pdata1$?PMExt_GetNotificationHandle@PMExtensionMgr@@QAAHAAKQAPAX@Z| DCD imagerel |$LN16@PMExt_GetN|
	DCD	0x3160b1

  00000			 AREA	 |.rdata|, DATA, READONLY
|??_C@_1EA@JANBNPGO@?$AAP?$AAM?$AA?5?$AAe?$AAx?$AAt?$AAe?$AAn?$AAs?$AAi?$AAo?$AAn?$AA?5?$AAh?$AAa?$AAn?$AAd?$AAl?$AAe?$AA?5?$AAo?$AAv?$AAe?$AAr?$AAf?$AAl?$AAo?$AAw?$AA?4?$AA?$AN?$AA?6?$AA?$AA@| DCB "P"
	DCB	0x0, "M", 0x0, " ", 0x0, "e", 0x0, "x", 0x0, "t", 0x0, "e"
	DCB	0x0, "n", 0x0, "s", 0x0, "i", 0x0, "o", 0x0, "n", 0x0, " "
	DCB	0x0, "h", 0x0, "a", 0x0, "n", 0x0, "d", 0x0, "l", 0x0, "e"
	DCB	0x0, " ", 0x0, "o", 0x0, "v", 0x0, "e", 0x0, "r", 0x0, "f"
	DCB	0x0, "l", 0x0, "o", 0x0, "w", 0x0, ".", 0x0, 0xd, 0x0, 0xa
	DCB	0x0, 0x0, 0x0				; `string'
; Function compile flags: /Ogsp
; File c:\wince800\platform\rrm_ppc_windows\src\drivers\pm\mdd\pmexthdl.cpp

  00064			 AREA	 |.text|, CODE, THUMB

  00064		 |?PMExt_GetNotificationHandle@PMExtensionMgr@@QAAHAAKQAPAX@Z| PROC ; PMExtensionMgr::PMExt_GetNotificationHandle

; 128  : {

  00064		 |$LN16@PMExt_GetN|
  00064	e92d 4830	 push        {r4,r5,r11,lr}
  00068	f20d 0b08	 addw        r11,sp,#8
  0006c		 |$M14|
  0006c	4615		 mov         r5,r2

; 129  :     DWORD dwMaxNumEvent= dwNumEvent;

  0006e	680c		 ldr         r4,[r1]

; 130  :     dwNumEvent = 0 ;

  00070	2200		 movs        r2,#0
  00072	600a		 str         r2,[r1]

; 131  :     if (PmEventArray!=NULL && m_dwNumOfHandle < dwMaxNumEvent) {

  00074	b19d		 cbz         r5,|$LN5@PMExt_GetN|
  00076	6843		 ldr         r3,[r0,#4]
  00078	42a3		 cmp         r3,r4
  0007a	d210		 bcs         |$LN5@PMExt_GetN|

; 132  :         for (dwNumEvent = 0; dwNumEvent< m_dwNumOfHandle; dwNumEvent++) {

  0007c	600a		 str         r2,[r1]
  0007e	6843		 ldr         r3,[r0,#4]
  00080	b15b		 cbz         r3,|$LN2@PMExt_GetN|
  00082		 |$LL4@PMExt_GetN|

; 133  :             PmEventArray[dwNumEvent] = m_hPmExended[dwNumEvent];

  00082	680c		 ldr         r4,[r1]
  00084	eb00 0384	 add         r3,r0,r4,lsl #2
  00088	689b		 ldr         r3,[r3,#8]
  0008a	f845 3024	 str         r3,[r5,r4,lsl #2]
  0008e	680b		 ldr         r3,[r1]
  00090	1c5a		 adds        r2,r3,#1
  00092	600a		 str         r2,[r1]
  00094	6843		 ldr         r3,[r0,#4]
  00096	429a		 cmp         r2,r3
  00098	d3f3		 bcc         |$LL4@PMExt_GetN|
  0009a		 |$LN2@PMExt_GetN|

; 134  :         }
; 135  :         return TRUE;

  0009a	2001		 movs        r0,#1
  0009c	e00c		 b           |$LN1@PMExt_GetN|
  0009e		 |$LN5@PMExt_GetN|

; 136  :     }
; 137  :     else {
; 138  :         PMLOGMSG(ZONE_ERROR, (_T("PM extension handle overflow.\r\n")));

  0009e	4b08		 ldr         r3,|$LN20@PMExt_GetN| ; =|dpCurSettings|
  000a0	f8d3 3440	 ldr         r3,[r3,#0x440]
  000a4	f013 0f01	 tst         r3,#1
  000a8	d005		 beq         |$LN8@PMExt_GetN|
  000aa	4804		 ldr         r0,|$LN19@PMExt_GetN| ; =|??_C@_1EA@JANBNPGO@?$AAP?$AAM?$AA?5?$AAe?$AAx?$AAt?$AAe?$AAn?$AAs?$AAi?$AAo?$AAn?$AA?5?$AAh?$AAa?$AAn?$AAd?$AAl?$AAe?$AA?5?$AAo?$AAv?$AAe?$AAr?$AAf?$AAl?$AAo?$AAw?$AA?4?$AA?$AN?$AA?6?$AA?$AA@|
  000ac	f000 f800	 bl          NKDbgPrintfW
  000b0	4802		 ldr         r0,|$LN19@PMExt_GetN| ; =|??_C@_1EA@JANBNPGO@?$AAP?$AAM?$AA?5?$AAe?$AAx?$AAt?$AAe?$AAn?$AAs?$AAi?$AAo?$AAn?$AA?5?$AAh?$AAa?$AAn?$AAd?$AAl?$AAe?$AA?5?$AAo?$AAv?$AAe?$AAr?$AAf?$AAl?$AAo?$AAw?$AA?4?$AA?$AN?$AA?6?$AA?$AA@|
  000b2	f000 f800	 bl          CeLogMsg
  000b6		 |$LN8@PMExt_GetN|

; 139  :         return FALSE;

  000b6	2000		 movs        r0,#0
  000b8		 |$LN1@PMExt_GetN|
  000b8		 |$M17|

; 140  :     }
; 141  : }

  000b8	e8bd 8830	 pop         {r4,r5,r11,pc}
  000bc		 |$LN18@PMExt_GetN|
  000bc		 |$LN19@PMExt_GetN|
  000bc	0000 0000	 DCD         |??_C@_1EA@JANBNPGO@?$AAP?$AAM?$AA?5?$AAe?$AAx?$AAt?$AAe?$AAn?$AAs?$AAi?$AAo?$AAn?$AA?5?$AAh?$AAa?$AAn?$AAd?$AAl?$AAe?$AA?5?$AAo?$AAv?$AAe?$AAr?$AAf?$AAl?$AAo?$AAw?$AA?4?$AA?$AN?$AA?6?$AA?$AA@|
  000c0		 |$LN20@PMExt_GetN|
  000c0	0000 0000	 DCD         |dpCurSettings|
  000c4		 |$M15|

			 ENDP  ; |?PMExt_GetNotificationHandle@PMExtensionMgr@@QAAHAAKQAPAX@Z|, PMExtensionMgr::PMExt_GetNotificationHandle

	EXPORT	|??1CRegistryEdit@@QAA@XZ|		; CRegistryEdit::~CRegistryEdit

  00000			 AREA	 |.pdata|, PDATA
|$pdata1$??1CRegistryEdit@@QAA@XZ| DCD imagerel |$LN9@CRegistryE|
	DCD	0xfd306035
; Function compile flags: /Ogsp
; File c:\wince800\public\common\oak\inc\cregedit.h

  00000			 AREA	 |.text|, CODE, THUMB

  00000		 |??1CRegistryEdit@@QAA@XZ| PROC	; CRegistryEdit::~CRegistryEdit

; 89   :     {

  00000		 |$LN9@CRegistryE|
  00000	e92d 4818	 push        {r3,r4,r11,lr}
  00004	f20d 0b08	 addw        r11,sp,#8
  00008		 |$M7|
  00008	4604		 mov         r4,r0

; 92   :     BOOL CloseKey() {
; 93   :         if( m_hDevKey )

  0000a	6820		 ldr         r0,[r4]
  0000c	b118		 cbz         r0,|$LN3@CRegistryE|

; 94   :         {
; 95   :             RegCloseKey( m_hDevKey );

  0000e	f000 f800	 bl          RegCloseKey

; 96   :             m_hDevKey = NULL;

  00012	2300		 movs        r3,#0
  00014	6023		 str         r3,[r4]
  00016		 |$LN3@CRegistryE|
  00016		 |$M10|

; 90   :         CloseKey();
; 91   :     }

  00016	e8bd 8818	 pop         {r3,r4,r11,pc}
  0001a		 |$M8|

			 ENDP  ; |??1CRegistryEdit@@QAA@XZ|, CRegistryEdit::~CRegistryEdit

	EXPORT	|??_C@_1FK@FNONLNGN@?$AA?$CF?$AAs?$AA?3?$AA?5?$AAD?$AAE?$AAB?$AAU?$AAG?$AAC?$AAH?$AAK?$AA?5?$AAf?$AAa?$AAi?$AAl?$AAe?$AAd?$AA?5?$AAi?$AAn?$AA?5?$AAf?$AAi?$AAl?$AAe?$AA?5?$AA?$CF?$AAs?$AA?5?$AAa@| [ DATA ] ; `string'
	EXPORT	|??_C@_1BA@LEPJIIOK@?$AAU?$AAn?$AAk?$AAn?$AAo?$AAw?$AAn?$AA?$AA@| [ DATA ] ; `string'
	EXPORT	|??_C@_1IK@GNICOBEB@?$AAc?$AA?3?$AA?2?$AAw?$AAi?$AAn?$AAc?$AAe?$AA8?$AA0?$AA0?$AA?2?$AAp?$AAl?$AAa?$AAt?$AAf?$AAo?$AAr?$AAm?$AA?2?$AAr?$AAr?$AAm?$AA_?$AAp?$AAp?$AAc?$AA_?$AAw?$AAi?$AAn@| [ DATA ] ; `string'
	EXPORT	|?PMExt_EventNotification@PMExtensionMgr@@QAAXW4PLATFORM_ACTIVITY_EVENT@@@Z| ; PMExtensionMgr::PMExt_EventNotification

  00010			 AREA	 |.pdata|, PDATA
|$pdata1$?PMExt_EventNotification@PMExtensionMgr@@QAAXW4PLATFORM_ACTIVITY_EVENT@@@Z| DCD imagerel |$LN22@PMExt_Even|
	DCD	0x3160b5

  00000			 AREA	 |.rdata|, DATA, READONLY
|??_C@_1IK@GNICOBEB@?$AAc?$AA?3?$AA?2?$AAw?$AAi?$AAn?$AAc?$AAe?$AA8?$AA0?$AA0?$AA?2?$AAp?$AAl?$AAa?$AAt?$AAf?$AAo?$AAr?$AAm?$AA?2?$AAr?$AAr?$AAm?$AA_?$AAp?$AAp?$AAc?$AA_?$AAw?$AAi?$AAn@| DCB "c"
	DCB	0x0, ":", 0x0, "\\", 0x0, "w", 0x0, "i", 0x0, "n", 0x0, "c"
	DCB	0x0, "e", 0x0, "8", 0x0, "0", 0x0, "0", 0x0, "\\", 0x0, "p"
	DCB	0x0, "l", 0x0, "a", 0x0, "t", 0x0, "f", 0x0, "o", 0x0, "r"
	DCB	0x0, "m", 0x0, "\\", 0x0, "r", 0x0, "r", 0x0, "m", 0x0, "_"
	DCB	0x0, "p", 0x0, "p", 0x0, "c", 0x0, "_", 0x0, "w", 0x0, "i"
	DCB	0x0, "n", 0x0, "d", 0x0, "o", 0x0, "w", 0x0, "s", 0x0, "\\"
	DCB	0x0, "s", 0x0, "r", 0x0, "c", 0x0, "\\", 0x0, "d", 0x0, "r"
	DCB	0x0, "i", 0x0, "v", 0x0, "e", 0x0, "r", 0x0, "s", 0x0, "\\"
	DCB	0x0, "p", 0x0, "m", 0x0, "\\", 0x0, "m", 0x0, "d", 0x0, "d"
	DCB	0x0, "\\", 0x0, "p", 0x0, "m", 0x0, "e", 0x0, "x", 0x0, "t"
	DCB	0x0, "h", 0x0, "d", 0x0, "l", 0x0, ".", 0x0, "c", 0x0, "p"
	DCB	0x0, "p", 0x0, 0x0, 0x0			; `string'

  00000			 AREA	 |.rdata|, DATA, READONLY
|??_C@_1BA@LEPJIIOK@?$AAU?$AAn?$AAk?$AAn?$AAo?$AAw?$AAn?$AA?$AA@| DCB "U", 0x0
	DCB	"n", 0x0, "k", 0x0, "n", 0x0, "o", 0x0, "w", 0x0, "n", 0x0
	DCB	0x0, 0x0				; `string'

  00000			 AREA	 |.rdata|, DATA, READONLY
|??_C@_1FK@FNONLNGN@?$AA?$CF?$AAs?$AA?3?$AA?5?$AAD?$AAE?$AAB?$AAU?$AAG?$AAC?$AAH?$AAK?$AA?5?$AAf?$AAa?$AAi?$AAl?$AAe?$AAd?$AA?5?$AAi?$AAn?$AA?5?$AAf?$AAi?$AAl?$AAe?$AA?5?$AA?$CF?$AAs?$AA?5?$AAa@| DCB "%"
	DCB	0x0, "s", 0x0, ":", 0x0, " ", 0x0, "D", 0x0, "E", 0x0, "B"
	DCB	0x0, "U", 0x0, "G", 0x0, "C", 0x0, "H", 0x0, "K", 0x0, " "
	DCB	0x0, "f", 0x0, "a", 0x0, "i", 0x0, "l", 0x0, "e", 0x0, "d"
	DCB	0x0, " ", 0x0, "i", 0x0, "n", 0x0, " ", 0x0, "f", 0x0, "i"
	DCB	0x0, "l", 0x0, "e", 0x0, " ", 0x0, "%", 0x0, "s", 0x0, " "
	DCB	0x0, "a", 0x0, "t", 0x0, " ", 0x0, "l", 0x0, "i", 0x0, "n"
	DCB	0x0, "e", 0x0, " ", 0x0, "%", 0x0, "d", 0x0, " ", 0x0, 0xd
	DCB	0x0, 0xa, 0x0, 0x0, 0x0			; `string'
; Function compile flags: /Ogsp
; File c:\wince800\platform\rrm_ppc_windows\src\drivers\pm\mdd\pmexthdl.cpp

  000c4			 AREA	 |.text|, CODE, THUMB

  000c4		 |?PMExt_EventNotification@PMExtensionMgr@@QAAXW4PLATFORM_ACTIVITY_EVENT@@@Z| PROC ; PMExtensionMgr::PMExt_EventNotification

; 143  : {

  000c4		 |$LN22@PMExt_Even|
  000c4	e92d 4830	 push        {r4,r5,r11,lr}
  000c8	f20d 0b08	 addw        r11,sp,#8
  000cc		 |$M20|

; 144  :     PMExtension * pCurExt = m_PMExtensionList ;

  000cc	6804		 ldr         r4,[r0]
  000ce	460d		 mov         r5,r1

; 145  :     if (platformActivityEvent<PowerManagerExt) { // This is public event. Every extension got it.

  000d0	f5b1 6f00	 cmp         r1,#0x800
  000d4	db17		 blt         |$LN18@PMExt_Even|

; 149  :         }
; 150  :     }
; 151  :     else if (platformActivityEvent< ExternedEvent) { // This is PMExt Event.

  000d6	f5b1 5f80	 cmp         r1,#0x1000
  000da	da1e		 bge         |$LN12@PMExt_Even|

; 152  :         DWORD dwIndex = (DWORD)(platformActivityEvent- PowerManagerExt);

  000dc	f44f 6100	 mov         r1,#0x800
  000e0	1a6a		 subs        r2,r5,r1

; 153  :         if (dwIndex < _countof(m_OwnerPMExt)) {

  000e2	2a40		 cmp         r2,#0x40
  000e4	d212		 bcs         |$LN3@PMExt_Even|

; 154  :             if (dwIndex<m_dwNumOfHandle && m_OwnerPMExt[dwIndex]!=NULL)

  000e6	6843		 ldr         r3,[r0,#4]
  000e8	429a		 cmp         r2,r3
  000ea	d216		 bcs         |$LN12@PMExt_Even|
  000ec	eb00 0382	 add         r3,r0,r2,lsl #2
  000f0	f8d3 0108	 ldr         r0,[r3,#0x108]
  000f4	b188		 cbz         r0,|$LN12@PMExt_Even|

; 155  :                 m_OwnerPMExt[dwIndex]->PMExt_EventNotification(PowerManagerExt);

  000f6	f000 f800	 bl          |?PMExt_EventNotification@PMExtension@@QAAXW4PLATFORM_ACTIVITY_EVENT@@@Z|

; 156  :         } else {

  000fa	e00e		 b           |$LN12@PMExt_Even|
  000fc		 |$LL7@PMExt_Even|

; 147  :             pCurExt->PMExt_EventNotification(platformActivityEvent);

  000fc	4629		 mov         r1,r5
  000fe	4620		 mov         r0,r4
  00100	f000 f800	 bl          |?PMExt_EventNotification@PMExtension@@QAAXW4PLATFORM_ACTIVITY_EVENT@@@Z|

; 148  :             pCurExt = pCurExt->GetNextPmExt();

  00104	68e4		 ldr         r4,[r4,#0xC]
  00106		 |$LN18@PMExt_Even|

; 146  :         while (pCurExt) {

  00106	2c00		 cmp         r4,#0
  00108	d1f8		 bne         |$LL7@PMExt_Even|

; 149  :         }
; 150  :     }
; 151  :     else if (platformActivityEvent< ExternedEvent) { // This is PMExt Event.

  0010a	e006		 b           |$LN12@PMExt_Even|
  0010c		 |$LN3@PMExt_Even|

; 157  :             ASSERT(FALSE);

  0010c	4a06		 ldr         r2,|$LN27@PMExt_Even| ; =|??_C@_1IK@GNICOBEB@?$AAc?$AA?3?$AA?2?$AAw?$AAi?$AAn?$AAc?$AAe?$AA8?$AA0?$AA0?$AA?2?$AAp?$AAl?$AAa?$AAt?$AAf?$AAo?$AAr?$AAm?$AA?2?$AAr?$AAr?$AAm?$AA_?$AAp?$AAp?$AAc?$AA_?$AAw?$AAi?$AAn@|
  0010e	4905		 ldr         r1,|$LN26@PMExt_Even| ; =|??_C@_1BA@LEPJIIOK@?$AAU?$AAn?$AAk?$AAn?$AAo?$AAw?$AAn?$AA?$AA@|
  00110	4803		 ldr         r0,|$LN25@PMExt_Even| ; =|??_C@_1FK@FNONLNGN@?$AA?$CF?$AAs?$AA?3?$AA?5?$AAD?$AAE?$AAB?$AAU?$AAG?$AAC?$AAH?$AAK?$AA?5?$AAf?$AAa?$AAi?$AAl?$AAe?$AAd?$AA?5?$AAi?$AAn?$AA?5?$AAf?$AAi?$AAl?$AAe?$AA?5?$AA?$CF?$AAs?$AA?5?$AAa@|
  00112	239d		 movs        r3,#0x9D
  00114	f000 f800	 bl          NKDbgPrintfW
  00118	defe		 __debugbreak
  0011a		 |$LN12@PMExt_Even|
  0011a		 |$M23|

; 158  :         }
; 159  :     }
; 160  : }

  0011a	e8bd 8830	 pop         {r4,r5,r11,pc}
  0011e		 |$LN28@PMExt_Even|
  0011e		 |$M29|
  0011e	defe		 __debugbreak
  00120		 |$LN24@PMExt_Even|
  00120		 |$LN25@PMExt_Even|
  00120	0000 0000	 DCD         |??_C@_1FK@FNONLNGN@?$AA?$CF?$AAs?$AA?3?$AA?5?$AAD?$AAE?$AAB?$AAU?$AAG?$AAC?$AAH?$AAK?$AA?5?$AAf?$AAa?$AAi?$AAl?$AAe?$AAd?$AA?5?$AAi?$AAn?$AA?5?$AAf?$AAi?$AAl?$AAe?$AA?5?$AA?$CF?$AAs?$AA?5?$AAa@|
  00124		 |$LN26@PMExt_Even|
  00124	0000 0000	 DCD         |??_C@_1BA@LEPJIIOK@?$AAU?$AAn?$AAk?$AAn?$AAo?$AAw?$AAn?$AA?$AA@|
  00128		 |$LN27@PMExt_Even|
  00128	0000 0000	 DCD         |??_C@_1IK@GNICOBEB@?$AAc?$AA?3?$AA?2?$AAw?$AAi?$AAn?$AAc?$AAe?$AA8?$AA0?$AA0?$AA?2?$AAp?$AAl?$AAa?$AAt?$AAf?$AAo?$AAr?$AAm?$AA?2?$AAr?$AAr?$AAm?$AA_?$AAp?$AAp?$AAc?$AA_?$AAw?$AAi?$AAn@|
  0012c		 |$M21|

			 ENDP  ; |?PMExt_EventNotification@PMExtensionMgr@@QAAXW4PLATFORM_ACTIVITY_EVENT@@@Z|, PMExtensionMgr::PMExt_EventNotification

	EXPORT	|?PMExt_PMBeforeNewSystemState@PMExtensionMgr@@QAAXPBGK@Z| ; PMExtensionMgr::PMExt_PMBeforeNewSystemState

  00000			 AREA	 |.pdata|, PDATA
|$pdata1$?PMExt_PMBeforeNewSystemState@PMExtensionMgr@@QAAXPBGK@Z| DCD imagerel |$LN14@PMExt_PMBe|
	DCD	0xfd326049
; Function compile flags: /Ogsp
; File c:\wince800\platform\rrm_ppc_windows\src\drivers\pm\mdd\pmexthdl.hpp

  00000			 AREA	 |.text|, CODE, THUMB

  00000		 |?PMExt_PMBeforeNewSystemState@PMExtensionMgr@@QAAXPBGK@Z| PROC ; PMExtensionMgr::PMExt_PMBeforeNewSystemState

; 144  :     VOID     PMExt_PMBeforeNewSystemState(LPCTSTR lpNewStateName, DWORD dwFlags) {

  00000		 |$LN14@PMExt_PMBe|
  00000	e92d 4878	 push        {r3-r6,r11,lr}
  00004	f20d 0b10	 addw        r11,sp,#0x10
  00008		 |$M12|

; 145  :         PMExtension * pCurExt = m_PMExtensionList ;

  00008	6804		 ldr         r4,[r0]
  0000a	4615		 mov         r5,r2
  0000c	460e		 mov         r6,r1
  0000e	e005		 b           |$LN10@PMExt_PMBe|
  00010		 |$LL2@PMExt_PMBe|

; 147  :             pCurExt->PMExt_PMBeforeNewSystemState(lpNewStateName,dwFlags);

  00010	462a		 mov         r2,r5
  00012	4631		 mov         r1,r6
  00014	4620		 mov         r0,r4
  00016	f000 f800	 bl          |?PMExt_PMBeforeNewSystemState@PMExtension@@QAAXPBGK@Z|

; 148  :             pCurExt = pCurExt->GetNextPmExt();

  0001a	68e4		 ldr         r4,[r4,#0xC]
  0001c		 |$LN10@PMExt_PMBe|

; 146  :         while (pCurExt) {

  0001c	2c00		 cmp         r4,#0
  0001e	d1f7		 bne         |$LL2@PMExt_PMBe|
  00020		 |$M15|

; 149  :         }
; 150  :     }

  00020	e8bd 8878	 pop         {r3-r6,r11,pc}
  00024		 |$M13|

			 ENDP  ; |?PMExt_PMBeforeNewSystemState@PMExtensionMgr@@QAAXPBGK@Z|, PMExtensionMgr::PMExt_PMBeforeNewSystemState

	EXPORT	|?PMExt_PMAfterNewSystemState@PMExtensionMgr@@QAAXPBGK@Z| ; PMExtensionMgr::PMExt_PMAfterNewSystemState

  00000			 AREA	 |.pdata|, PDATA
|$pdata1$?PMExt_PMAfterNewSystemState@PMExtensionMgr@@QAAXPBGK@Z| DCD imagerel |$LN14@PMExt_PMAf|
	DCD	0xfd326049
; Function compile flags: /Ogsp
; File c:\wince800\platform\rrm_ppc_windows\src\drivers\pm\mdd\pmexthdl.hpp

  00000			 AREA	 |.text|, CODE, THUMB

  00000		 |?PMExt_PMAfterNewSystemState@PMExtensionMgr@@QAAXPBGK@Z| PROC ; PMExtensionMgr::PMExt_PMAfterNewSystemState

; 151  :     VOID     PMExt_PMAfterNewSystemState(LPCTSTR lpNewStateName, DWORD dwFlags) {

  00000		 |$LN14@PMExt_PMAf|
  00000	e92d 4878	 push        {r3-r6,r11,lr}
  00004	f20d 0b10	 addw        r11,sp,#0x10
  00008		 |$M12|

; 152  :         PMExtension * pCurExt = m_PMExtensionList ;

  00008	6804		 ldr         r4,[r0]
  0000a	4615		 mov         r5,r2
  0000c	460e		 mov         r6,r1
  0000e	e005		 b           |$LN10@PMExt_PMAf|
  00010		 |$LL2@PMExt_PMAf|

; 154  :             pCurExt->PMExt_PMAfterNewSystemState(lpNewStateName,dwFlags);

  00010	462a		 mov         r2,r5
  00012	4631		 mov         r1,r6
  00014	4620		 mov         r0,r4
  00016	f000 f800	 bl          |?PMExt_PMAfterNewSystemState@PMExtension@@QAAXPBGK@Z|

; 155  :             pCurExt = pCurExt->GetNextPmExt();

  0001a	68e4		 ldr         r4,[r4,#0xC]
  0001c		 |$LN10@PMExt_PMAf|

; 153  :         while (pCurExt) {

  0001c	2c00		 cmp         r4,#0
  0001e	d1f7		 bne         |$LL2@PMExt_PMAf|
  00020		 |$M15|

; 156  :         }
; 157  :     }

  00020	e8bd 8878	 pop         {r3-r6,r11,pc}
  00024		 |$M13|

			 ENDP  ; |?PMExt_PMAfterNewSystemState@PMExtensionMgr@@QAAXPBGK@Z|, PMExtensionMgr::PMExt_PMAfterNewSystemState

	EXPORT	|?PMExt_PMBeforeNewDeviceState@PMExtensionMgr@@QAAXPBGW4_CEDEVICE_POWER_STATE@@1@Z| ; PMExtensionMgr::PMExt_PMBeforeNewDeviceState

  00000			 AREA	 |.pdata|, PDATA
|$pdata1$?PMExt_PMBeforeNewDeviceState@PMExtensionMgr@@QAAXPBGW4_CEDEVICE_POWER_STATE@@1@Z| DCD imagerel |$LN14@PMExt_PMBe|
	DCD	0x336051
; Function compile flags: /Ogsp
; File c:\wince800\platform\rrm_ppc_windows\src\drivers\pm\mdd\pmexthdl.hpp

  00000			 AREA	 |.text|, CODE, THUMB

  00000		 |?PMExt_PMBeforeNewDeviceState@PMExtensionMgr@@QAAXPBGW4_CEDEVICE_POWER_STATE@@1@Z| PROC ; PMExtensionMgr::PMExt_PMBeforeNewDeviceState

; 159  :     VOID     PMExt_PMBeforeNewDeviceState(LPCTSTR pszName, CEDEVICE_POWER_STATE curDx, CEDEVICE_POWER_STATE reqDx){

  00000		 |$LN14@PMExt_PMBe|
  00000	e92d 48f0	 push        {r4-r7,r11,lr}
  00004	f20d 0b10	 addw        r11,sp,#0x10
  00008		 |$M12|

; 160  :         PMExtension * pCurExt = m_PMExtensionList ;

  00008	6804		 ldr         r4,[r0]
  0000a	461d		 mov         r5,r3
  0000c	4616		 mov         r6,r2
  0000e	460f		 mov         r7,r1
  00010	e006		 b           |$LN10@PMExt_PMBe|
  00012		 |$LL2@PMExt_PMBe|

; 162  :             pCurExt->PMExt_PMBeforeNewDeviceState(pszName, curDx, reqDx);

  00012	462b		 mov         r3,r5
  00014	4632		 mov         r2,r6
  00016	4639		 mov         r1,r7
  00018	4620		 mov         r0,r4
  0001a	f000 f800	 bl          |?PMExt_PMBeforeNewDeviceState@PMExtension@@QAAXPBGW4_CEDEVICE_POWER_STATE@@1@Z|

; 163  :             pCurExt = pCurExt->GetNextPmExt();

  0001e	68e4		 ldr         r4,[r4,#0xC]
  00020		 |$LN10@PMExt_PMBe|

; 161  :         while (pCurExt) {

  00020	2c00		 cmp         r4,#0
  00022	d1f6		 bne         |$LL2@PMExt_PMBe|
  00024		 |$M15|

; 164  :         }
; 165  :     }

  00024	e8bd 88f0	 pop         {r4-r7,r11,pc}
  00028		 |$M13|

			 ENDP  ; |?PMExt_PMBeforeNewDeviceState@PMExtensionMgr@@QAAXPBGW4_CEDEVICE_POWER_STATE@@1@Z|, PMExtensionMgr::PMExt_PMBeforeNewDeviceState

	EXPORT	|?PMExt_PMAfterNewDeviceState@PMExtensionMgr@@QAAXPBGW4_CEDEVICE_POWER_STATE@@1@Z| ; PMExtensionMgr::PMExt_PMAfterNewDeviceState

  00000			 AREA	 |.pdata|, PDATA
|$pdata1$?PMExt_PMAfterNewDeviceState@PMExtensionMgr@@QAAXPBGW4_CEDEVICE_POWER_STATE@@1@Z| DCD imagerel |$LN14@PMExt_PMAf|
	DCD	0x336051
; Function compile flags: /Ogsp
; File c:\wince800\platform\rrm_ppc_windows\src\drivers\pm\mdd\pmexthdl.hpp

  00000			 AREA	 |.text|, CODE, THUMB

  00000		 |?PMExt_PMAfterNewDeviceState@PMExtensionMgr@@QAAXPBGW4_CEDEVICE_POWER_STATE@@1@Z| PROC ; PMExtensionMgr::PMExt_PMAfterNewDeviceState

; 167  :     VOID     PMExt_PMAfterNewDeviceState(LPCTSTR pszName, CEDEVICE_POWER_STATE curDx, CEDEVICE_POWER_STATE reqDx) {

  00000		 |$LN14@PMExt_PMAf|
  00000	e92d 48f0	 push        {r4-r7,r11,lr}
  00004	f20d 0b10	 addw        r11,sp,#0x10
  00008		 |$M12|

; 168  :         PMExtension * pCurExt = m_PMExtensionList ;

  00008	6804		 ldr         r4,[r0]
  0000a	461d		 mov         r5,r3
  0000c	4616		 mov         r6,r2
  0000e	460f		 mov         r7,r1
  00010	e006		 b           |$LN10@PMExt_PMAf|
  00012		 |$LL2@PMExt_PMAf|

; 170  :             pCurExt->PMExt_PMAfterNewDeviceState(pszName, curDx, reqDx);

  00012	462b		 mov         r3,r5
  00014	4632		 mov         r2,r6
  00016	4639		 mov         r1,r7
  00018	4620		 mov         r0,r4
  0001a	f000 f800	 bl          |?PMExt_PMAfterNewDeviceState@PMExtension@@QAAXPBGW4_CEDEVICE_POWER_STATE@@1@Z|

; 171  :             pCurExt = pCurExt->GetNextPmExt();

  0001e	68e4		 ldr         r4,[r4,#0xC]
  00020		 |$LN10@PMExt_PMAf|

; 169  :         while (pCurExt) {

  00020	2c00		 cmp         r4,#0
  00022	d1f6		 bne         |$LL2@PMExt_PMAf|
  00024		 |$M15|

; 172  :         }
; 173  :     }

  00024	e8bd 88f0	 pop         {r4-r7,r11,pc}
  00028		 |$M13|

			 ENDP  ; |?PMExt_PMAfterNewDeviceState@PMExtensionMgr@@QAAXPBGW4_CEDEVICE_POWER_STATE@@1@Z|, PMExtensionMgr::PMExt_PMAfterNewDeviceState

	EXPORT	|?PMExt_GetNotificationHandle@@YAHAAKQAPAX@Z| ; PMExt_GetNotificationHandle

  00018			 AREA	 |.pdata|, PDATA
|$pdata1$?PMExt_GetNotificationHandle@@YAHAAKQAPAX@Z| DCD imagerel |$LN8@PMExt_GetN|
	DCD	0xfd306041
; Function compile flags: /Ogsp
; File c:\wince800\platform\rrm_ppc_windows\src\drivers\pm\mdd\pmexthdl.cpp

  0012c			 AREA	 |.text|, CODE, THUMB

  0012c		 |?PMExt_GetNotificationHandle@@YAHAAKQAPAX@Z| PROC ; PMExt_GetNotificationHandle

; 178  : {

  0012c		 |$LN8@PMExt_GetN|
  0012c	e92d 4818	 push        {r3,r4,r11,lr}
  00130	f20d 0b08	 addw        r11,sp,#8
  00134		 |$M6|

; 179  :     if (g_pPMExtMgr)

  00134	4b05		 ldr         r3,|$LN11@PMExt_GetN| ; =|?g_pPMExtMgr@@3PAVPMExtensionMgr@@A|
  00136	4604		 mov         r4,r0
  00138	6818		 ldr         r0,[r3]
  0013a	b120		 cbz         r0,|$LN2@PMExt_GetN|

; 180  :         return g_pPMExtMgr->PMExt_GetNotificationHandle(dwNumEvent, PmEventArray);

  0013c	460a		 mov         r2,r1
  0013e	4621		 mov         r1,r4
  00140	f000 f800	 bl          |?PMExt_GetNotificationHandle@PMExtensionMgr@@QAAHAAKQAPAX@Z|
  00144	e000		 b           |$LN1@PMExt_GetN|
  00146		 |$LN2@PMExt_GetN|

; 181  :     else
; 182  :         return FALSE;

  00146	2000		 movs        r0,#0
  00148		 |$LN1@PMExt_GetN|
  00148		 |$M9|

; 183  : }

  00148	e8bd 8818	 pop         {r3,r4,r11,pc}
  0014c		 |$LN10@PMExt_GetN|
  0014c		 |$LN11@PMExt_GetN|
  0014c	0000 0000	 DCD         |?g_pPMExtMgr@@3PAVPMExtensionMgr@@A|
  00150		 |$M7|

			 ENDP  ; |?PMExt_GetNotificationHandle@@YAHAAKQAPAX@Z|, PMExt_GetNotificationHandle

	EXPORT	|??1PMExtension@@QAA@XZ|		; PMExtension::~PMExtension
	IMPORT	|FreeLibrary|

  00020			 AREA	 |.pdata|, PDATA
|$pdata1$??1PMExtension@@QAA@XZ| DCD imagerel |$LN15@PMExtensio|
	DCD	0xfd306075
; Function compile flags: /Ogsp
; File c:\wince800\platform\rrm_ppc_windows\src\drivers\pm\mdd\pmexthdl.cpp
; File c:\wince800\public\common\oak\inc\cregedit.h
; File c:\wince800\platform\rrm_ppc_windows\src\drivers\pm\mdd\pmexthdl.cpp

  00150			 AREA	 |.text|, CODE, THUMB

  00150		 |??1PMExtension@@QAA@XZ| PROC		; PMExtension::~PMExtension

; 72   : {

  00150		 |$LN15@PMExtensio|
  00150	e92d 4818	 push        {r3,r4,r11,lr}
  00154	f20d 0b08	 addw        r11,sp,#8
  00158		 |$M13|
  00158	4604		 mov         r4,r0

; 73   :     if (m_dwContext) {

  0015a	68a3		 ldr         r3,[r4,#8]
  0015c	b10b		 cbz         r3,|$LN2@PMExtensio|

; 74   :         PMExt_DeInit();

  0015e	f000 f800	 bl          |?PMExt_DeInit@PMExtension@@QAAXXZ|
  00162		 |$LN2@PMExtensio|

; 75   :     }
; 76   :     if (m_hLib) {

  00162	6860		 ldr         r0,[r4,#4]
  00164	b148		 cbz         r0,|$LN6@PMExtensio|

; 77   :         VERIFY(FreeLibrary( m_hLib ));

  00166	f000 f800	 bl          FreeLibrary
  0016a	b930		 cbnz        r0,|$LN6@PMExtensio|
  0016c	4a09		 ldr         r2,|$LN20@PMExtensio| ; =|??_C@_1IK@GNICOBEB@?$AAc?$AA?3?$AA?2?$AAw?$AAi?$AAn?$AAc?$AAe?$AA8?$AA0?$AA0?$AA?2?$AAp?$AAl?$AAa?$AAt?$AAf?$AAo?$AAr?$AAm?$AA?2?$AAr?$AAr?$AAm?$AA_?$AAp?$AAp?$AAc?$AA_?$AAw?$AAi?$AAn@|
  0016e	4908		 ldr         r1,|$LN19@PMExtensio| ; =|??_C@_1BA@LEPJIIOK@?$AAU?$AAn?$AAk?$AAn?$AAo?$AAw?$AAn?$AA?$AA@|
  00170	4806		 ldr         r0,|$LN18@PMExtensio| ; =|??_C@_1FK@FNONLNGN@?$AA?$CF?$AAs?$AA?3?$AA?5?$AAD?$AAE?$AAB?$AAU?$AAG?$AAC?$AAH?$AAK?$AA?5?$AAf?$AAa?$AAi?$AAl?$AAe?$AAd?$AA?5?$AAi?$AAn?$AA?5?$AAf?$AAi?$AAl?$AAe?$AA?5?$AA?$CF?$AAs?$AA?5?$AAa@|
  00172	234d		 movs        r3,#0x4D
  00174	f000 f800	 bl          NKDbgPrintfW
  00178	defe		 __debugbreak
  0017a		 |$LN6@PMExtensio|
; File c:\wince800\public\common\oak\inc\cregedit.h

; 93   :         if( m_hDevKey )

  0017a	6820		 ldr         r0,[r4]
  0017c	b118		 cbz         r0,|$LN9@PMExtensio|

; 94   :         {
; 95   :             RegCloseKey( m_hDevKey );

  0017e	f000 f800	 bl          RegCloseKey

; 96   :             m_hDevKey = NULL;

  00182	2300		 movs        r3,#0
  00184	6023		 str         r3,[r4]
  00186		 |$LN9@PMExtensio|
  00186		 |$M16|
; File c:\wince800\platform\rrm_ppc_windows\src\drivers\pm\mdd\pmexthdl.cpp

; 79   : }

  00186	e8bd 8818	 pop         {r3,r4,r11,pc}
  0018a		 |$LN21@PMExtensio|
  0018a		 |$M22|
  0018a	defe		 __debugbreak
  0018c		 |$LN17@PMExtensio|
  0018c		 |$LN18@PMExtensio|
  0018c	0000 0000	 DCD         |??_C@_1FK@FNONLNGN@?$AA?$CF?$AAs?$AA?3?$AA?5?$AAD?$AAE?$AAB?$AAU?$AAG?$AAC?$AAH?$AAK?$AA?5?$AAf?$AAa?$AAi?$AAl?$AAe?$AAd?$AA?5?$AAi?$AAn?$AA?5?$AAf?$AAi?$AAl?$AAe?$AA?5?$AA?$CF?$AAs?$AA?5?$AAa@|
  00190		 |$LN19@PMExtensio|
  00190	0000 0000	 DCD         |??_C@_1BA@LEPJIIOK@?$AAU?$AAn?$AAk?$AAn?$AAo?$AAw?$AAn?$AA?$AA@|
  00194		 |$LN20@PMExtensio|
  00194	0000 0000	 DCD         |??_C@_1IK@GNICOBEB@?$AAc?$AA?3?$AA?2?$AAw?$AAi?$AAn?$AAc?$AAe?$AA8?$AA0?$AA0?$AA?2?$AAp?$AAl?$AAa?$AAt?$AAf?$AAo?$AAr?$AAm?$AA?2?$AAr?$AAr?$AAm?$AA_?$AAp?$AAp?$AAc?$AA_?$AAw?$AAi?$AAn@|
  00198		 |$M14|

			 ENDP  ; |??1PMExtension@@QAA@XZ|, PMExtension::~PMExtension

	EXPORT	|??_C@_17DJMMGLBL@?$AAD?$AAl?$AAl?$AA?$AA@| [ DATA ] ; `string'
	EXPORT	|??_C@_1M@OAJFFPML@?$AAF?$AAl?$AAa?$AAg?$AAs?$AA?$AA@| [ DATA ] ; `string'
	EXPORT	|??_C@_1HG@CLKAFEHO@?$AAP?$AAM?$AAE?$AAx?$AAt?$AAe?$AAn?$AAs?$AAi?$AAo?$AAn?$AA?3?$AA?3?$AAP?$AAM?$AAE?$AAx?$AAt?$AAe?$AAn?$AAs?$AAi?$AAo?$AAn?$AA?3?$AA?5?$AAc?$AAo?$AAu?$AAl?$AAd?$AAn@| [ DATA ] ; `string'
	EXPORT	|??_C@_1DI@KCAFPOHP@?$AAP?$AAM?$AAE?$AAx?$AAt?$AA_?$AAP?$AAM?$AAA?$AAf?$AAt?$AAe?$AAr?$AAN?$AAe?$AAw?$AAD?$AAe?$AAv?$AAi?$AAc?$AAe?$AAS?$AAt?$AAa?$AAt?$AAe?$AA?$AA@| [ DATA ] ; `string'
	EXPORT	|??_C@_1DK@GKLHCJCE@?$AAP?$AAM?$AAE?$AAx?$AAt?$AA_?$AAP?$AAM?$AAB?$AAe?$AAf?$AAo?$AAr?$AAe?$AAN?$AAe?$AAw?$AAD?$AAe?$AAv?$AAi?$AAc?$AAe?$AAS?$AAt?$AAa?$AAt?$AAe?$AA?$AA@| [ DATA ] ; `string'
	EXPORT	|??_C@_1DI@DGCJHNEK@?$AAP?$AAM?$AAE?$AAx?$AAt?$AA_?$AAP?$AAM?$AAA?$AAf?$AAt?$AAe?$AAr?$AAN?$AAe?$AAw?$AAS?$AAy?$AAs?$AAt?$AAe?$AAm?$AAS?$AAt?$AAa?$AAt?$AAe?$AA?$AA@| [ DATA ] ; `string'
	EXPORT	|??_C@_1DK@POJLKKBB@?$AAP?$AAM?$AAE?$AAx?$AAt?$AA_?$AAP?$AAM?$AAB?$AAe?$AAf?$AAo?$AAr?$AAe?$AAN?$AAe?$AAw?$AAS?$AAy?$AAs?$AAt?$AAe?$AAm?$AAS?$AAt?$AAa?$AAt?$AAe?$AA?$AA@| [ DATA ] ; `string'
	EXPORT	|??_C@_1DA@EGCEGIFK@?$AAP?$AAM?$AAE?$AAx?$AAt?$AA_?$AAE?$AAv?$AAe?$AAn?$AAt?$AAN?$AAo?$AAt?$AAi?$AAf?$AAi?$AAc?$AAa?$AAt?$AAi?$AAo?$AAn?$AA?$AA@| [ DATA ] ; `string'
	EXPORT	|??_C@_1DI@JNIFMANL@?$AAP?$AAM?$AAE?$AAx?$AAt?$AA_?$AAG?$AAe?$AAt?$AAN?$AAo?$AAt?$AAi?$AAf?$AAi?$AAc?$AAa?$AAt?$AAi?$AAo?$AAn?$AAH?$AAa?$AAn?$AAd?$AAl?$AAe?$AA?$AA@| [ DATA ] ; `string'
	EXPORT	|??_C@_1BK@PBEIGBDA@?$AAP?$AAM?$AAE?$AAx?$AAt?$AA_?$AAD?$AAe?$AAI?$AAn?$AAi?$AAt?$AA?$AA@| [ DATA ] ; `string'
	EXPORT	|??_C@_1BG@JEIALCGK@?$AAP?$AAM?$AAE?$AAx?$AAt?$AA_?$AAI?$AAn?$AAi?$AAt?$AA?$AA@| [ DATA ] ; `string'
	EXPORT	|??0PMExtension@@QAA@PAUHKEY__@@PBGPAV0@@Z| ; PMExtension::PMExtension
	IMPORT	|LoadLibraryW|
	IMPORT	|LoadDriver|
	IMPORT	|GetLastError|
	IMPORT	|GetProcAddressW|

  00028			 AREA	 |.pdata|, PDATA
|$pdata1$??0PMExtension@@QAA@PAUHKEY__@@PBGPAV0@@Z| DCD imagerel |$LN34@PMExtensio|
	DCD	imagerel |$unwind2$??0PMExtension@@QAA@PAUHKEY__@@PBGPAV0@@Z|

  0001c			 AREA	 |.xdata|, DATA
	%	4
|$unwind2$??0PMExtension@@QAA@PAUHKEY__@@PBGPAV0@@Z| DCD 0x33b000a5
	DCD	0xfc01e826
	DCD	0xe8fff0a9
	DCD	0xfff0a901
	DCD	imagerel |__GSHandlerCheck|
	DCD	0xffffffe1

  00000			 AREA	 |.rdata|, DATA, READONLY
|??_C@_1BG@JEIALCGK@?$AAP?$AAM?$AAE?$AAx?$AAt?$AA_?$AAI?$AAn?$AAi?$AAt?$AA?$AA@| DCB "P"
	DCB	0x0, "M", 0x0, "E", 0x0, "x", 0x0, "t", 0x0, "_", 0x0, "I"
	DCB	0x0, "n", 0x0, "i", 0x0, "t", 0x0, 0x0, 0x0 ; `string'

  00000			 AREA	 |.rdata|, DATA, READONLY
|??_C@_1BK@PBEIGBDA@?$AAP?$AAM?$AAE?$AAx?$AAt?$AA_?$AAD?$AAe?$AAI?$AAn?$AAi?$AAt?$AA?$AA@| DCB "P"
	DCB	0x0, "M", 0x0, "E", 0x0, "x", 0x0, "t", 0x0, "_", 0x0, "D"
	DCB	0x0, "e", 0x0, "I", 0x0, "n", 0x0, "i", 0x0, "t", 0x0, 0x0
	DCB	0x0					; `string'

  00000			 AREA	 |.rdata|, DATA, READONLY
|??_C@_1DI@JNIFMANL@?$AAP?$AAM?$AAE?$AAx?$AAt?$AA_?$AAG?$AAe?$AAt?$AAN?$AAo?$AAt?$AAi?$AAf?$AAi?$AAc?$AAa?$AAt?$AAi?$AAo?$AAn?$AAH?$AAa?$AAn?$AAd?$AAl?$AAe?$AA?$AA@| DCB "P"
	DCB	0x0, "M", 0x0, "E", 0x0, "x", 0x0, "t", 0x0, "_", 0x0, "G"
	DCB	0x0, "e", 0x0, "t", 0x0, "N", 0x0, "o", 0x0, "t", 0x0, "i"
	DCB	0x0, "f", 0x0, "i", 0x0, "c", 0x0, "a", 0x0, "t", 0x0, "i"
	DCB	0x0, "o", 0x0, "n", 0x0, "H", 0x0, "a", 0x0, "n", 0x0, "d"
	DCB	0x0, "l", 0x0, "e", 0x0, 0x0, 0x0	; `string'

  00000			 AREA	 |.rdata|, DATA, READONLY
|??_C@_1DA@EGCEGIFK@?$AAP?$AAM?$AAE?$AAx?$AAt?$AA_?$AAE?$AAv?$AAe?$AAn?$AAt?$AAN?$AAo?$AAt?$AAi?$AAf?$AAi?$AAc?$AAa?$AAt?$AAi?$AAo?$AAn?$AA?$AA@| DCB "P"
	DCB	0x0, "M", 0x0, "E", 0x0, "x", 0x0, "t", 0x0, "_", 0x0, "E"
	DCB	0x0, "v", 0x0, "e", 0x0, "n", 0x0, "t", 0x0, "N", 0x0, "o"
	DCB	0x0, "t", 0x0, "i", 0x0, "f", 0x0, "i", 0x0, "c", 0x0, "a"
	DCB	0x0, "t", 0x0, "i", 0x0, "o", 0x0, "n", 0x0, 0x0, 0x0 ; `string'

  00000			 AREA	 |.rdata|, DATA, READONLY
|??_C@_1DK@POJLKKBB@?$AAP?$AAM?$AAE?$AAx?$AAt?$AA_?$AAP?$AAM?$AAB?$AAe?$AAf?$AAo?$AAr?$AAe?$AAN?$AAe?$AAw?$AAS?$AAy?$AAs?$AAt?$AAe?$AAm?$AAS?$AAt?$AAa?$AAt?$AAe?$AA?$AA@| DCB "P"
	DCB	0x0, "M", 0x0, "E", 0x0, "x", 0x0, "t", 0x0, "_", 0x0, "P"
	DCB	0x0, "M", 0x0, "B", 0x0, "e", 0x0, "f", 0x0, "o", 0x0, "r"
	DCB	0x0, "e", 0x0, "N", 0x0, "e", 0x0, "w", 0x0, "S", 0x0, "y"
	DCB	0x0, "s", 0x0, "t", 0x0, "e", 0x0, "m", 0x0, "S", 0x0, "t"
	DCB	0x0, "a", 0x0, "t", 0x0, "e", 0x0, 0x0, 0x0 ; `string'

  00000			 AREA	 |.rdata|, DATA, READONLY
|??_C@_1DI@DGCJHNEK@?$AAP?$AAM?$AAE?$AAx?$AAt?$AA_?$AAP?$AAM?$AAA?$AAf?$AAt?$AAe?$AAr?$AAN?$AAe?$AAw?$AAS?$AAy?$AAs?$AAt?$AAe?$AAm?$AAS?$AAt?$AAa?$AAt?$AAe?$AA?$AA@| DCB "P"
	DCB	0x0, "M", 0x0, "E", 0x0, "x", 0x0, "t", 0x0, "_", 0x0, "P"
	DCB	0x0, "M", 0x0, "A", 0x0, "f", 0x0, "t", 0x0, "e", 0x0, "r"
	DCB	0x0, "N", 0x0, "e", 0x0, "w", 0x0, "S", 0x0, "y", 0x0, "s"
	DCB	0x0, "t", 0x0, "e", 0x0, "m", 0x0, "S", 0x0, "t", 0x0, "a"
	DCB	0x0, "t", 0x0, "e", 0x0, 0x0, 0x0	; `string'

  00000			 AREA	 |.rdata|, DATA, READONLY
|??_C@_1DK@GKLHCJCE@?$AAP?$AAM?$AAE?$AAx?$AAt?$AA_?$AAP?$AAM?$AAB?$AAe?$AAf?$AAo?$AAr?$AAe?$AAN?$AAe?$AAw?$AAD?$AAe?$AAv?$AAi?$AAc?$AAe?$AAS?$AAt?$AAa?$AAt?$AAe?$AA?$AA@| DCB "P"
	DCB	0x0, "M", 0x0, "E", 0x0, "x", 0x0, "t", 0x0, "_", 0x0, "P"
	DCB	0x0, "M", 0x0, "B", 0x0, "e", 0x0, "f", 0x0, "o", 0x0, "r"
	DCB	0x0, "e", 0x0, "N", 0x0, "e", 0x0, "w", 0x0, "D", 0x0, "e"
	DCB	0x0, "v", 0x0, "i", 0x0, "c", 0x0, "e", 0x0, "S", 0x0, "t"
	DCB	0x0, "a", 0x0, "t", 0x0, "e", 0x0, 0x0, 0x0 ; `string'

  00000			 AREA	 |.rdata|, DATA, READONLY
|??_C@_1DI@KCAFPOHP@?$AAP?$AAM?$AAE?$AAx?$AAt?$AA_?$AAP?$AAM?$AAA?$AAf?$AAt?$AAe?$AAr?$AAN?$AAe?$AAw?$AAD?$AAe?$AAv?$AAi?$AAc?$AAe?$AAS?$AAt?$AAa?$AAt?$AAe?$AA?$AA@| DCB "P"
	DCB	0x0, "M", 0x0, "E", 0x0, "x", 0x0, "t", 0x0, "_", 0x0, "P"
	DCB	0x0, "M", 0x0, "A", 0x0, "f", 0x0, "t", 0x0, "e", 0x0, "r"
	DCB	0x0, "N", 0x0, "e", 0x0, "w", 0x0, "D", 0x0, "e", 0x0, "v"
	DCB	0x0, "i", 0x0, "c", 0x0, "e", 0x0, "S", 0x0, "t", 0x0, "a"
	DCB	0x0, "t", 0x0, "e", 0x0, 0x0, 0x0	; `string'

  00000			 AREA	 |.rdata|, DATA, READONLY
|??_C@_1HG@CLKAFEHO@?$AAP?$AAM?$AAE?$AAx?$AAt?$AAe?$AAn?$AAs?$AAi?$AAo?$AAn?$AA?3?$AA?3?$AAP?$AAM?$AAE?$AAx?$AAt?$AAe?$AAn?$AAs?$AAi?$AAo?$AAn?$AA?3?$AA?5?$AAc?$AAo?$AAu?$AAl?$AAd?$AAn@| DCB "P"
	DCB	0x0, "M", 0x0, "E", 0x0, "x", 0x0, "t", 0x0, "e", 0x0, "n"
	DCB	0x0, "s", 0x0, "i", 0x0, "o", 0x0, "n", 0x0, ":", 0x0, ":"
	DCB	0x0, "P", 0x0, "M", 0x0, "E", 0x0, "x", 0x0, "t", 0x0, "e"
	DCB	0x0, "n", 0x0, "s", 0x0, "i", 0x0, "o", 0x0, "n", 0x0, ":"
	DCB	0x0, " ", 0x0, "c", 0x0, "o", 0x0, "u", 0x0, "l", 0x0, "d"
	DCB	0x0, "n", 0x0, "'", 0x0, "t", 0x0, " ", 0x0, "l", 0x0, "o"
	DCB	0x0, "a", 0x0, "d", 0x0, " ", 0x0, "'", 0x0, "%", 0x0, "s"
	DCB	0x0, "'", 0x0, " ", 0x0, "-", 0x0, "-", 0x0, " ", 0x0, "e"
	DCB	0x0, "r", 0x0, "r", 0x0, "o", 0x0, "r", 0x0, " ", 0x0, "%"
	DCB	0x0, "d", 0x0, 0xd, 0x0, 0xa, 0x0, 0x0, 0x0 ; `string'

  00000			 AREA	 |.rdata|, DATA, READONLY
|??_C@_1M@OAJFFPML@?$AAF?$AAl?$AAa?$AAg?$AAs?$AA?$AA@| DCB "F", 0x0, "l", 0x0
	DCB	"a", 0x0, "g", 0x0, "s", 0x0, 0x0, 0x0	; `string'

  00000			 AREA	 |.rdata|, DATA, READONLY
|??_C@_17DJMMGLBL@?$AAD?$AAl?$AAl?$AA?$AA@| DCB "D", 0x0, "l", 0x0, "l", 0x0
	DCB	0x0, 0x0				; `string'
; Function compile flags: /Ogsp
; File c:\wince800\platform\rrm_ppc_windows\src\drivers\pm\mdd\pmexthdl.cpp
; File c:\wince800\public\common\oak\inc\cregedit.h
; File c:\wince800\platform\rrm_ppc_windows\src\drivers\pm\mdd\pmexthdl.cpp
; File c:\wince800\public\common\oak\inc\cregedit.h
; File c:\wince800\platform\rrm_ppc_windows\src\drivers\pm\mdd\pmexthdl.cpp
; File c:\wince800\public\common\oak\inc\cregedit.h
; File c:\wince800\platform\rrm_ppc_windows\src\drivers\pm\mdd\pmexthdl.cpp
; File c:\wince800\public\common\oak\inc\cregedit.h
; File c:\wince800\platform\rrm_ppc_windows\src\drivers\pm\mdd\pmexthdl.cpp
; File c:\wince800\public\common\oak\inc\cregedit.h
; File c:\wince800\platform\rrm_ppc_windows\src\drivers\pm\mdd\pmexthdl.cpp
; File c:\wince800\public\common\oak\inc\cregedit.h
; File c:\wince800\platform\rrm_ppc_windows\src\drivers\pm\mdd\pmexthdl.cpp

  00198			 AREA	 |.text|, CODE, THUMB

  00198		 |??0PMExtension@@QAA@PAUHKEY__@@PBGPAV0@@Z| PROC ; PMExtension::PMExtension

; 24   : {

  00198		 |$LN34@PMExtensio|
  00198	e92d 49f0	 push        {r4-r8,r11,lr}
  0019c	f20d 0b14	 addw        r11,sp,#0x14
  001a0	f000 f800	 bl          __security_push_cookie
  001a4	b0a6		 sub         sp,sp,#0x98
  001a6		 |$M32|
  001a6	4615		 mov         r5,r2
; File c:\wince800\public\common\oak\inc\cregedit.h

; 44   :         m_hDevKey = NULL;

  001a8	f04f 0800	 mov         r8,#0
  001ac	f8c0 8000	 str         r8,[r0]
; File c:\wince800\platform\rrm_ppc_windows\src\drivers\pm\mdd\pmexthdl.cpp

; 24   : {

  001b0	461f		 mov         r7,r3
  001b2	460e		 mov         r6,r1
  001b4	4604		 mov         r4,r0
; File c:\wince800\public\common\oak\inc\cregedit.h

; 45   :         if( pszRegPath )

  001b6	b14d		 cbz         r5,|$LN12@PMExtensio|

; 46   :         {
; 47   :             if( RegOpenKeyEx( hKey, pszRegPath, 0, 0, &m_hDevKey ) != ERROR_SUCCESS )

  001b8	2300		 movs        r3,#0
  001ba	2200		 movs        r2,#0
  001bc	4629		 mov         r1,r5
  001be	4630		 mov         r0,r6
  001c0	9400		 str         r4,[sp]
  001c2	f000 f800	 bl          RegOpenKeyExW
  001c6	b108		 cbz         r0,|$LN12@PMExtensio|

; 48   :             {
; 49   :                 m_hDevKey = NULL;

  001c8	f8c4 8000	 str         r8,[r4]
  001cc		 |$LN12@PMExtensio|

; 198  :         return ( m_hDevKey != NULL );

  001cc	6820		 ldr         r0,[r4]
; File c:\wince800\platform\rrm_ppc_windows\src\drivers\pm\mdd\pmexthdl.cpp

; 24   : {

  001ce	60e7		 str         r7,[r4,#0xC]

; 25   :     m_dwContext = 0 ;

  001d0	f8c4 8008	 str         r8,[r4,#8]
; File c:\wince800\public\common\oak\inc\cregedit.h

; 198  :         return ( m_hDevKey != NULL );

  001d4	2800		 cmp         r0,#0
; File c:\wince800\platform\rrm_ppc_windows\src\drivers\pm\mdd\pmexthdl.cpp

; 28   :     m_pInit =NULL;

  001d6	f8c4 8010	 str         r8,[r4,#0x10]

; 29   :     m_pDeinit = NULL;;

  001da	f8c4 8014	 str         r8,[r4,#0x14]

; 30   :     
; 31   :     m_pGetNotificationHandle =NULL;

  001de	f8c4 8018	 str         r8,[r4,#0x18]

; 32   :     m_pEventNotification=NULL;

  001e2	f8c4 801c	 str         r8,[r4,#0x1C]

; 33   : 
; 34   :     m_pPMExt_PMBeforeNewSystemState = NULL;

  001e6	f8c4 8020	 str         r8,[r4,#0x20]

; 35   :     m_pPMExt_PMAfterNewSystemState = NULL;

  001ea	f8c4 8024	 str         r8,[r4,#0x24]

; 36   : 
; 37   :     m_pPMExt_PMBeforeNewDeviceState = NULL;

  001ee	f8c4 8028	 str         r8,[r4,#0x28]

; 38   :     m_pPMExt_PMAfterNewDeviceState = NULL;

  001f2	f8c4 802c	 str         r8,[r4,#0x2C]

; 39   : 
; 40   :     m_hLib = NULL;

  001f6	f8c4 8004	 str         r8,[r4,#4]
; File c:\wince800\public\common\oak\inc\cregedit.h

; 198  :         return ( m_hDevKey != NULL );

  001fa	d06c		 beq         |$LN1@PMExtensio|
; File c:\wince800\platform\rrm_ppc_windows\src\drivers\pm\mdd\pmexthdl.cpp

; 44   :     if (IsKeyOpened() && GetRegValue( DEVLOAD_DLLNAME_VALNAME, (LPBYTE) DevDll, sizeof(DevDll) )) {

  001fc	2380		 movs        r3,#0x80
  001fe	9302		 str         r3,[sp,#8]
; File c:\wince800\public\common\oak\inc\cregedit.h

; 146  :         DWORD dwType = 0;

  00200	2300		 movs        r3,#0
  00202	9303		 str         r3,[sp,#0xC]

; 147  :         LONG status = ::RegQueryValueEx( m_hDevKey,
; 148  :                                            lpcName,
; 149  :                                            NULL,
; 150  :                                            &dwType,
; 151  :                                            lpData,
; 152  :                                            &dwDataLen );

  00204	ab02		 add         r3,sp,#8
  00206	9301		 str         r3,[sp,#4]
  00208	4941		 ldr         r1,|$LN48@PMExtensio| ; =|??_C@_17DJMMGLBL@?$AAD?$AAl?$AAl?$AA?$AA@|
  0020a	ab06		 add         r3,sp,#0x18
  0020c	9300		 str         r3,[sp]
  0020e	ab03		 add         r3,sp,#0xC
  00210	2200		 movs        r2,#0
  00212	f000 f800	 bl          RegQueryValueExW

; 153  :         return ( status == ERROR_SUCCESS );

  00216	2800		 cmp         r0,#0
  00218	d153		 bne         |$LN2@PMExtensio|
; File c:\wince800\platform\rrm_ppc_windows\src\drivers\pm\mdd\pmexthdl.cpp

; 45   :         if (!GetRegValue( DEVLOAD_FLAGS_VALNAME, (LPBYTE) &Flags, sizeof(Flags)))

  0021a	2304		 movs        r3,#4
  0021c	9303		 str         r3,[sp,#0xC]
; File c:\wince800\public\common\oak\inc\cregedit.h

; 146  :         DWORD dwType = 0;

  0021e	2300		 movs        r3,#0
  00220	9302		 str         r3,[sp,#8]

; 147  :         LONG status = ::RegQueryValueEx( m_hDevKey,
; 148  :                                            lpcName,
; 149  :                                            NULL,
; 150  :                                            &dwType,
; 151  :                                            lpData,
; 152  :                                            &dwDataLen );

  00222	ab03		 add         r3,sp,#0xC
  00224	9301		 str         r3,[sp,#4]
  00226	4939		 ldr         r1,|$LN47@PMExtensio| ; =|??_C@_1M@OAJFFPML@?$AAF?$AAl?$AAa?$AAg?$AAs?$AA?$AA@|
  00228	6820		 ldr         r0,[r4]
  0022a	ab04		 add         r3,sp,#0x10
  0022c	9300		 str         r3,[sp]
  0022e	ab02		 add         r3,sp,#8
  00230	2200		 movs        r2,#0
  00232	f000 f800	 bl          RegQueryValueExW

; 153  :         return ( status == ERROR_SUCCESS );

  00236	b110		 cbz         r0,|$LN30@PMExtensio|
; File c:\wince800\platform\rrm_ppc_windows\src\drivers\pm\mdd\pmexthdl.cpp

; 46   :             Flags = DEVFLAGS_NONE;

  00238	2300		 movs        r3,#0
  0023a	9304		 str         r3,[sp,#0x10]
  0023c	e000		 b           |$LN4@PMExtensio|
  0023e		 |$LN30@PMExtensio|
  0023e	9b04		 ldr         r3,[sp,#0x10]
  00240		 |$LN4@PMExtensio|

; 47   :         m_hLib = (Flags & DEVFLAGS_LOADLIBRARY) ? LoadLibrary(DevDll) : LoadDriver(DevDll);

  00240	f013 0f02	 tst         r3,#2
  00244	d003		 beq         |$LN8@PMExtensio|
  00246	a806		 add         r0,sp,#0x18
  00248	f000 f800	 bl          LoadLibraryW
  0024c	e002		 b           |$LN9@PMExtensio|
  0024e		 |$LN8@PMExtensio|
  0024e	a806		 add         r0,sp,#0x18
  00250	f000 f800	 bl          LoadDriver
  00254		 |$LN9@PMExtensio|
  00254	6060		 str         r0,[r4,#4]

; 48   :         if (!m_hLib) {

  00256	b968		 cbnz        r0,|$LN3@PMExtensio|

; 49   :             DEBUGMSG(ZONE_ERROR, (_T("PMExtension::PMExtension: couldn't load '%s' -- error %d\r\n"), 
; 50   :                 DevDll, GetLastError()));

  00258	4b2b		 ldr         r3,|$LN46@PMExtensio| ; =|dpCurSettings|
  0025a	f8d3 3440	 ldr         r3,[r3,#0x440]
  0025e	f013 0f01	 tst         r3,#1
  00262	d02e		 beq         |$LN2@PMExtensio|
  00264	f000 f800	 bl          GetLastError
  00268	4602		 mov         r2,r0
  0026a	4826		 ldr         r0,|$LN45@PMExtensio| ; =|??_C@_1HG@CLKAFEHO@?$AAP?$AAM?$AAE?$AAx?$AAt?$AAe?$AAn?$AAs?$AAi?$AAo?$AAn?$AA?3?$AA?3?$AAP?$AAM?$AAE?$AAx?$AAt?$AAe?$AAn?$AAs?$AAi?$AAo?$AAn?$AA?3?$AA?5?$AAc?$AAo?$AAu?$AAl?$AAd?$AAn@|
  0026c	a906		 add         r1,sp,#0x18
  0026e	f000 f800	 bl          NKDbgPrintfW

; 51   :         } 
; 52   :         else { // Load entry.

  00272	e026		 b           |$LN2@PMExtensio|
  00274		 |$LN3@PMExtensio|

; 53   :             m_pInit = (PFN_PMExt_Init)GetProcAddress(m_hLib, PMExt_Init_NAME);

  00274	4922		 ldr         r1,|$LN44@PMExtensio| ; =|??_C@_1BG@JEIALCGK@?$AAP?$AAM?$AAE?$AAx?$AAt?$AA_?$AAI?$AAn?$AAi?$AAt?$AA?$AA@|
  00276	f000 f800	 bl          GetProcAddressW

; 54   :             m_pDeinit = (PFN_PMExt_DeInit)GetProcAddress(m_hLib, PMExt_DeInit_NAME);

  0027a	4920		 ldr         r1,|$LN43@PMExtensio| ; =|??_C@_1BK@PBEIGBDA@?$AAP?$AAM?$AAE?$AAx?$AAt?$AA_?$AAD?$AAe?$AAI?$AAn?$AAi?$AAt?$AA?$AA@|
  0027c	6120		 str         r0,[r4,#0x10]
  0027e	6860		 ldr         r0,[r4,#4]
  00280	f000 f800	 bl          GetProcAddressW

; 55   : 
; 56   :             m_pGetNotificationHandle = (PFN_PMExt_GetNotificationHandle)GetProcAddress(m_hLib,PMExt_GetNotificationHandle_NAME);

  00284	491c		 ldr         r1,|$LN42@PMExtensio| ; =|??_C@_1DI@JNIFMANL@?$AAP?$AAM?$AAE?$AAx?$AAt?$AA_?$AAG?$AAe?$AAt?$AAN?$AAo?$AAt?$AAi?$AAf?$AAi?$AAc?$AAa?$AAt?$AAi?$AAo?$AAn?$AAH?$AAa?$AAn?$AAd?$AAl?$AAe?$AA?$AA@|
  00286	6160		 str         r0,[r4,#0x14]
  00288	6860		 ldr         r0,[r4,#4]
  0028a	f000 f800	 bl          GetProcAddressW

; 57   :             m_pEventNotification = (PFN_PMExt_EventNotification)GetProcAddress(m_hLib,PMExt_EventNotification_NAME);

  0028e	4919		 ldr         r1,|$LN41@PMExtensio| ; =|??_C@_1DA@EGCEGIFK@?$AAP?$AAM?$AAE?$AAx?$AAt?$AA_?$AAE?$AAv?$AAe?$AAn?$AAt?$AAN?$AAo?$AAt?$AAi?$AAf?$AAi?$AAc?$AAa?$AAt?$AAi?$AAo?$AAn?$AA?$AA@|
  00290	61a0		 str         r0,[r4,#0x18]
  00292	6860		 ldr         r0,[r4,#4]
  00294	f000 f800	 bl          GetProcAddressW

; 58   : 
; 59   :             m_pPMExt_PMBeforeNewSystemState = (PFN_PMExt_PMBeforeNewSystemState)GetProcAddress(m_hLib,PMExt_PMBeforeNewSystemState_NAME);

  00298	4915		 ldr         r1,|$LN40@PMExtensio| ; =|??_C@_1DK@POJLKKBB@?$AAP?$AAM?$AAE?$AAx?$AAt?$AA_?$AAP?$AAM?$AAB?$AAe?$AAf?$AAo?$AAr?$AAe?$AAN?$AAe?$AAw?$AAS?$AAy?$AAs?$AAt?$AAe?$AAm?$AAS?$AAt?$AAa?$AAt?$AAe?$AA?$AA@|
  0029a	61e0		 str         r0,[r4,#0x1C]
  0029c	6860		 ldr         r0,[r4,#4]
  0029e	f000 f800	 bl          GetProcAddressW

; 60   :             m_pPMExt_PMAfterNewSystemState = (PFN_PMExt_PMAfterNewSystemState)GetProcAddress(m_hLib,PMExt_PMAfterNewSystemState_NAME);

  002a2	4912		 ldr         r1,|$LN39@PMExtensio| ; =|??_C@_1DI@DGCJHNEK@?$AAP?$AAM?$AAE?$AAx?$AAt?$AA_?$AAP?$AAM?$AAA?$AAf?$AAt?$AAe?$AAr?$AAN?$AAe?$AAw?$AAS?$AAy?$AAs?$AAt?$AAe?$AAm?$AAS?$AAt?$AAa?$AAt?$AAe?$AA?$AA@|
  002a4	6220		 str         r0,[r4,#0x20]
  002a6	6860		 ldr         r0,[r4,#4]
  002a8	f000 f800	 bl          GetProcAddressW

; 61   : 
; 62   :             m_pPMExt_PMBeforeNewDeviceState = (PFN_PMExt_PMBeforeNewDeviceState)GetProcAddress(m_hLib,PMExt_PMBeforeNewDeviceState_NAME);

  002ac	490e		 ldr         r1,|$LN38@PMExtensio| ; =|??_C@_1DK@GKLHCJCE@?$AAP?$AAM?$AAE?$AAx?$AAt?$AA_?$AAP?$AAM?$AAB?$AAe?$AAf?$AAo?$AAr?$AAe?$AAN?$AAe?$AAw?$AAD?$AAe?$AAv?$AAi?$AAc?$AAe?$AAS?$AAt?$AAa?$AAt?$AAe?$AA?$AA@|
  002ae	6260		 str         r0,[r4,#0x24]
  002b0	6860		 ldr         r0,[r4,#4]
  002b2	f000 f800	 bl          GetProcAddressW

; 63   :             m_pPMExt_PMAfterNewDeviceState = (PFN_PMExt_PMAfterNewDeviceState)GetProcAddress(m_hLib,PMExt_PMAfterNewDeviceState_NAME);

  002b6	490b		 ldr         r1,|$LN37@PMExtensio| ; =|??_C@_1DI@KCAFPOHP@?$AAP?$AAM?$AAE?$AAx?$AAt?$AA_?$AAP?$AAM?$AAA?$AAf?$AAt?$AAe?$AAr?$AAN?$AAe?$AAw?$AAD?$AAe?$AAv?$AAi?$AAc?$AAe?$AAS?$AAt?$AAa?$AAt?$AAe?$AA?$AA@|
  002b8	62a0		 str         r0,[r4,#0x28]
  002ba	6860		 ldr         r0,[r4,#4]
  002bc	f000 f800	 bl          GetProcAddressW
  002c0	62e0		 str         r0,[r4,#0x2C]
  002c2		 |$LN2@PMExtensio|

; 64   :         }
; 65   :         
; 66   :     }
; 67   :     if (m_pInit && m_pDeinit) {

  002c2	6923		 ldr         r3,[r4,#0x10]
  002c4	b13b		 cbz         r3,|$LN1@PMExtensio|
  002c6	6963		 ldr         r3,[r4,#0x14]
  002c8	b12b		 cbz         r3,|$LN1@PMExtensio|

; 68   :         m_dwContext = PMExt_Init(hKey,lpRegistryPath);

  002ca	462a		 mov         r2,r5
  002cc	4631		 mov         r1,r6
  002ce	4620		 mov         r0,r4
  002d0	f000 f800	 bl          |?PMExt_Init@PMExtension@@QAAKPAUHKEY__@@PBG@Z|
  002d4	60a0		 str         r0,[r4,#8]
  002d6		 |$LN1@PMExtensio|

; 69   :     }
; 70   : }

  002d6	4620		 mov         r0,r4
  002d8		 |$M35|
  002d8	b026		 add         sp,sp,#0x98
  002da	f000 f800	 bl          __security_pop_cookie
  002de	e8bd 89f0	 pop         {r4-r8,r11,pc}
  002e2		 |$LN49@PMExtensio|
  002e2		 |$M50|
  002e2	defe		 __debugbreak
  002e4		 |$LN36@PMExtensio|
  002e4		 |$LN37@PMExtensio|
  002e4	0000 0000	 DCD         |??_C@_1DI@KCAFPOHP@?$AAP?$AAM?$AAE?$AAx?$AAt?$AA_?$AAP?$AAM?$AAA?$AAf?$AAt?$AAe?$AAr?$AAN?$AAe?$AAw?$AAD?$AAe?$AAv?$AAi?$AAc?$AAe?$AAS?$AAt?$AAa?$AAt?$AAe?$AA?$AA@|
  002e8		 |$LN38@PMExtensio|
  002e8	0000 0000	 DCD         |??_C@_1DK@GKLHCJCE@?$AAP?$AAM?$AAE?$AAx?$AAt?$AA_?$AAP?$AAM?$AAB?$AAe?$AAf?$AAo?$AAr?$AAe?$AAN?$AAe?$AAw?$AAD?$AAe?$AAv?$AAi?$AAc?$AAe?$AAS?$AAt?$AAa?$AAt?$AAe?$AA?$AA@|
  002ec		 |$LN39@PMExtensio|
  002ec	0000 0000	 DCD         |??_C@_1DI@DGCJHNEK@?$AAP?$AAM?$AAE?$AAx?$AAt?$AA_?$AAP?$AAM?$AAA?$AAf?$AAt?$AAe?$AAr?$AAN?$AAe?$AAw?$AAS?$AAy?$AAs?$AAt?$AAe?$AAm?$AAS?$AAt?$AAa?$AAt?$AAe?$AA?$AA@|
  002f0		 |$LN40@PMExtensio|
  002f0	0000 0000	 DCD         |??_C@_1DK@POJLKKBB@?$AAP?$AAM?$AAE?$AAx?$AAt?$AA_?$AAP?$AAM?$AAB?$AAe?$AAf?$AAo?$AAr?$AAe?$AAN?$AAe?$AAw?$AAS?$AAy?$AAs?$AAt?$AAe?$AAm?$AAS?$AAt?$AAa?$AAt?$AAe?$AA?$AA@|
  002f4		 |$LN41@PMExtensio|
  002f4	0000 0000	 DCD         |??_C@_1DA@EGCEGIFK@?$AAP?$AAM?$AAE?$AAx?$AAt?$AA_?$AAE?$AAv?$AAe?$AAn?$AAt?$AAN?$AAo?$AAt?$AAi?$AAf?$AAi?$AAc?$AAa?$AAt?$AAi?$AAo?$AAn?$AA?$AA@|
  002f8		 |$LN42@PMExtensio|
  002f8	0000 0000	 DCD         |??_C@_1DI@JNIFMANL@?$AAP?$AAM?$AAE?$AAx?$AAt?$AA_?$AAG?$AAe?$AAt?$AAN?$AAo?$AAt?$AAi?$AAf?$AAi?$AAc?$AAa?$AAt?$AAi?$AAo?$AAn?$AAH?$AAa?$AAn?$AAd?$AAl?$AAe?$AA?$AA@|
  002fc		 |$LN43@PMExtensio|
  002fc	0000 0000	 DCD         |??_C@_1BK@PBEIGBDA@?$AAP?$AAM?$AAE?$AAx?$AAt?$AA_?$AAD?$AAe?$AAI?$AAn?$AAi?$AAt?$AA?$AA@|
  00300		 |$LN44@PMExtensio|
  00300	0000 0000	 DCD         |??_C@_1BG@JEIALCGK@?$AAP?$AAM?$AAE?$AAx?$AAt?$AA_?$AAI?$AAn?$AAi?$AAt?$AA?$AA@|
  00304		 |$LN45@PMExtensio|
  00304	0000 0000	 DCD         |??_C@_1HG@CLKAFEHO@?$AAP?$AAM?$AAE?$AAx?$AAt?$AAe?$AAn?$AAs?$AAi?$AAo?$AAn?$AA?3?$AA?3?$AAP?$AAM?$AAE?$AAx?$AAt?$AAe?$AAn?$AAs?$AAi?$AAo?$AAn?$AA?3?$AA?5?$AAc?$AAo?$AAu?$AAl?$AAd?$AAn@|
  00308		 |$LN46@PMExtensio|
  00308	0000 0000	 DCD         |dpCurSettings|
  0030c		 |$LN47@PMExtensio|
  0030c	0000 0000	 DCD         |??_C@_1M@OAJFFPML@?$AAF?$AAl?$AAa?$AAg?$AAs?$AA?$AA@|
  00310		 |$LN48@PMExtensio|
  00310	0000 0000	 DCD         |??_C@_17DJMMGLBL@?$AAD?$AAl?$AAl?$AA?$AA@|
  00314		 |$M33|

			 ENDP  ; |??0PMExtension@@QAA@PAUHKEY__@@PBGPAV0@@Z|, PMExtension::PMExtension

	EXPORT	|?PMExt_EventNotification@@YAXW4PLATFORM_ACTIVITY_EVENT@@@Z| ; PMExt_EventNotification
; Function compile flags: /Ogsp
; File c:\wince800\platform\rrm_ppc_windows\src\drivers\pm\mdd\pmexthdl.cpp

  00314			 AREA	 |.text|, CODE, THUMB

  00314		 |?PMExt_EventNotification@@YAXW4PLATFORM_ACTIVITY_EVENT@@@Z| PROC ; PMExt_EventNotification

; 186  :     if (g_pPMExtMgr)

  00314	4b03		 ldr         r3,|$LN8@PMExt_Even| ; =|?g_pPMExtMgr@@3PAVPMExtensionMgr@@A|
  00316	4601		 mov         r1,r0
  00318	6818		 ldr         r0,[r3]
  0031a	b108		 cbz         r0,|$LN1@PMExt_Even|
  0031c		 |$M5|

; 187  :         g_pPMExtMgr->PMExt_EventNotification(platformActivityEvent);

  0031c	f000 9000	 b           |?PMExt_EventNotification@PMExtensionMgr@@QAAXW4PLATFORM_ACTIVITY_EVENT@@@Z|
  00320		 |$LN1@PMExt_Even|
  00320		 |$M6|

; 188  : }

  00320	4770		 bx          lr
  00322		 |$LN9@PMExt_Even|
  00322		 |$M10|
  00322	defe		 __debugbreak
  00324		 |$LN7@PMExt_Even|
  00324		 |$LN8@PMExt_Even|
  00324	0000 0000	 DCD         |?g_pPMExtMgr@@3PAVPMExtensionMgr@@A|

			 ENDP  ; |?PMExt_EventNotification@@YAXW4PLATFORM_ACTIVITY_EVENT@@@Z|, PMExt_EventNotification

	EXPORT	|?PMExt_PMBeforeNewSystemState@@YAXPBGK@Z| ; PMExt_PMBeforeNewSystemState

  00030			 AREA	 |.pdata|, PDATA
|$pdata1$?PMExt_PMBeforeNewSystemState@@YAXPBGK@Z| DCD imagerel |$LN17@PMExt_PMBe|
	DCD	0xfd326055
; Function compile flags: /Ogsp
; File c:\wince800\platform\rrm_ppc_windows\src\drivers\pm\mdd\pmexthdl.cpp
; File c:\wince800\platform\rrm_ppc_windows\src\drivers\pm\mdd\pmexthdl.hpp
; File c:\wince800\platform\rrm_ppc_windows\src\drivers\pm\mdd\pmexthdl.cpp

  00328			 AREA	 |.text|, CODE, THUMB

  00328		 |?PMExt_PMBeforeNewSystemState@@YAXPBGK@Z| PROC ; PMExt_PMBeforeNewSystemState

; 190  : {

  00328		 |$LN17@PMExt_PMBe|
  00328	e92d 4878	 push        {r3-r6,r11,lr}
  0032c	f20d 0b10	 addw        r11,sp,#0x10
  00330		 |$M15|

; 191  :     if (g_pPMExtMgr)

  00330	4b08		 ldr         r3,|$LN20@PMExt_PMBe| ; =|?g_pPMExtMgr@@3PAVPMExtensionMgr@@A|
  00332	460d		 mov         r5,r1
  00334	4606		 mov         r6,r0
  00336	681b		 ldr         r3,[r3]
  00338	b14b		 cbz         r3,|$LN4@PMExt_PMBe|
; File c:\wince800\platform\rrm_ppc_windows\src\drivers\pm\mdd\pmexthdl.hpp

; 145  :         PMExtension * pCurExt = m_PMExtensionList ;

  0033a	681c		 ldr         r4,[r3]
  0033c	e005		 b           |$LN13@PMExt_PMBe|
  0033e		 |$LL5@PMExt_PMBe|

; 147  :             pCurExt->PMExt_PMBeforeNewSystemState(lpNewStateName,dwFlags);

  0033e	462a		 mov         r2,r5
  00340	4631		 mov         r1,r6
  00342	4620		 mov         r0,r4
  00344	f000 f800	 bl          |?PMExt_PMBeforeNewSystemState@PMExtension@@QAAXPBGK@Z|

; 148  :             pCurExt = pCurExt->GetNextPmExt();

  00348	68e4		 ldr         r4,[r4,#0xC]
  0034a		 |$LN13@PMExt_PMBe|

; 146  :         while (pCurExt) {

  0034a	2c00		 cmp         r4,#0
  0034c	d1f7		 bne         |$LL5@PMExt_PMBe|
  0034e		 |$LN4@PMExt_PMBe|
  0034e		 |$M18|
; File c:\wince800\platform\rrm_ppc_windows\src\drivers\pm\mdd\pmexthdl.cpp

; 193  : }

  0034e	e8bd 8878	 pop         {r3-r6,r11,pc}
  00352		 |$LN21@PMExt_PMBe|
  00352		 |$M22|
  00352	defe		 __debugbreak
  00354		 |$LN19@PMExt_PMBe|
  00354		 |$LN20@PMExt_PMBe|
  00354	0000 0000	 DCD         |?g_pPMExtMgr@@3PAVPMExtensionMgr@@A|
  00358		 |$M16|

			 ENDP  ; |?PMExt_PMBeforeNewSystemState@@YAXPBGK@Z|, PMExt_PMBeforeNewSystemState

	EXPORT	|?PMExt_PMAfterNewSystemState@@YAXPBGK@Z| ; PMExt_PMAfterNewSystemState

  00038			 AREA	 |.pdata|, PDATA
|$pdata1$?PMExt_PMAfterNewSystemState@@YAXPBGK@Z| DCD imagerel |$LN17@PMExt_PMAf|
	DCD	0xfd326055
; Function compile flags: /Ogsp
; File c:\wince800\platform\rrm_ppc_windows\src\drivers\pm\mdd\pmexthdl.cpp
; File c:\wince800\platform\rrm_ppc_windows\src\drivers\pm\mdd\pmexthdl.hpp
; File c:\wince800\platform\rrm_ppc_windows\src\drivers\pm\mdd\pmexthdl.cpp

  00358			 AREA	 |.text|, CODE, THUMB

  00358		 |?PMExt_PMAfterNewSystemState@@YAXPBGK@Z| PROC ; PMExt_PMAfterNewSystemState

; 195  : {

  00358		 |$LN17@PMExt_PMAf|
  00358	e92d 4878	 push        {r3-r6,r11,lr}
  0035c	f20d 0b10	 addw        r11,sp,#0x10
  00360		 |$M15|

; 196  :     if (g_pPMExtMgr)

  00360	4b08		 ldr         r3,|$LN20@PMExt_PMAf| ; =|?g_pPMExtMgr@@3PAVPMExtensionMgr@@A|
  00362	460d		 mov         r5,r1
  00364	4606		 mov         r6,r0
  00366	681b		 ldr         r3,[r3]
  00368	b14b		 cbz         r3,|$LN4@PMExt_PMAf|
; File c:\wince800\platform\rrm_ppc_windows\src\drivers\pm\mdd\pmexthdl.hpp

; 152  :         PMExtension * pCurExt = m_PMExtensionList ;

  0036a	681c		 ldr         r4,[r3]
  0036c	e005		 b           |$LN13@PMExt_PMAf|
  0036e		 |$LL5@PMExt_PMAf|

; 154  :             pCurExt->PMExt_PMAfterNewSystemState(lpNewStateName,dwFlags);

  0036e	462a		 mov         r2,r5
  00370	4631		 mov         r1,r6
  00372	4620		 mov         r0,r4
  00374	f000 f800	 bl          |?PMExt_PMAfterNewSystemState@PMExtension@@QAAXPBGK@Z|

; 155  :             pCurExt = pCurExt->GetNextPmExt();

  00378	68e4		 ldr         r4,[r4,#0xC]
  0037a		 |$LN13@PMExt_PMAf|

; 153  :         while (pCurExt) {

  0037a	2c00		 cmp         r4,#0
  0037c	d1f7		 bne         |$LL5@PMExt_PMAf|
  0037e		 |$LN4@PMExt_PMAf|
  0037e		 |$M18|
; File c:\wince800\platform\rrm_ppc_windows\src\drivers\pm\mdd\pmexthdl.cpp

; 198  : }

  0037e	e8bd 8878	 pop         {r3-r6,r11,pc}
  00382		 |$LN21@PMExt_PMAf|
  00382		 |$M22|
  00382	defe		 __debugbreak
  00384		 |$LN19@PMExt_PMAf|
  00384		 |$LN20@PMExt_PMAf|
  00384	0000 0000	 DCD         |?g_pPMExtMgr@@3PAVPMExtensionMgr@@A|
  00388		 |$M16|

			 ENDP  ; |?PMExt_PMAfterNewSystemState@@YAXPBGK@Z|, PMExt_PMAfterNewSystemState

	EXPORT	|?PMExt_PMBeforeNewDeviceState@@YAXPBGW4_CEDEVICE_POWER_STATE@@1@Z| ; PMExt_PMBeforeNewDeviceState

  00040			 AREA	 |.pdata|, PDATA
|$pdata1$?PMExt_PMBeforeNewDeviceState@@YAXPBGW4_CEDEVICE_POWER_STATE@@1@Z| DCD imagerel |$LN17@PMExt_PMBe|
	DCD	0x33605d
; Function compile flags: /Ogsp
; File c:\wince800\platform\rrm_ppc_windows\src\drivers\pm\mdd\pmexthdl.cpp
; File c:\wince800\platform\rrm_ppc_windows\src\drivers\pm\mdd\pmexthdl.hpp
; File c:\wince800\platform\rrm_ppc_windows\src\drivers\pm\mdd\pmexthdl.cpp

  00388			 AREA	 |.text|, CODE, THUMB

  00388		 |?PMExt_PMBeforeNewDeviceState@@YAXPBGW4_CEDEVICE_POWER_STATE@@1@Z| PROC ; PMExt_PMBeforeNewDeviceState

; 200  : {

  00388		 |$LN17@PMExt_PMBe|
  00388	e92d 48f0	 push        {r4-r7,r11,lr}
  0038c	f20d 0b10	 addw        r11,sp,#0x10
  00390		 |$M15|

; 201  :     if (g_pPMExtMgr)

  00390	4b09		 ldr         r3,|$LN20@PMExt_PMBe| ; =|?g_pPMExtMgr@@3PAVPMExtensionMgr@@A|
  00392	4615		 mov         r5,r2
  00394	460e		 mov         r6,r1
  00396	681b		 ldr         r3,[r3]
  00398	4607		 mov         r7,r0
  0039a	b153		 cbz         r3,|$LN4@PMExt_PMBe|
; File c:\wince800\platform\rrm_ppc_windows\src\drivers\pm\mdd\pmexthdl.hpp

; 160  :         PMExtension * pCurExt = m_PMExtensionList ;

  0039c	681c		 ldr         r4,[r3]
  0039e	e006		 b           |$LN13@PMExt_PMBe|
  003a0		 |$LL5@PMExt_PMBe|

; 162  :             pCurExt->PMExt_PMBeforeNewDeviceState(pszName, curDx, reqDx);

  003a0	462b		 mov         r3,r5
  003a2	4632		 mov         r2,r6
  003a4	4639		 mov         r1,r7
  003a6	4620		 mov         r0,r4
  003a8	f000 f800	 bl          |?PMExt_PMBeforeNewDeviceState@PMExtension@@QAAXPBGW4_CEDEVICE_POWER_STATE@@1@Z|

; 163  :             pCurExt = pCurExt->GetNextPmExt();

  003ac	68e4		 ldr         r4,[r4,#0xC]
  003ae		 |$LN13@PMExt_PMBe|

; 161  :         while (pCurExt) {

  003ae	2c00		 cmp         r4,#0
  003b0	d1f6		 bne         |$LL5@PMExt_PMBe|
  003b2		 |$LN4@PMExt_PMBe|
  003b2		 |$M18|
; File c:\wince800\platform\rrm_ppc_windows\src\drivers\pm\mdd\pmexthdl.cpp

; 203  : }

  003b2	e8bd 88f0	 pop         {r4-r7,r11,pc}
  003b6		 |$LN21@PMExt_PMBe|
  003b6		 |$M22|
  003b6	defe		 __debugbreak
  003b8		 |$LN19@PMExt_PMBe|
  003b8		 |$LN20@PMExt_PMBe|
  003b8	0000 0000	 DCD         |?g_pPMExtMgr@@3PAVPMExtensionMgr@@A|
  003bc		 |$M16|

			 ENDP  ; |?PMExt_PMBeforeNewDeviceState@@YAXPBGW4_CEDEVICE_POWER_STATE@@1@Z|, PMExt_PMBeforeNewDeviceState

	EXPORT	|?PMExt_PMAfterNewDeviceState@@YAXPBGW4_CEDEVICE_POWER_STATE@@1@Z| ; PMExt_PMAfterNewDeviceState

  00048			 AREA	 |.pdata|, PDATA
|$pdata1$?PMExt_PMAfterNewDeviceState@@YAXPBGW4_CEDEVICE_POWER_STATE@@1@Z| DCD imagerel |$LN17@PMExt_PMAf|
	DCD	0x33605d
; Function compile flags: /Ogsp
; File c:\wince800\platform\rrm_ppc_windows\src\drivers\pm\mdd\pmexthdl.cpp
; File c:\wince800\platform\rrm_ppc_windows\src\drivers\pm\mdd\pmexthdl.hpp
; File c:\wince800\platform\rrm_ppc_windows\src\drivers\pm\mdd\pmexthdl.cpp

  003bc			 AREA	 |.text|, CODE, THUMB

  003bc		 |?PMExt_PMAfterNewDeviceState@@YAXPBGW4_CEDEVICE_POWER_STATE@@1@Z| PROC ; PMExt_PMAfterNewDeviceState

; 205  : {

  003bc		 |$LN17@PMExt_PMAf|
  003bc	e92d 48f0	 push        {r4-r7,r11,lr}
  003c0	f20d 0b10	 addw        r11,sp,#0x10
  003c4		 |$M15|

; 206  :     if (g_pPMExtMgr)

  003c4	4b09		 ldr         r3,|$LN20@PMExt_PMAf| ; =|?g_pPMExtMgr@@3PAVPMExtensionMgr@@A|
  003c6	4615		 mov         r5,r2
  003c8	460e		 mov         r6,r1
  003ca	681b		 ldr         r3,[r3]
  003cc	4607		 mov         r7,r0
  003ce	b153		 cbz         r3,|$LN4@PMExt_PMAf|
; File c:\wince800\platform\rrm_ppc_windows\src\drivers\pm\mdd\pmexthdl.hpp

; 168  :         PMExtension * pCurExt = m_PMExtensionList ;

  003d0	681c		 ldr         r4,[r3]
  003d2	e006		 b           |$LN13@PMExt_PMAf|
  003d4		 |$LL5@PMExt_PMAf|

; 170  :             pCurExt->PMExt_PMAfterNewDeviceState(pszName, curDx, reqDx);

  003d4	462b		 mov         r3,r5
  003d6	4632		 mov         r2,r6
  003d8	4639		 mov         r1,r7
  003da	4620		 mov         r0,r4
  003dc	f000 f800	 bl          |?PMExt_PMAfterNewDeviceState@PMExtension@@QAAXPBGW4_CEDEVICE_POWER_STATE@@1@Z|

; 171  :             pCurExt = pCurExt->GetNextPmExt();

  003e0	68e4		 ldr         r4,[r4,#0xC]
  003e2		 |$LN13@PMExt_PMAf|

; 169  :         while (pCurExt) {

  003e2	2c00		 cmp         r4,#0
  003e4	d1f6		 bne         |$LL5@PMExt_PMAf|
  003e6		 |$LN4@PMExt_PMAf|
  003e6		 |$M18|
; File c:\wince800\platform\rrm_ppc_windows\src\drivers\pm\mdd\pmexthdl.cpp

; 208  : }

  003e6	e8bd 88f0	 pop         {r4-r7,r11,pc}
  003ea		 |$LN21@PMExt_PMAf|
  003ea		 |$M22|
  003ea	defe		 __debugbreak
  003ec		 |$LN19@PMExt_PMAf|
  003ec		 |$LN20@PMExt_PMAf|
  003ec	0000 0000	 DCD         |?g_pPMExtMgr@@3PAVPMExtensionMgr@@A|
  003f0		 |$M16|

			 ENDP  ; |?PMExt_PMAfterNewDeviceState@@YAXPBGW4_CEDEVICE_POWER_STATE@@1@Z|, PMExt_PMAfterNewDeviceState

	EXPORT	|??_GPMExtension@@QAAPAXI@Z|		; PMExtension::`scalar deleting destructor'
	IMPORT	|??3@YAXPAX@Z|				; operator delete

  00000			 AREA	 |.pdata|, PDATA
|$pdata1$??_GPMExtension@@QAAPAXI@Z| DCD imagerel |$LN7@scalar|
	DCD	0x316045
; Function compile flags: /Ogsp

  00000			 AREA	 |.text|, CODE, THUMB

  00000		 |??_GPMExtension@@QAAPAXI@Z| PROC	; PMExtension::`scalar deleting destructor'
  00000		 |$LN7@scalar|
  00000	e92d 4830	 push        {r4,r5,r11,lr}
  00004	f20d 0b08	 addw        r11,sp,#8
  00008		 |$M5|
  00008	460c		 mov         r4,r1
  0000a	4605		 mov         r5,r0
  0000c	f000 f800	 bl          |??1PMExtension@@QAA@XZ|
  00010	f014 0f01	 tst         r4,#1
  00014	d002		 beq         |$LN1@scalar|
  00016	4628		 mov         r0,r5
  00018	f000 f800	 bl          |??3@YAXPAX@Z|
  0001c		 |$LN1@scalar|
  0001c	4628		 mov         r0,r5
  0001e		 |$M8|
  0001e	e8bd 8830	 pop         {r4,r5,r11,pc}
  00022		 |$M6|

			 ENDP  ; |??_GPMExtension@@QAAPAXI@Z|, PMExtension::`scalar deleting destructor'

	EXPORT	|??_C@_1GC@HDMBBDJE@?$AAS?$AAY?$AAS?$AAT?$AAE?$AAM?$AA?2?$AAC?$AAu?$AAr?$AAr?$AAe?$AAn?$AAt?$AAC?$AAo?$AAn?$AAt?$AAr?$AAo?$AAl?$AAS?$AAe?$AAt?$AA?2?$AAC?$AAo?$AAn?$AAt?$AAr?$AAo?$AAl@| [ DATA ] ; `string'
	EXPORT	|??_C@_1FE@DECOCDIH@?$AAL?$AAo?$AAa?$AAd?$AA?5?$AAP?$AAM?$AA?5?$AAe?$AAx?$AAt?$AAe?$AAn?$AAs?$AAi?$AAo?$AAn?$AA?5?$AAf?$AAr?$AAo?$AAm?$AA?5?$AA?$CF?$AAs?$AA?5?$AAS?$AAu?$AAc?$AAc?$AAe?$AAs@| [ DATA ] ; `string'
	EXPORT	|??_C@_1FG@CHKMAEBE@?$AAL?$AAo?$AAa?$AAd?$AA?5?$AAP?$AAM?$AA?5?$AAe?$AAx?$AAt?$AAe?$AAn?$AAs?$AAi?$AAo?$AAn?$AA?5?$AAh?$AAa?$AAn?$AAd?$AAl?$AAe?$AA?5?$AAo?$AAn?$AA?5?$AA?$CF?$AAs?$AA?5?$AAo@| [ DATA ] ; `string'
	EXPORT	|??_C@_1EI@PLKOBDME@?$AAL?$AAo?$AAa?$AAd?$AA?5?$AAP?$AAM?$AA?5?$AAe?$AAx?$AAt?$AAe?$AAn?$AAs?$AAi?$AAo?$AAn?$AA?5?$AAf?$AAr?$AAo?$AAm?$AA?5?$AA?$CF?$AAs?$AA?5?$AAf?$AAa?$AAi?$AAl?$AAe?$AAd@| [ DATA ] ; `string'
	EXPORT	|??0PMExtensionMgr@@QAA@XZ|		; PMExtensionMgr::PMExtensionMgr
	IMPORT	|??2@YAPAXI@Z|				; operator new

  00050			 AREA	 |.pdata|, PDATA
|$pdata1$??0PMExtensionMgr@@QAA@XZ| DCD imagerel |$LN59@PMExtensio|
	DCD	imagerel |$unwind2$??0PMExtensionMgr@@QAA@XZ|

  00038			 AREA	 |.xdata|, DATA
|$unwind2$??0PMExtensionMgr@@QAA@XZ| DCD 0x4430009b
	DCD	0x1e887e8
	DCD	0xfff0abfc
	DCD	0xf0ab01e8
	DCD	0xff
	DCD	imagerel |__GSHandlerCheck|
	DCD	0xffffffdd

  00000			 AREA	 |.rdata|, DATA, READONLY
|??_C@_1EI@PLKOBDME@?$AAL?$AAo?$AAa?$AAd?$AA?5?$AAP?$AAM?$AA?5?$AAe?$AAx?$AAt?$AAe?$AAn?$AAs?$AAi?$AAo?$AAn?$AA?5?$AAf?$AAr?$AAo?$AAm?$AA?5?$AA?$CF?$AAs?$AA?5?$AAf?$AAa?$AAi?$AAl?$AAe?$AAd@| DCB "L"
	DCB	0x0, "o", 0x0, "a", 0x0, "d", 0x0, " ", 0x0, "P", 0x0, "M"
	DCB	0x0, " ", 0x0, "e", 0x0, "x", 0x0, "t", 0x0, "e", 0x0, "n"
	DCB	0x0, "s", 0x0, "i", 0x0, "o", 0x0, "n", 0x0, " ", 0x0, "f"
	DCB	0x0, "r", 0x0, "o", 0x0, "m", 0x0, " ", 0x0, "%", 0x0, "s"
	DCB	0x0, " ", 0x0, "f", 0x0, "a", 0x0, "i", 0x0, "l", 0x0, "e"
	DCB	0x0, "d", 0x0, " ", 0x0, 0xd, 0x0, 0xa, 0x0, 0x0, 0x0 ; `string'

  00000			 AREA	 |.rdata|, DATA, READONLY
|??_C@_1FG@CHKMAEBE@?$AAL?$AAo?$AAa?$AAd?$AA?5?$AAP?$AAM?$AA?5?$AAe?$AAx?$AAt?$AAe?$AAn?$AAs?$AAi?$AAo?$AAn?$AA?5?$AAh?$AAa?$AAn?$AAd?$AAl?$AAe?$AA?5?$AAo?$AAn?$AA?5?$AA?$CF?$AAs?$AA?5?$AAo@| DCB "L"
	DCB	0x0, "o", 0x0, "a", 0x0, "d", 0x0, " ", 0x0, "P", 0x0, "M"
	DCB	0x0, " ", 0x0, "e", 0x0, "x", 0x0, "t", 0x0, "e", 0x0, "n"
	DCB	0x0, "s", 0x0, "i", 0x0, "o", 0x0, "n", 0x0, " ", 0x0, "h"
	DCB	0x0, "a", 0x0, "n", 0x0, "d", 0x0, "l", 0x0, "e", 0x0, " "
	DCB	0x0, "o", 0x0, "n", 0x0, " ", 0x0, "%", 0x0, "s", 0x0, " "
	DCB	0x0, "o", 0x0, "v", 0x0, "e", 0x0, "r", 0x0, "f", 0x0, "l"
	DCB	0x0, "o", 0x0, "w", 0x0, ".", 0x0, 0xd, 0x0, 0xa, 0x0, 0x0
	DCB	0x0					; `string'

  00000			 AREA	 |.rdata|, DATA, READONLY
|??_C@_1FE@DECOCDIH@?$AAL?$AAo?$AAa?$AAd?$AA?5?$AAP?$AAM?$AA?5?$AAe?$AAx?$AAt?$AAe?$AAn?$AAs?$AAi?$AAo?$AAn?$AA?5?$AAf?$AAr?$AAo?$AAm?$AA?5?$AA?$CF?$AAs?$AA?5?$AAS?$AAu?$AAc?$AAc?$AAe?$AAs@| DCB "L"
	DCB	0x0, "o", 0x0, "a", 0x0, "d", 0x0, " ", 0x0, "P", 0x0, "M"
	DCB	0x0, " ", 0x0, "e", 0x0, "x", 0x0, "t", 0x0, "e", 0x0, "n"
	DCB	0x0, "s", 0x0, "i", 0x0, "o", 0x0, "n", 0x0, " ", 0x0, "f"
	DCB	0x0, "r", 0x0, "o", 0x0, "m", 0x0, " ", 0x0, "%", 0x0, "s"
	DCB	0x0, " ", 0x0, "S", 0x0, "u", 0x0, "c", 0x0, "c", 0x0, "e"
	DCB	0x0, "s", 0x0, "s", 0x0, "f", 0x0, "u", 0x0, "l", 0x0, "l"
	DCB	0x0, "y", 0x0, " ", 0x0, 0xd, 0x0, 0xa, 0x0, 0x0, 0x0 ; `string'

  00000			 AREA	 |.rdata|, DATA, READONLY
|??_C@_1GC@HDMBBDJE@?$AAS?$AAY?$AAS?$AAT?$AAE?$AAM?$AA?2?$AAC?$AAu?$AAr?$AAr?$AAe?$AAn?$AAt?$AAC?$AAo?$AAn?$AAt?$AAr?$AAo?$AAl?$AAS?$AAe?$AAt?$AA?2?$AAC?$AAo?$AAn?$AAt?$AAr?$AAo?$AAl@| DCB "S"
	DCB	0x0, "Y", 0x0, "S", 0x0, "T", 0x0, "E", 0x0, "M", 0x0, "\\"
	DCB	0x0, "C", 0x0, "u", 0x0, "r", 0x0, "r", 0x0, "e", 0x0, "n"
	DCB	0x0, "t", 0x0, "C", 0x0, "o", 0x0, "n", 0x0, "t", 0x0, "r"
	DCB	0x0, "o", 0x0, "l", 0x0, "S", 0x0, "e", 0x0, "t", 0x0, "\\"
	DCB	0x0, "C", 0x0, "o", 0x0, "n", 0x0, "t", 0x0, "r", 0x0, "o"
	DCB	0x0, "l", 0x0, "\\", 0x0, "P", 0x0, "o", 0x0, "w", 0x0, "e"
	DCB	0x0, "r", 0x0, "\\", 0x0, "E", 0x0, "x", 0x0, "t", 0x0, "e"
	DCB	0x0, "n", 0x0, "s", 0x0, "i", 0x0, "o", 0x0, "n", 0x0, 0x0
	DCB	0x0					; `string'
; Function compile flags: /Ogsp
; File c:\wince800\platform\rrm_ppc_windows\src\drivers\pm\mdd\pmexthdl.cpp
; File c:\wince800\public\common\oak\inc\cregedit.h
; File c:\wince800\platform\rrm_ppc_windows\src\drivers\pm\mdd\pmexthdl.cpp
; File c:\wince800\public\common\oak\inc\cregedit.h
; File c:\wince800\platform\rrm_ppc_windows\src\drivers\pm\mdd\pmexthdl.cpp
; File c:\wince800\public\common\oak\inc\cregedit.h
; File c:\wince800\platform\rrm_ppc_windows\src\drivers\pm\mdd\pmexthdl.cpp
; File c:\wince800\public\common\oak\inc\cregedit.h
; File c:\wince800\platform\rrm_ppc_windows\src\drivers\pm\mdd\pmexthdl.cpp
; File c:\wince800\platform\rrm_ppc_windows\src\drivers\pm\mdd\pmexthdl.hpp
; File c:\wince800\platform\rrm_ppc_windows\src\drivers\pm\mdd\pmexthdl.cpp
; File c:\wince800\public\common\oak\inc\cregedit.h
; File c:\wince800\platform\rrm_ppc_windows\src\drivers\pm\mdd\pmexthdl.cpp

  003f0			 AREA	 |.text|, CODE, THUMB

  003f0		 |??0PMExtensionMgr@@QAA@XZ| PROC	; PMExtensionMgr::PMExtensionMgr

; 81   : {

  003f0		 |$LN59@PMExtensio|
  003f0	e92d 4bf0	 push        {r4-r9,r11,lr}
  003f4	f20d 0b18	 addw        r11,sp,#0x18
  003f8	f000 f800	 bl          __security_push_cookie
  003fc	f2ad 2d1c	 subw        sp,sp,#0x21C
  00400		 |$M57|
; File c:\wince800\public\common\oak\inc\cregedit.h

; 44   :         m_hDevKey = NULL;

  00400	2300		 movs        r3,#0
  00402	9304		 str         r3,[sp,#0x10]

; 47   :             if( RegOpenKeyEx( hKey, pszRegPath, 0, 0, &m_hDevKey ) != ERROR_SUCCESS )

  00404	ab04		 add         r3,sp,#0x10
  00406	9300		 str         r3,[sp]
  00408	2301		 movs        r3,#1
  0040a	494b		 ldr         r1,|$LN66@PMExtensio| ; =|??_C@_1GC@HDMBBDJE@?$AAS?$AAY?$AAS?$AAT?$AAE?$AAM?$AA?2?$AAC?$AAu?$AAr?$AAr?$AAe?$AAn?$AAt?$AAC?$AAo?$AAn?$AAt?$AAr?$AAo?$AAl?$AAS?$AAe?$AAt?$AA?2?$AAC?$AAo?$AAn?$AAt?$AAr?$AAo?$AAl@|
; File c:\wince800\platform\rrm_ppc_windows\src\drivers\pm\mdd\pmexthdl.cpp

; 82   :     m_dwNumOfHandle = 0; 

  0040c	f04f 0900	 mov         r9,#0
  00410	07dc		 lsls        r4,r3,#0x1F
  00412	4605		 mov         r5,r0
  00414	f8c0 9004	 str         r9,[r0,#4]

; 83   : 
; 84   :     m_PMExtensionList = NULL;

  00418	f8c0 9000	 str         r9,[r0]
; File c:\wince800\public\common\oak\inc\cregedit.h

; 47   :             if( RegOpenKeyEx( hKey, pszRegPath, 0, 0, &m_hDevKey ) != ERROR_SUCCESS )

  0041c	1ca0		 adds        r0,r4,#2
  0041e	2300		 movs        r3,#0
  00420	2200		 movs        r2,#0
  00422	f000 f800	 bl          RegOpenKeyExW
  00426	b110		 cbz         r0,|$LN54@PMExtensio|

; 48   :             {
; 49   :                 m_hDevKey = NULL;

  00428	2000		 movs        r0,#0
  0042a	9004		 str         r0,[sp,#0x10]
  0042c	e000		 b           |$LN23@PMExtensio|
  0042e		 |$LN54@PMExtensio|
  0042e	9804		 ldr         r0,[sp,#0x10]
  00430		 |$LN23@PMExtensio|

; 96   :             m_hDevKey = NULL;
; 97   :             return TRUE;
; 98   :         }
; 99   :         return FALSE;
; 100  :     }
; 101  :     
; 102  :     DWORD   GetWindowInfo( DDKWINDOWINFO* pdwi )
; 103  :     {
; 104  :         if( pdwi && m_hDevKey )
; 105  :         {
; 106  :             pdwi->cbSize = sizeof( DDKWINDOWINFO );
; 107  :             DWORD status = DDKReg_GetWindowInfo( m_hDevKey, pdwi );
; 108  :             return status;
; 109  :         }
; 110  :         else
; 111  :         {
; 112  :             return ERROR_INVALID_FUNCTION;
; 113  :         }
; 114  :     }
; 115  :     
; 116  :     DWORD   GetIsrInfo( DDKISRINFO* pddi )
; 117  :     {
; 118  :         if( pddi && m_hDevKey )
; 119  :         {
; 120  :             pddi->cbSize = sizeof( DDKISRINFO );
; 121  :             DWORD status = DDKReg_GetIsrInfo( m_hDevKey, pddi );
; 122  :             return status;
; 123  :         }
; 124  :         else
; 125  :         {
; 126  :             return ERROR_INVALID_FUNCTION;
; 127  :         }
; 128  :     }
; 129  :     
; 130  :     DWORD   GetPciInfo( DDKPCIINFO* pdpi )
; 131  :     {
; 132  :         if( pdpi && m_hDevKey )
; 133  :         {
; 134  :             pdpi->cbSize = sizeof( DDKPCIINFO );
; 135  :             DWORD status = DDKReg_GetPciInfo( m_hDevKey, pdpi );
; 136  :             return status;
; 137  :         }
; 138  :         else
; 139  :         {
; 140  :             return ERROR_INVALID_FUNCTION;
; 141  :         }
; 142  :     };
; 143  :     
; 144  :     BOOL    GetRegValue( LPCWSTR lpcName, __out_bcount(dwDataLen) LPBYTE lpData, DWORD dwDataLen )
; 145  :     {
; 146  :         DWORD dwType = 0;
; 147  :         LONG status = ::RegQueryValueEx( m_hDevKey,
; 148  :                                            lpcName,
; 149  :                                            NULL,
; 150  :                                            &dwType,
; 151  :                                            lpData,
; 152  :                                            &dwDataLen );
; 153  :         return ( status == ERROR_SUCCESS );
; 154  :     }
; 155  :     BOOL    GetRegSize( LPCWSTR lpcName, DWORD& dwDataLen )
; 156  :     {
; 157  :         DWORD dwType = 0;
; 158  :         LONG status = ::RegQueryValueEx( m_hDevKey,
; 159  :                                            lpcName,
; 160  :                                            NULL,
; 161  :                                            &dwType,
; 162  :                                            NULL,
; 163  :                                            &dwDataLen );
; 164  :         return ( status == ERROR_SUCCESS || status == ERROR_MORE_DATA);
; 165  :     }
; 166  : 
; 167  :     BOOL    RegQueryValueEx( LPCWSTR lpcName,
; 168  :                              PDWORD pdwType,
; 169  :                              __out_bcount_opt(*pdwDataLen) LPBYTE lpData,
; 170  :                              PDWORD pdwDataLen )
; 171  :     {
; 172  :         LONG status = ::RegQueryValueEx( m_hDevKey,
; 173  :                                            lpcName,
; 174  :                                            NULL,
; 175  :                                            pdwType,
; 176  :                                            lpData,
; 177  :                                            pdwDataLen );
; 178  :         return ( status == ERROR_SUCCESS );
; 179  :     };
; 180  :     
; 181  :     BOOL    RegSetValueEx( LPCWSTR lpcName,
; 182  :                            DWORD dwType,
; 183  :                            __in_bcount(dwDataLen) BYTE const*const lpData,
; 184  :                            DWORD dwDataLen )
; 185  : 
; 186  :     {
; 187  :         LONG status = ::RegSetValueEx( m_hDevKey,
; 188  :                                          lpcName,
; 189  :                                          NULL,
; 190  :                                          dwType,
; 191  :                                          lpData,
; 192  :                                          dwDataLen );
; 193  :         return ( status == ERROR_SUCCESS );
; 194  :     }
; 195  :     
; 196  :     BOOL IsKeyOpened() const
; 197  :     {
; 198  :         return ( m_hDevKey != NULL );

  00430	2800		 cmp         r0,#0
  00432	d071		 beq         |$LN46@PMExtensio|
; File c:\wince800\platform\rrm_ppc_windows\src\drivers\pm\mdd\pmexthdl.cpp

; 89   :         DWORD DevNameLength = _countof(DevName);

  00434	4e3f		 ldr         r6,|$LN65@PMExtensio| ; =|dpCurSettings|
  00436	f44f 7880	 mov         r8,#0x100

; 90   :         DWORD dwRegIndex = 0;

  0043a	2700		 movs        r7,#0
  0043c		 |$LN55@PMExtensio|
; File c:\wince800\public\common\oak\inc\cregedit.h

; 248  :                                  lpftLastWriteTime ) == ERROR_SUCCESS );

  0043c	ab05		 add         r3,sp,#0x14
  0043e	aa06		 add         r2,sp,#0x18
  00440	4639		 mov         r1,r7
; File c:\wince800\platform\rrm_ppc_windows\src\drivers\pm\mdd\pmexthdl.cpp

; 89   :         DWORD DevNameLength = _countof(DevName);

  00442	f8cd 8014	 str         r8,[sp,#0x14]
; File c:\wince800\public\common\oak\inc\cregedit.h

; 248  :                                  lpftLastWriteTime ) == ERROR_SUCCESS );

  00446	f8cd 900c	 str         r9,[sp,#0xC]
  0044a	f8cd 9008	 str         r9,[sp,#8]
  0044e	f8cd 9004	 str         r9,[sp,#4]
  00452	f8cd 9000	 str         r9,[sp]
  00456	f000 f800	 bl          RegEnumKeyExW
  0045a	2800		 cmp         r0,#0
  0045c	d158		 bne         |$LN33@PMExtensio|
; File c:\wince800\platform\rrm_ppc_windows\src\drivers\pm\mdd\pmexthdl.cpp

; 92   :             PMExtension * pmExt = new PMExtension(pmExtReg.GetHKey(), DevName, m_PMExtensionList);

  0045e	2030		 movs        r0,#0x30
  00460	f000 f800	 bl          |??2@YAPAXI@Z|
  00464	b130		 cbz         r0,|$LN13@PMExtensio|
  00466	682b		 ldr         r3,[r5]
  00468	9904		 ldr         r1,[sp,#0x10]
  0046a	aa06		 add         r2,sp,#0x18
  0046c	f000 f800	 bl          |??0PMExtension@@QAA@PAUHKEY__@@PBGPAV0@@Z|
  00470	4604		 mov         r4,r0
  00472	e000		 b           |$LN14@PMExtensio|
  00474		 |$LN13@PMExtensio|
  00474	2400		 movs        r4,#0
  00476		 |$LN14@PMExtensio|

; 93   :             if (pmExt && pmExt->Init()) {

  00476	b3a4		 cbz         r4,|$LN7@PMExtensio|
; File c:\wince800\platform\rrm_ppc_windows\src\drivers\pm\mdd\pmexthdl.hpp

; 35   :     BOOL    Init() { return (m_dwContext!=0); };

  00478	68a3		 ldr         r3,[r4,#8]
  0047a	b393		 cbz         r3,|$LN7@PMExtensio|
; File c:\wince800\platform\rrm_ppc_windows\src\drivers\pm\mdd\pmexthdl.cpp

; 94   :                 PMLOGMSG(ZONE_INIT, (_T("Load PM extension from %s Successfully \r\n"), DevName));

  0047c	f8d6 3440	 ldr         r3,[r6,#0x440]
  00480	f013 0f04	 tst         r3,#4
  00484	d007		 beq         |$LN15@PMExtensio|
  00486	482a		 ldr         r0,|$LN64@PMExtensio| ; =|??_C@_1FE@DECOCDIH@?$AAL?$AAo?$AAa?$AAd?$AA?5?$AAP?$AAM?$AA?5?$AAe?$AAx?$AAt?$AAe?$AAn?$AAs?$AAi?$AAo?$AAn?$AA?5?$AAf?$AAr?$AAo?$AAm?$AA?5?$AA?$CF?$AAs?$AA?5?$AAS?$AAu?$AAc?$AAc?$AAe?$AAs@|
  00488	a906		 add         r1,sp,#0x18
  0048a	f000 f800	 bl          NKDbgPrintfW
  0048e	4828		 ldr         r0,|$LN64@PMExtensio| ; =|??_C@_1FE@DECOCDIH@?$AAL?$AAo?$AAa?$AAd?$AA?5?$AAP?$AAM?$AA?5?$AAe?$AAx?$AAt?$AAe?$AAn?$AAs?$AAi?$AAo?$AAn?$AA?5?$AAf?$AAr?$AAo?$AAm?$AA?5?$AA?$CF?$AAs?$AA?5?$AAS?$AAu?$AAc?$AAc?$AAe?$AAs@|
  00490	a906		 add         r1,sp,#0x18
  00492	f000 f800	 bl          CeLogMsg
  00496		 |$LN15@PMExtensio|

; 95   :                 m_PMExtensionList = pmExt;
; 96   :                 // We try to get handle.
; 97   :                 if (m_dwNumOfHandle<MAXIMUM_WAIT_OBJECTS) {

  00496	686b		 ldr         r3,[r5,#4]
  00498	602c		 str         r4,[r5]

; 98   :                     HANDLE hPmExtHandle = pmExt->PMExt_GetNotificationHandle();

  0049a	4620		 mov         r0,r4
  0049c	2b40		 cmp         r3,#0x40
  0049e	d20f		 bcs         |$LN6@PMExtensio|
  004a0	f000 f800	 bl          |?PMExt_GetNotificationHandle@PMExtension@@QAAPAXXZ|

; 99   :                     if (hPmExtHandle) {

  004a4	b388		 cbz         r0,|$LN41@PMExtensio|

; 100  :                         m_hPmExended[m_dwNumOfHandle] = hPmExtHandle;

  004a6	686b		 ldr         r3,[r5,#4]
  004a8	eb05 0383	 add         r3,r5,r3,lsl #2
  004ac	6098		 str         r0,[r3,#8]

; 101  :                         m_OwnerPMExt[m_dwNumOfHandle] = pmExt;

  004ae	686b		 ldr         r3,[r5,#4]
  004b0	eb05 0383	 add         r3,r5,r3,lsl #2
  004b4	f8c3 4108	 str         r4,[r3,#0x108]

; 102  :                         m_dwNumOfHandle++;

  004b8	686b		 ldr         r3,[r5,#4]
  004ba	3301		 adds        r3,#1
  004bc	606b		 str         r3,[r5,#4]

; 103  :                     }
; 104  :                 }

  004be	e024		 b           |$LN41@PMExtensio|
  004c0		 |$LN6@PMExtensio|

; 105  :                 else if (pmExt->PMExt_GetNotificationHandle()!=NULL) {

  004c0	f000 f800	 bl          |?PMExt_GetNotificationHandle@PMExtension@@QAAPAXXZ|
  004c4	b308		 cbz         r0,|$LN41@PMExtensio|

; 106  :                     PMLOGMSG(ZONE_ERROR, (_T("Load PM extension handle on %s overflow.\r\n"), DevName));

  004c6	f8d6 3440	 ldr         r3,[r6,#0x440]
  004ca	f013 0f01	 tst         r3,#1
  004ce	d01c		 beq         |$LN41@PMExtensio|
  004d0	4816		 ldr         r0,|$LN63@PMExtensio| ; =|??_C@_1FG@CHKMAEBE@?$AAL?$AAo?$AAa?$AAd?$AA?5?$AAP?$AAM?$AA?5?$AAe?$AAx?$AAt?$AAe?$AAn?$AAs?$AAi?$AAo?$AAn?$AA?5?$AAh?$AAa?$AAn?$AAd?$AAl?$AAe?$AA?5?$AAo?$AAn?$AA?5?$AA?$CF?$AAs?$AA?5?$AAo@|
  004d2	a906		 add         r1,sp,#0x18
  004d4	f000 f800	 bl          NKDbgPrintfW
  004d8	4814		 ldr         r0,|$LN63@PMExtensio| ; =|??_C@_1FG@CHKMAEBE@?$AAL?$AAo?$AAa?$AAd?$AA?5?$AAP?$AAM?$AA?5?$AAe?$AAx?$AAt?$AAe?$AAn?$AAs?$AAi?$AAo?$AAn?$AA?5?$AAh?$AAa?$AAn?$AAd?$AAl?$AAe?$AA?5?$AAo?$AAn?$AA?5?$AA?$CF?$AAs?$AA?5?$AAo@|
  004da	a906		 add         r1,sp,#0x18
  004dc	f000 f800	 bl          CeLogMsg

; 107  :                 }
; 108  :             }
; 109  :             else {

  004e0	e013		 b           |$LN41@PMExtensio|
  004e2		 |$LN7@PMExtensio|

; 110  :                 PMLOGMSG(ZONE_ERROR, (_T("Load PM extension from %s failed \r\n"), DevName));

  004e2	f8d6 3440	 ldr         r3,[r6,#0x440]
  004e6	f013 0f01	 tst         r3,#1
  004ea	d007		 beq         |$LN19@PMExtensio|
  004ec	480e		 ldr         r0,|$LN62@PMExtensio| ; =|??_C@_1EI@PLKOBDME@?$AAL?$AAo?$AAa?$AAd?$AA?5?$AAP?$AAM?$AA?5?$AAe?$AAx?$AAt?$AAe?$AAn?$AAs?$AAi?$AAo?$AAn?$AA?5?$AAf?$AAr?$AAo?$AAm?$AA?5?$AA?$CF?$AAs?$AA?5?$AAf?$AAa?$AAi?$AAl?$AAe?$AAd@|
  004ee	a906		 add         r1,sp,#0x18
  004f0	f000 f800	 bl          NKDbgPrintfW
  004f4	480c		 ldr         r0,|$LN62@PMExtensio| ; =|??_C@_1EI@PLKOBDME@?$AAL?$AAo?$AAa?$AAd?$AA?5?$AAP?$AAM?$AA?5?$AAe?$AAx?$AAt?$AAe?$AAn?$AAs?$AAi?$AAo?$AAn?$AA?5?$AAf?$AAr?$AAo?$AAm?$AA?5?$AA?$CF?$AAs?$AA?5?$AAf?$AAa?$AAi?$AAl?$AAe?$AAd@|
  004f6	a906		 add         r1,sp,#0x18
  004f8	f000 f800	 bl          CeLogMsg
  004fc		 |$LN19@PMExtensio|

; 111  :                 if (pmExt)

  004fc	b12c		 cbz         r4,|$LN41@PMExtensio|
  004fe	4620		 mov         r0,r4
  00500	f000 f800	 bl          |??1PMExtension@@QAA@XZ|
  00504	4620		 mov         r0,r4
  00506	f000 f800	 bl          |??3@YAXPAX@Z|
  0050a		 |$LN41@PMExtensio|

; 112  :                     delete pmExt;
; 113  :             }
; 114  :             dwRegIndex++;
; 115  :             DevNameLength = _countof(DevName);
; 116  :         }

  0050a	9804		 ldr         r0,[sp,#0x10]
  0050c	3701		 adds        r7,#1
  0050e	e795		 b           |$LN55@PMExtensio|
  00510		 |$LN33@PMExtensio|
; File c:\wince800\public\common\oak\inc\cregedit.h

; 93   :         if( m_hDevKey )

  00510	9804		 ldr         r0,[sp,#0x10]
  00512	b108		 cbz         r0,|$LN46@PMExtensio|

; 94   :         {
; 95   :             RegCloseKey( m_hDevKey );

  00514	f000 f800	 bl          RegCloseKey
  00518		 |$LN46@PMExtensio|
; File c:\wince800\platform\rrm_ppc_windows\src\drivers\pm\mdd\pmexthdl.cpp

; 118  : }

  00518	4628		 mov         r0,r5
  0051a		 |$M60|
  0051a	f20d 2d1c	 addw        sp,sp,#0x21C
  0051e	f000 f800	 bl          __security_pop_cookie
  00522	e8bd 8bf0	 pop         {r4-r9,r11,pc}
  00526		 |$LN67@PMExtensio|
  00526		 |$M68|
  00526	defe		 __debugbreak
  00528		 |$LN61@PMExtensio|
  00528		 |$LN62@PMExtensio|
  00528	0000 0000	 DCD         |??_C@_1EI@PLKOBDME@?$AAL?$AAo?$AAa?$AAd?$AA?5?$AAP?$AAM?$AA?5?$AAe?$AAx?$AAt?$AAe?$AAn?$AAs?$AAi?$AAo?$AAn?$AA?5?$AAf?$AAr?$AAo?$AAm?$AA?5?$AA?$CF?$AAs?$AA?5?$AAf?$AAa?$AAi?$AAl?$AAe?$AAd@|
  0052c		 |$LN63@PMExtensio|
  0052c	0000 0000	 DCD         |??_C@_1FG@CHKMAEBE@?$AAL?$AAo?$AAa?$AAd?$AA?5?$AAP?$AAM?$AA?5?$AAe?$AAx?$AAt?$AAe?$AAn?$AAs?$AAi?$AAo?$AAn?$AA?5?$AAh?$AAa?$AAn?$AAd?$AAl?$AAe?$AA?5?$AAo?$AAn?$AA?5?$AA?$CF?$AAs?$AA?5?$AAo@|
  00530		 |$LN64@PMExtensio|
  00530	0000 0000	 DCD         |??_C@_1FE@DECOCDIH@?$AAL?$AAo?$AAa?$AAd?$AA?5?$AAP?$AAM?$AA?5?$AAe?$AAx?$AAt?$AAe?$AAn?$AAs?$AAi?$AAo?$AAn?$AA?5?$AAf?$AAr?$AAo?$AAm?$AA?5?$AA?$CF?$AAs?$AA?5?$AAS?$AAu?$AAc?$AAc?$AAe?$AAs@|
  00534		 |$LN65@PMExtensio|
  00534	0000 0000	 DCD         |dpCurSettings|
  00538		 |$LN66@PMExtensio|
  00538	0000 0000	 DCD         |??_C@_1GC@HDMBBDJE@?$AAS?$AAY?$AAS?$AAT?$AAE?$AAM?$AA?2?$AAC?$AAu?$AAr?$AAr?$AAe?$AAn?$AAt?$AAC?$AAo?$AAn?$AAt?$AAr?$AAo?$AAl?$AAS?$AAe?$AAt?$AA?2?$AAC?$AAo?$AAn?$AAt?$AAr?$AAo?$AAl@|
  0053c		 |$M58|

			 ENDP  ; |??0PMExtensionMgr@@QAA@XZ|, PMExtensionMgr::PMExtensionMgr

	EXPORT	|??1PMExtensionMgr@@QAA@XZ|		; PMExtensionMgr::~PMExtensionMgr

  00058			 AREA	 |.pdata|, PDATA
|$pdata1$??1PMExtensionMgr@@QAA@XZ| DCD imagerel |$LN18@PMExtensio|
	DCD	0xfd326059
; Function compile flags: /Ogsp
; File c:\wince800\platform\rrm_ppc_windows\src\drivers\pm\mdd\pmexthdl.cpp

  0053c			 AREA	 |.text|, CODE, THUMB

  0053c		 |??1PMExtensionMgr@@QAA@XZ| PROC	; PMExtensionMgr::~PMExtensionMgr

; 120  : {

  0053c		 |$LN18@PMExtensio|
  0053c	e92d 4878	 push        {r3-r6,r11,lr}
  00540	f20d 0b10	 addw        r11,sp,#0x10
  00544		 |$M16|
  00544	4604		 mov         r4,r0

; 121  :     while (m_PMExtensionList) {

  00546	6823		 ldr         r3,[r4]
  00548	b163		 cbz         r3,|$LN1@PMExtensio|
  0054a		 |$LL2@PMExtensio|

; 122  :         PMExtension * pNext = m_PMExtensionList->GetNextPmExt();

  0054a	6823		 ldr         r3,[r4]

; 123  :         delete m_PMExtensionList;

  0054c	461e		 mov         r6,r3
  0054e	68dd		 ldr         r5,[r3,#0xC]
  00550	b12e		 cbz         r6,|$LN9@PMExtensio|
  00552	4618		 mov         r0,r3
  00554	f000 f800	 bl          |??1PMExtension@@QAA@XZ|
  00558	4630		 mov         r0,r6
  0055a	f000 f800	 bl          |??3@YAXPAX@Z|
  0055e		 |$LN9@PMExtensio|

; 124  :         m_PMExtensionList = pNext ;

  0055e	6025		 str         r5,[r4]
  00560	2d00		 cmp         r5,#0
  00562	d1f2		 bne         |$LL2@PMExtensio|
  00564		 |$LN1@PMExtensio|
  00564		 |$M19|

; 125  :     }
; 126  : }

  00564	e8bd 8878	 pop         {r3-r6,r11,pc}
  00568		 |$M17|

			 ENDP  ; |??1PMExtensionMgr@@QAA@XZ|, PMExtensionMgr::~PMExtensionMgr

	EXPORT	|?PMExt_Init@@YAHXZ|			; PMExt_Init

  00060			 AREA	 |.pdata|, PDATA
|$pdata1$?PMExt_Init@@YAHXZ| DCD imagerel |$LN13@PMExt_Init|
	DCD	0xfd30605d
; Function compile flags: /Ogsp
; File c:\wince800\platform\rrm_ppc_windows\src\drivers\pm\mdd\pmexthdl.cpp

  00568			 AREA	 |.text|, CODE, THUMB

  00568		 |?PMExt_Init@@YAHXZ| PROC		; PMExt_Init

; 164  : {

  00568		 |$LN13@PMExt_Init|
  00568	e92d 4818	 push        {r3,r4,r11,lr}
  0056c	f20d 0b08	 addw        r11,sp,#8
  00570		 |$M11|

; 165  :     if (g_pPMExtMgr == NULL ) {

  00570	4c09		 ldr         r4,|$LN16@PMExt_Init| ; =|?g_pPMExtMgr@@3PAVPMExtensionMgr@@A|
  00572	6823		 ldr         r3,[r4]
  00574	b963		 cbnz        r3,|$LN8@PMExt_Init|

; 166  :         g_pPMExtMgr = new PMExtensionMgr();

  00576	f44f 7002	 mov         r0,#0x208
  0057a	f000 f800	 bl          |??2@YAPAXI@Z|
  0057e	b110		 cbz         r0,|$LN4@PMExt_Init|
  00580	f000 f800	 bl          |??0PMExtensionMgr@@QAA@XZ|
  00584	e000		 b           |$LN9@PMExt_Init|
  00586		 |$LN4@PMExt_Init|
  00586	2000		 movs        r0,#0
  00588		 |$LN9@PMExt_Init|
  00588	6020		 str         r0,[r4]

; 167  :     }
; 168  :     return g_pPMExtMgr!=NULL;

  0058a	b908		 cbnz        r0,|$LN8@PMExt_Init|
  0058c	2000		 movs        r0,#0
  0058e	e000		 b           |$LN7@PMExt_Init|
  00590		 |$LN8@PMExt_Init|
  00590	2001		 movs        r0,#1
  00592		 |$LN7@PMExt_Init|
  00592		 |$M14|

; 169  : }

  00592	e8bd 8818	 pop         {r3,r4,r11,pc}
  00596		 |$LN17@PMExt_Init|
  00596		 |$M18|
  00596	defe		 __debugbreak
  00598		 |$LN15@PMExt_Init|
  00598		 |$LN16@PMExt_Init|
  00598	0000 0000	 DCD         |?g_pPMExtMgr@@3PAVPMExtensionMgr@@A|
  0059c		 |$M12|

			 ENDP  ; |?PMExt_Init@@YAHXZ|, PMExt_Init

	EXPORT	|??_GPMExtensionMgr@@QAAPAXI@Z|		; PMExtensionMgr::`scalar deleting destructor'

  00000			 AREA	 |.pdata|, PDATA
|$pdata1$??_GPMExtensionMgr@@QAAPAXI@Z| DCD imagerel |$LN7@scalar|
	DCD	0x316045
; Function compile flags: /Ogsp

  00000			 AREA	 |.text|, CODE, THUMB

  00000		 |??_GPMExtensionMgr@@QAAPAXI@Z| PROC	; PMExtensionMgr::`scalar deleting destructor'
  00000		 |$LN7@scalar|
  00000	e92d 4830	 push        {r4,r5,r11,lr}
  00004	f20d 0b08	 addw        r11,sp,#8
  00008		 |$M5|
  00008	460c		 mov         r4,r1
  0000a	4605		 mov         r5,r0
  0000c	f000 f800	 bl          |??1PMExtensionMgr@@QAA@XZ|
  00010	f014 0f01	 tst         r4,#1
  00014	d002		 beq         |$LN1@scalar|
  00016	4628		 mov         r0,r5
  00018	f000 f800	 bl          |??3@YAXPAX@Z|
  0001c		 |$LN1@scalar|
  0001c	4628		 mov         r0,r5
  0001e		 |$M8|
  0001e	e8bd 8830	 pop         {r4,r5,r11,pc}
  00022		 |$M6|

			 ENDP  ; |??_GPMExtensionMgr@@QAAPAXI@Z|, PMExtensionMgr::`scalar deleting destructor'

	EXPORT	|?PMExt_DeInit@@YAHXZ|			; PMExt_DeInit

  00068			 AREA	 |.pdata|, PDATA
|$pdata1$?PMExt_DeInit@@YAHXZ| DCD imagerel |$LN12@PMExt_DeIn|
	DCD	0x316049
; Function compile flags: /Ogsp
; File c:\wince800\platform\rrm_ppc_windows\src\drivers\pm\mdd\pmexthdl.cpp

  0059c			 AREA	 |.text|, CODE, THUMB

  0059c		 |?PMExt_DeInit@@YAHXZ| PROC		; PMExt_DeInit

; 171  : {

  0059c		 |$LN12@PMExt_DeIn|
  0059c	e92d 4830	 push        {r4,r5,r11,lr}
  005a0	f20d 0b08	 addw        r11,sp,#8
  005a4		 |$M10|

; 172  :     if (g_pPMExtMgr)

  005a4	4d06		 ldr         r5,|$LN15@PMExt_DeIn| ; =|?g_pPMExtMgr@@3PAVPMExtensionMgr@@A|
  005a6	682c		 ldr         r4,[r5]
  005a8	b12c		 cbz         r4,|$LN6@PMExt_DeIn|
  005aa	4620		 mov         r0,r4
  005ac	f000 f800	 bl          |??1PMExtensionMgr@@QAA@XZ|
  005b0	4620		 mov         r0,r4
  005b2	f000 f800	 bl          |??3@YAXPAX@Z|
  005b6		 |$LN6@PMExt_DeIn|

; 173  :         delete g_pPMExtMgr;
; 174  :     g_pPMExtMgr = NULL;

  005b6	2300		 movs        r3,#0
  005b8	602b		 str         r3,[r5]

; 175  :     return TRUE;

  005ba	2001		 movs        r0,#1
  005bc		 |$M13|

; 176  : }

  005bc	e8bd 8830	 pop         {r4,r5,r11,pc}
  005c0		 |$LN14@PMExt_DeIn|
  005c0		 |$LN15@PMExt_DeIn|
  005c0	0000 0000	 DCD         |?g_pPMExtMgr@@3PAVPMExtensionMgr@@A|
  005c4		 |$M11|

			 ENDP  ; |?PMExt_DeInit@@YAHXZ|, PMExt_DeInit

	END
