; Listing generated by Microsoft (R) Optimizing Compiler Version 17.00.50727.114 

	TTL	C:\wince800\platform\rrm_ppc_windows\src\drivers\pm\mdd\pminit.cpp
	THUMB

  00000			 AREA	 |.drectve|, DRECTVE
	DCB	"-defaultlib:LIBCMT "
	DCB	"-defaultlib:OLDNAMES "

	EXPORT	|ghevTimerResume| [ DATA ]
	EXPORT	|ghevPmShutdown| [ DATA ]
	EXPORT	|ghInst| [ DATA ]
	EXPORT	|gppActivityTimers| [ DATA ]
	EXPORT	|ghtPnP| [ DATA ]
	EXPORT	|ghtSystem| [ DATA ]
	EXPORT	|gpPowerNotifications| [ DATA ]
	EXPORT	|gpFloorDx| [ DATA ]
	EXPORT	|ghevPowerManagerReady| [ DATA ]
	EXPORT	|ghPmHeap| [ DATA ]
	EXPORT	|gpCeilingDx| [ DATA ]
	EXPORT	|gcsPowerManager| [ DATA ]
	EXPORT	|ghevResume| [ DATA ]
	EXPORT	|gpDeviceLists| [ DATA ]
	EXPORT	|gcsDeviceUpdateAPIs| [ DATA ]
	EXPORT	|ghtActivityTimers| [ DATA ]
	EXPORT	|gpSystemPowerState| [ DATA ]
	EXPORT	|ghtResume| [ DATA ]
	EXPORT	|dpCurSettings| [ DATA ]
	EXPORT	|idGenericPMDeviceClass| [ DATA ]
	EXPORT	|idPMDisplayDeviceClass| [ DATA ]
	EXPORT	|?g_pSysRegistryAccess@@3PAVSystemNotifyRegKey@@A| [ DATA ] ; g_pSysRegistryAccess

  00000			 AREA	 |.bss|, NOINIT
|ghevTimerResume| % 0x4
|ghevPmShutdown| % 0x4
|ghInst| %	0x4
|gppActivityTimers| % 0x4
|ghtPnP| %	0x4
|ghtSystem| %	0x4
|gpPowerNotifications| % 0x4
|gpFloorDx| %	0x4
|ghevPowerManagerReady| % 0x4
|ghPmHeap| %	0x4
|gpCeilingDx| %	0x4
|gcsPowerManager| % 0x14
|ghevResume| %	0x4
|gpDeviceLists| % 0x4
|gcsDeviceUpdateAPIs| % 0x14
|ghtActivityTimers| % 0x4
|gpSystemPowerState| % 0x4
|ghtResume| %	0x4
|?g_pSysRegistryAccess@@3PAVSystemNotifyRegKey@@A| % 0x4 ; g_pSysRegistryAccess

  00000			 AREA	 |.data|, DATA
|dpCurSettings| DCB "P", 0x0, "M", 0x0, 0x0, 0x0
	%	58
	DCB	"E", 0x0, "r", 0x0, "r", 0x0, "o", 0x0, "r", 0x0, "s", 0x0
	DCB	0x0, 0x0
	%	50
	DCB	"W", 0x0, "a", 0x0, "r", 0x0, "n", 0x0, "i", 0x0, "n", 0x0
	DCB	"g", 0x0, "s", 0x0, 0x0, 0x0
	%	46
	DCB	"I", 0x0, "n", 0x0, "i", 0x0, "t", 0x0, 0x0, 0x0
	%	54
	DCB	"R", 0x0, "e", 0x0, "s", 0x0, "u", 0x0, "m", 0x0, "e", 0x0
	DCB	0x0, 0x0
	%	50
	DCB	"D", 0x0, "e", 0x0, "v", 0x0, "i", 0x0, "c", 0x0, "e", 0x0
	DCB	0x0, 0x0
	%	50
	DCB	"I", 0x0, "o", 0x0, "c", 0x0, "t", 0x0, "l", 0x0, 0x0, 0x0
	%	52
	DCB	"R", 0x0, "e", 0x0, "f", 0x0, "c", 0x0, "n", 0x0, "t", 0x0
	DCB	0x0, 0x0
	%	50
	DCB	"R", 0x0, "e", 0x0, "q", 0x0, "u", 0x0, "i", 0x0, "r", 0x0
	DCB	"e", 0x0, 0x0, 0x0
	%	48
	DCB	"N", 0x0, "o", 0x0, "t", 0x0, "i", 0x0, "f", 0x0, "y", 0x0
	DCB	0x0, 0x0
	%	50
	DCB	"R", 0x0, "e", 0x0, "g", 0x0, "i", 0x0, "s", 0x0, "t", 0x0
	DCB	"r", 0x0, "y", 0x0, 0x0, 0x0
	%	46
	DCB	"P", 0x0, "l", 0x0, "a", 0x0, "t", 0x0, "f", 0x0, "o", 0x0
	DCB	"r", 0x0, "m", 0x0, 0x0, 0x0
	%	46
	DCB	"A", 0x0, "P", 0x0, "I", 0x0, 0x0, 0x0
	%	56
	DCB	"A", 0x0, "l", 0x0, "l", 0x0, "o", 0x0, "c", 0x0, 0x0, 0x0
	%	52
	DCB	"T", 0x0, "i", 0x0, "m", 0x0, "e", 0x0, "r", 0x0, "s", 0x0
	DCB	0x0, 0x0
	%	50
	DCB	0x0, 0x0
	%	62
	DCB	0x0, 0x0
	%	62
	DCD	0x3
|idGenericPMDeviceClass| DCD 0xa32942b7
	DCW	0x920c
	DCW	0x486b
	DCB	0xb0
	DCB	0xe6
	DCB	0x92
	DCB	0xa7
	DCB	0x2
	DCB	0xa9
	DCB	0x9b
	DCB	0x35
|idPMDisplayDeviceClass| DCD 0xeb91c7c9
	DCW	0x8bf6
	DCW	0x4a2d
	DCB	0x9a
	DCB	0xb8
	DCB	0x69
	DCB	0x72
	DCB	0x4e
	DCB	0xed
	DCB	0x97
	DCB	0xd1
	EXPORT	|SetEvent|
	IMPORT	|EventModify|
; Function compile flags: /Ogsp
; File c:\wince800\public\common\sdk\inc\kfuncs.h

  00000			 AREA	 |.text|, CODE, THUMB

  00000		 |SetEvent| PROC

; 244  :     return EventModify(h,EVENT_SET);

  00000	2103		 movs        r1,#3
  00002		 |$M4|
  00002	f000 9000	 b           EventModify

			 ENDP  ; |SetEvent|

	EXPORT	|GetCurrentProcess|
; Function compile flags: /Ogsp
; File c:\wince800\public\common\sdk\inc\kfuncs.h

  00000			 AREA	 |.text|, CODE, THUMB

  00000		 |GetCurrentProcess| PROC

; 368  :     return ((HANDLE)(SH_CURPROC+SYS_HANDLE_BASE));

  00000	2042		 movs        r0,#0x42
  00002		 |$M4|

; 369  : }

  00002	4770		 bx          lr

			 ENDP  ; |GetCurrentProcess|

	EXPORT	|GetCurrentProcessId|
	IMPORT	|__GetUserKData|
; Function compile flags: /Ogsp
; File c:\wince800\public\common\sdk\inc\kfuncs.h

  00000			 AREA	 |.text|, CODE, THUMB

  00000		 |GetCurrentProcessId| PROC

; 376  :     return __GetUserKData (SYSHANDLE_OFFSET + (SH_CURPROC * sizeof(HANDLE)));

  00000	200c		 movs        r0,#0xC
  00002		 |$M4|
  00002	f000 9000	 b           __GetUserKData

			 ENDP  ; |GetCurrentProcessId|

	EXPORT	|?IsEqualGUID@@YAHABU_GUID@@0@Z|	; IsEqualGUID
	IMPORT	|memcmp|

  00000			 AREA	 |.pdata|, PDATA
|$pdata1$?IsEqualGUID@@YAHABU_GUID@@0@Z| DCD imagerel |$LN8@IsEqualGUI|
	DCD	0x3f6031
; Function compile flags: /Ogsp
; File c:\wince800\public\common\sdk\inc\guiddef.h

  00000			 AREA	 |.text|, CODE, THUMB

  00000		 |?IsEqualGUID@@YAHABU_GUID@@0@Z| PROC	; IsEqualGUID

; 149  : {

  00000		 |$LN8@IsEqualGUI|
  00000	e92d 4800	 push        {r11,lr}
  00004	46eb		 mov         r11,sp
  00006		 |$M6|

; 150  :     return !memcmp(&rguid1, &rguid2, sizeof(GUID));

  00006	2210		 movs        r2,#0x10
  00008	f000 f800	 bl          memcmp
  0000c	b908		 cbnz        r0,|$LN3@IsEqualGUI|
  0000e	2001		 movs        r0,#1
  00010	e000		 b           |$LN4@IsEqualGUI|
  00012		 |$LN3@IsEqualGUI|
  00012	2000		 movs        r0,#0
  00014		 |$LN4@IsEqualGUI|
  00014		 |$M9|

; 151  : }

  00014	e8bd 8800	 pop         {r11,pc}
  00018		 |$M7|

			 ENDP  ; |?IsEqualGUID@@YAHABU_GUID@@0@Z|, IsEqualGUID

	IMPORT	|__security_push_cookie|
	IMPORT	|__security_pop_cookie|
	IMPORT	|__GSHandlerCheck|
	IMPORT	|StringCchVPrintfW|
	IMPORT	|StringCchLengthW|
	IMPORT	|CeLogData|

  00000			 AREA	 |.pdata|, PDATA
|$pdata1$CeLogMsg| DCD imagerel |$LN8@CeLogMsg|
	DCD	imagerel |$unwind2$CeLogMsg|

  00000			 AREA	 |.xdata|, DATA
|$unwind2$CeLogMsg| DCD 0x44b00032
	DCD	0x1e889e8
	DCD	0x400a8fb
	DCD	0x8801e8ff
	DCD	0xff05ef00
	DCD	imagerel |__GSHandlerCheck|
	DCD	0xffffffe5
; Function compile flags: /Ogsp
; File c:\wince800\public\common\sdk\inc\celog.h

  00000			 AREA	 |.text|, CODE, THUMB

  00000		 |CeLogMsg| PROC

; 1208 : {

  00000		 |$LN8@CeLogMsg|
  00000	b40f		 push        {r0-r3}
  00002	e92d 4800	 push        {r11,lr}
  00006	46eb		 mov         r11,sp
  00008	f000 f800	 bl          __security_push_cookie
  0000c	f2ad 2d24	 subw        sp,sp,#0x224
  00010		 |$M6|
  00010	4602		 mov         r2,r0

; 1209 :     va_list arglist;
; 1210 :     WCHAR   szTemp[MAX_PATH];
; 1211 :     size_t  cchLen;
; 1212 :     HRESULT hr;
; 1213 : 
; 1214 :     // Compose a single string using the input args
; 1215 :     va_start(arglist, szFormat);
; 1216 :     hr = StringCchVPrintfW(szTemp, MAX_PATH, szFormat, arglist);

  00012	a806		 add         r0,sp,#0x18
  00014	ab8d		 add         r3,sp,#0x234
  00016	f44f 7182	 mov         r1,#0x104
  0001a	928c		 str         r2,[sp,#0x230]
  0001c	f000 f800	 bl          StringCchVPrintfW

; 1217 :     if (SUCCEEDED(hr)) {

  00020	2800		 cmp         r0,#0
  00022	db17		 blt         |$LN1@CeLogMsg|

; 1218 :         hr = StringCchLengthW(szTemp, MAX_PATH, &cchLen);

  00024	aa04		 add         r2,sp,#0x10
  00026	a806		 add         r0,sp,#0x18
  00028	f44f 7182	 mov         r1,#0x104
  0002c	f000 f800	 bl          StringCchLengthW

; 1219 :         if (SUCCEEDED(hr)) {

  00030	2800		 cmp         r0,#0
  00032	db0f		 blt         |$LN1@CeLogMsg|

; 1220 :             CeLogData(TRUE, CELID_RAW_WCHAR, szTemp, (WORD)((cchLen + 1) * sizeof(WCHAR)),
; 1221 :                       0, CELZONE_ALWAYSON, 0, FALSE);

  00034	f04f 4380	 mov         r3,#0x40000000
  00038	9301		 str         r3,[sp,#4]
  0003a	9b04		 ldr         r3,[sp,#0x10]
  0003c	2200		 movs        r2,#0
  0003e	9203		 str         r2,[sp,#0xC]
  00040	3301		 adds        r3,#1
  00042	005b		 lsls        r3,r3,#1
  00044	9202		 str         r2,[sp,#8]
  00046	9200		 str         r2,[sp]
  00048	aa06		 add         r2,sp,#0x18
  0004a	214a		 movs        r1,#0x4A
  0004c	b29b		 uxth        r3,r3
  0004e	2001		 movs        r0,#1
  00050	f000 f800	 bl          CeLogData
  00054		 |$LN1@CeLogMsg|
  00054		 |$M9|

; 1222 :         }
; 1223 :     }
; 1224 : }

  00054	f20d 2d24	 addw        sp,sp,#0x224
  00058	f000 f800	 bl          __security_pop_cookie
  0005c	f85d bb04	 pop         {r11}
  00060	f85d fb14	 ldr         pc,[sp],#0x14
  00064		 |$M7|

			 ENDP  ; |CeLogMsg|

	EXPORT	|??8@YAHABU_GUID@@0@Z|			; operator==

  00000			 AREA	 |.pdata|, PDATA
|$pdata1$??8@YAHABU_GUID@@0@Z| DCD imagerel |$LN10@operator|
	DCD	0x3f6031
; Function compile flags: /Ogsp
; File c:\wince800\public\common\sdk\inc\guiddef.h

  00000			 AREA	 |.text|, CODE, THUMB

  00000		 |??8@YAHABU_GUID@@0@Z| PROC		; operator==

; 183  : {

  00000		 |$LN10@operator|
  00000	e92d 4800	 push        {r11,lr}
  00004	46eb		 mov         r11,sp
  00006		 |$M8|

; 150  :     return !memcmp(&rguid1, &rguid2, sizeof(GUID));

  00006	2210		 movs        r2,#0x10
  00008	f000 f800	 bl          memcmp
  0000c	b908		 cbnz        r0,|$LN5@operator|
  0000e	2001		 movs        r0,#1
  00010	e000		 b           |$LN6@operator|
  00012		 |$LN5@operator|
  00012	2000		 movs        r0,#0
  00014		 |$LN6@operator|
  00014		 |$M11|

; 184  :     return IsEqualGUID(guidOne,guidOther);
; 185  : }

  00014	e8bd 8800	 pop         {r11,pc}
  00018		 |$M9|

			 ENDP  ; |??8@YAHABU_GUID@@0@Z|, operator==

	EXPORT	|??_C@_1IG@DMCGIFIH@?$AA?$CK?$AA?$CK?$AA?$CK?$AA?5?$AA?$CF?$AAs?$AA?3?$AA?5?$AAD?$AAL?$AAL?$AA_?$AAP?$AAR?$AAO?$AAC?$AAE?$AAS?$AAS?$AA_?$AAA?$AAT?$AAT?$AAA?$AAC?$AAH?$AA?5?$AA?9?$AA?5?$AAC?$AAu?$AAr@| [ DATA ] ; `string'
	EXPORT	|??_C@_1BM@ICKAFFLD@?$AAP?$AAo?$AAw?$AAe?$AAr?$AA?5?$AAM?$AAa?$AAn?$AAa?$AAg?$AAe?$AAr?$AA?$AA@| [ DATA ] ; `string'
	EXPORT	|??_C@_1IG@NJENGIBE@?$AA?$CK?$AA?$CK?$AA?$CK?$AA?5?$AA?$CF?$AAs?$AA?3?$AA?5?$AAD?$AAL?$AAL?$AA_?$AAP?$AAR?$AAO?$AAC?$AAE?$AAS?$AAS?$AA_?$AAD?$AAE?$AAT?$AAA?$AAC?$AAH?$AA?5?$AA?9?$AA?5?$AAC?$AAu?$AAr@| [ DATA ] ; `string'
	EXPORT	|DllEntry|
	IMPORT	|RegisterDbgZones|
	IMPORT	|NKDbgPrintfW|
	IMPORT	|DisableThreadLibraryCalls|

  00008			 AREA	 |.pdata|, PDATA
|$pdata1$DllEntry| DCD imagerel |$LN34@DllEntry|
	DCD	0x316139

  00000			 AREA	 |.rdata|, DATA, READONLY
|??_C@_1IG@NJENGIBE@?$AA?$CK?$AA?$CK?$AA?$CK?$AA?5?$AA?$CF?$AAs?$AA?3?$AA?5?$AAD?$AAL?$AAL?$AA_?$AAP?$AAR?$AAO?$AAC?$AAE?$AAS?$AAS?$AA_?$AAD?$AAE?$AAT?$AAA?$AAC?$AAH?$AA?5?$AA?9?$AA?5?$AAC?$AAu?$AAr@| DCB "*"
	DCB	0x0, "*", 0x0, "*", 0x0, " ", 0x0, "%", 0x0, "s", 0x0, ":"
	DCB	0x0, " ", 0x0, "D", 0x0, "L", 0x0, "L", 0x0, "_", 0x0, "P"
	DCB	0x0, "R", 0x0, "O", 0x0, "C", 0x0, "E", 0x0, "S", 0x0, "S"
	DCB	0x0, "_", 0x0, "D", 0x0, "E", 0x0, "T", 0x0, "A", 0x0, "C"
	DCB	0x0, "H", 0x0, " ", 0x0, "-", 0x0, " ", 0x0, "C", 0x0, "u"
	DCB	0x0, "r", 0x0, "r", 0x0, "e", 0x0, "n", 0x0, "t", 0x0, " "
	DCB	0x0, "P", 0x0, "r", 0x0, "o", 0x0, "c", 0x0, "e", 0x0, "s"
	DCB	0x0, "s", 0x0, ":", 0x0, " ", 0x0, "0", 0x0, "x", 0x0, "%"
	DCB	0x0, "x", 0x0, ",", 0x0, " ", 0x0, "I", 0x0, "D", 0x0, ":"
	DCB	0x0, " ", 0x0, "0", 0x0, "x", 0x0, "%", 0x0, "x", 0x0, " "
	DCB	0x0, "*", 0x0, "*", 0x0, "*", 0x0, 0xd, 0x0, 0xa, 0x0, 0x0
	DCB	0x0					; `string'

  00000			 AREA	 |.rdata|, DATA, READONLY
|??_C@_1BM@ICKAFFLD@?$AAP?$AAo?$AAw?$AAe?$AAr?$AA?5?$AAM?$AAa?$AAn?$AAa?$AAg?$AAe?$AAr?$AA?$AA@| DCB "P"
	DCB	0x0, "o", 0x0, "w", 0x0, "e", 0x0, "r", 0x0, " ", 0x0, "M"
	DCB	0x0, "a", 0x0, "n", 0x0, "a", 0x0, "g", 0x0, "e", 0x0, "r"
	DCB	0x0, 0x0, 0x0				; `string'

  00000			 AREA	 |.rdata|, DATA, READONLY
|??_C@_1IG@DMCGIFIH@?$AA?$CK?$AA?$CK?$AA?$CK?$AA?5?$AA?$CF?$AAs?$AA?3?$AA?5?$AAD?$AAL?$AAL?$AA_?$AAP?$AAR?$AAO?$AAC?$AAE?$AAS?$AAS?$AA_?$AAA?$AAT?$AAT?$AAA?$AAC?$AAH?$AA?5?$AA?9?$AA?5?$AAC?$AAu?$AAr@| DCB "*"
	DCB	0x0, "*", 0x0, "*", 0x0, " ", 0x0, "%", 0x0, "s", 0x0, ":"
	DCB	0x0, " ", 0x0, "D", 0x0, "L", 0x0, "L", 0x0, "_", 0x0, "P"
	DCB	0x0, "R", 0x0, "O", 0x0, "C", 0x0, "E", 0x0, "S", 0x0, "S"
	DCB	0x0, "_", 0x0, "A", 0x0, "T", 0x0, "T", 0x0, "A", 0x0, "C"
	DCB	0x0, "H", 0x0, " ", 0x0, "-", 0x0, " ", 0x0, "C", 0x0, "u"
	DCB	0x0, "r", 0x0, "r", 0x0, "e", 0x0, "n", 0x0, "t", 0x0, " "
	DCB	0x0, "P", 0x0, "r", 0x0, "o", 0x0, "c", 0x0, "e", 0x0, "s"
	DCB	0x0, "s", 0x0, ":", 0x0, " ", 0x0, "0", 0x0, "x", 0x0, "%"
	DCB	0x0, "x", 0x0, ",", 0x0, " ", 0x0, "I", 0x0, "D", 0x0, ":"
	DCB	0x0, " ", 0x0, "0", 0x0, "x", 0x0, "%", 0x0, "x", 0x0, " "
	DCB	0x0, "*", 0x0, "*", 0x0, "*", 0x0, 0xd, 0x0, 0xa, 0x0, 0x0
	DCB	0x0					; `string'
; Function compile flags: /Ogsp
; File c:\wince800\platform\rrm_ppc_windows\src\drivers\pm\mdd\pminit.cpp
; File c:\wince800\public\common\sdk\inc\kfuncs.h
; File c:\wince800\platform\rrm_ppc_windows\src\drivers\pm\mdd\pminit.cpp
; File c:\wince800\public\common\sdk\inc\kfuncs.h
; File c:\wince800\platform\rrm_ppc_windows\src\drivers\pm\mdd\pminit.cpp
; File c:\wince800\public\common\sdk\inc\kfuncs.h
; File c:\wince800\platform\rrm_ppc_windows\src\drivers\pm\mdd\pminit.cpp
; File c:\wince800\public\common\sdk\inc\kfuncs.h
; File c:\wince800\platform\rrm_ppc_windows\src\drivers\pm\mdd\pminit.cpp
; File c:\wince800\public\common\sdk\inc\kfuncs.h
; File c:\wince800\platform\rrm_ppc_windows\src\drivers\pm\mdd\pminit.cpp
; File c:\wince800\public\common\sdk\inc\kfuncs.h
; File c:\wince800\platform\rrm_ppc_windows\src\drivers\pm\mdd\pminit.cpp
; File c:\wince800\public\common\sdk\inc\kfuncs.h
; File c:\wince800\platform\rrm_ppc_windows\src\drivers\pm\mdd\pminit.cpp
; File c:\wince800\public\common\sdk\inc\kfuncs.h
; File c:\wince800\platform\rrm_ppc_windows\src\drivers\pm\mdd\pminit.cpp

  00064			 AREA	 |.text|, CODE, THUMB

  00064		 |DllEntry| PROC

; 423  : {

  00064		 |$LN34@DllEntry|
  00064	e92d 4830	 push        {r4,r5,r11,lr}
  00068	f20d 0b08	 addw        r11,sp,#8
  0006c		 |$M32|
  0006c	4605		 mov         r5,r0

; 424  :     BOOL bRc = TRUE;
; 425  :     SETFNAME(_T("Power Manager"));
; 426  :     
; 427  :     UNREFERENCED_PARAMETER(hInst);
; 428  :     UNREFERENCED_PARAMETER(lpvReserved);
; 429  :     
; 430  :     switch (dwReason) {

  0006e	b311		 cbz         r1,|$LN3@DllEntry|
  00070	2901		 cmp         r1,#1
  00072	d142		 bne         |$LN5@DllEntry|

; 431  :     case DLL_PROCESS_ATTACH:
; 432  :         ghInst = (HINSTANCE) hInst;
; 433  :         RETAILREGISTERZONES(ghInst);    // zones in both debug and retail builds

  00074	4c25		 ldr         r4,|$LN40@DllEntry| ; =|dpCurSettings|
  00076	4b22		 ldr         r3,|$LN37@DllEntry| ; =|ghInst|
  00078	4621		 mov         r1,r4
  0007a	601d		 str         r5,[r3]
  0007c	f000 f800	 bl          RegisterDbgZones

; 435  :             pszFname, GetCurrentProcess(), GetCurrentProcessId()));

  00080	f8d4 3440	 ldr         r3,[r4,#0x440]
  00084	f013 0f04	 tst         r3,#4
  00088	d011		 beq         |$LN9@DllEntry|
; File c:\wince800\public\common\sdk\inc\kfuncs.h

; 376  :     return __GetUserKData (SYSHANDLE_OFFSET + (SH_CURPROC * sizeof(HANDLE)));

  0008a	200c		 movs        r0,#0xC
  0008c	f000 f800	 bl          __GetUserKData
; File c:\wince800\platform\rrm_ppc_windows\src\drivers\pm\mdd\pminit.cpp

; 435  :             pszFname, GetCurrentProcess(), GetCurrentProcessId()));

  00090	491d		 ldr         r1,|$LN39@DllEntry| ; =|??_C@_1BM@ICKAFFLD@?$AAP?$AAo?$AAw?$AAe?$AAr?$AA?5?$AAM?$AAa?$AAn?$AAa?$AAg?$AAe?$AAr?$AA?$AA@|
; File c:\wince800\public\common\sdk\inc\kfuncs.h

; 376  :     return __GetUserKData (SYSHANDLE_OFFSET + (SH_CURPROC * sizeof(HANDLE)));

  00092	4603		 mov         r3,r0
; File c:\wince800\platform\rrm_ppc_windows\src\drivers\pm\mdd\pminit.cpp

; 435  :             pszFname, GetCurrentProcess(), GetCurrentProcessId()));

  00094	481e		 ldr         r0,|$LN41@DllEntry| ; =|??_C@_1IG@DMCGIFIH@?$AA?$CK?$AA?$CK?$AA?$CK?$AA?5?$AA?$CF?$AAs?$AA?3?$AA?5?$AAD?$AAL?$AAL?$AA_?$AAP?$AAR?$AAO?$AAC?$AAE?$AAS?$AAS?$AA_?$AAA?$AAT?$AAT?$AAA?$AAC?$AAH?$AA?5?$AA?9?$AA?5?$AAC?$AAu?$AAr@|
  00096	2242		 movs        r2,#0x42
  00098	f000 f800	 bl          NKDbgPrintfW
; File c:\wince800\public\common\sdk\inc\kfuncs.h

; 376  :     return __GetUserKData (SYSHANDLE_OFFSET + (SH_CURPROC * sizeof(HANDLE)));

  0009c	200c		 movs        r0,#0xC
  0009e	f000 f800	 bl          __GetUserKData
; File c:\wince800\platform\rrm_ppc_windows\src\drivers\pm\mdd\pminit.cpp

; 435  :             pszFname, GetCurrentProcess(), GetCurrentProcessId()));

  000a2	4919		 ldr         r1,|$LN39@DllEntry| ; =|??_C@_1BM@ICKAFFLD@?$AAP?$AAo?$AAw?$AAe?$AAr?$AA?5?$AAM?$AAa?$AAn?$AAa?$AAg?$AAe?$AAr?$AA?$AA@|
; File c:\wince800\public\common\sdk\inc\kfuncs.h

; 376  :     return __GetUserKData (SYSHANDLE_OFFSET + (SH_CURPROC * sizeof(HANDLE)));

  000a4	4603		 mov         r3,r0
; File c:\wince800\platform\rrm_ppc_windows\src\drivers\pm\mdd\pminit.cpp

; 435  :             pszFname, GetCurrentProcess(), GetCurrentProcessId()));

  000a6	481a		 ldr         r0,|$LN41@DllEntry| ; =|??_C@_1IG@DMCGIFIH@?$AA?$CK?$AA?$CK?$AA?$CK?$AA?5?$AA?$CF?$AAs?$AA?3?$AA?5?$AAD?$AAL?$AAL?$AA_?$AAP?$AAR?$AAO?$AAC?$AAE?$AAS?$AAS?$AA_?$AAA?$AAT?$AAT?$AAA?$AAC?$AAH?$AA?5?$AA?9?$AA?5?$AAC?$AAu?$AAr@|
  000a8	2242		 movs        r2,#0x42
  000aa	f000 f800	 bl          CeLogMsg
  000ae		 |$LN9@DllEntry|

; 436  :         DisableThreadLibraryCalls((HMODULE) hInst);

  000ae	4628		 mov         r0,r5
  000b0	f000 f800	 bl          DisableThreadLibraryCalls

; 437  :         break;

  000b4	e021		 b           |$LN5@DllEntry|
  000b6		 |$LN3@DllEntry|

; 441  :             pszFname, GetCurrentProcess(), GetCurrentProcessId()));

  000b6	4b15		 ldr         r3,|$LN40@DllEntry| ; =|dpCurSettings|
  000b8	f8d3 3440	 ldr         r3,[r3,#0x440]
  000bc	f013 0f04	 tst         r3,#4
  000c0	d011		 beq         |$LN11@DllEntry|
; File c:\wince800\public\common\sdk\inc\kfuncs.h

; 376  :     return __GetUserKData (SYSHANDLE_OFFSET + (SH_CURPROC * sizeof(HANDLE)));

  000c2	200c		 movs        r0,#0xC
  000c4	f000 f800	 bl          __GetUserKData
; File c:\wince800\platform\rrm_ppc_windows\src\drivers\pm\mdd\pminit.cpp

; 441  :             pszFname, GetCurrentProcess(), GetCurrentProcessId()));

  000c8	490f		 ldr         r1,|$LN39@DllEntry| ; =|??_C@_1BM@ICKAFFLD@?$AAP?$AAo?$AAw?$AAe?$AAr?$AA?5?$AAM?$AAa?$AAn?$AAa?$AAg?$AAe?$AAr?$AA?$AA@|
; File c:\wince800\public\common\sdk\inc\kfuncs.h

; 376  :     return __GetUserKData (SYSHANDLE_OFFSET + (SH_CURPROC * sizeof(HANDLE)));

  000ca	4603		 mov         r3,r0
; File c:\wince800\platform\rrm_ppc_windows\src\drivers\pm\mdd\pminit.cpp

; 441  :             pszFname, GetCurrentProcess(), GetCurrentProcessId()));

  000cc	480d		 ldr         r0,|$LN38@DllEntry| ; =|??_C@_1IG@NJENGIBE@?$AA?$CK?$AA?$CK?$AA?$CK?$AA?5?$AA?$CF?$AAs?$AA?3?$AA?5?$AAD?$AAL?$AAL?$AA_?$AAP?$AAR?$AAO?$AAC?$AAE?$AAS?$AAS?$AA_?$AAD?$AAE?$AAT?$AAA?$AAC?$AAH?$AA?5?$AA?9?$AA?5?$AAC?$AAu?$AAr@|
  000ce	2242		 movs        r2,#0x42
  000d0	f000 f800	 bl          NKDbgPrintfW
; File c:\wince800\public\common\sdk\inc\kfuncs.h

; 376  :     return __GetUserKData (SYSHANDLE_OFFSET + (SH_CURPROC * sizeof(HANDLE)));

  000d4	200c		 movs        r0,#0xC
  000d6	f000 f800	 bl          __GetUserKData
; File c:\wince800\platform\rrm_ppc_windows\src\drivers\pm\mdd\pminit.cpp

; 441  :             pszFname, GetCurrentProcess(), GetCurrentProcessId()));

  000da	490b		 ldr         r1,|$LN39@DllEntry| ; =|??_C@_1BM@ICKAFFLD@?$AAP?$AAo?$AAw?$AAe?$AAr?$AA?5?$AAM?$AAa?$AAn?$AAa?$AAg?$AAe?$AAr?$AA?$AA@|
; File c:\wince800\public\common\sdk\inc\kfuncs.h

; 376  :     return __GetUserKData (SYSHANDLE_OFFSET + (SH_CURPROC * sizeof(HANDLE)));

  000dc	4603		 mov         r3,r0
; File c:\wince800\platform\rrm_ppc_windows\src\drivers\pm\mdd\pminit.cpp

; 441  :             pszFname, GetCurrentProcess(), GetCurrentProcessId()));

  000de	4809		 ldr         r0,|$LN38@DllEntry| ; =|??_C@_1IG@NJENGIBE@?$AA?$CK?$AA?$CK?$AA?$CK?$AA?5?$AA?$CF?$AAs?$AA?3?$AA?5?$AAD?$AAL?$AAL?$AA_?$AAP?$AAR?$AAO?$AAC?$AAE?$AAS?$AAS?$AA_?$AAD?$AAE?$AAT?$AAA?$AAC?$AAH?$AA?5?$AA?9?$AA?5?$AAC?$AAu?$AAr@|
  000e0	2242		 movs        r2,#0x42
  000e2	f000 f800	 bl          CeLogMsg
  000e6		 |$LN11@DllEntry|

; 442  :         if (g_pSysRegistryAccess != NULL)

  000e6	4c06		 ldr         r4,|$LN37@DllEntry| ; =|ghInst|
  000e8	6e23		 ldr         r3,[r4,#0x60]
  000ea	b123		 cbz         r3,|$LN13@DllEntry|

; 443  :             delete g_pSysRegistryAccess;

  000ec	4618		 mov         r0,r3
  000ee	681b		 ldr         r3,[r3]
  000f0	2101		 movs        r1,#1
  000f2	685b		 ldr         r3,[r3,#4]
  000f4	4798		 blx         r3
  000f6		 |$LN13@DllEntry|

; 444  :         g_pSysRegistryAccess = NULL;

  000f6	2300		 movs        r3,#0
  000f8	6623		 str         r3,[r4,#0x60]
  000fa		 |$LN5@DllEntry|

; 445  :         break;
; 446  :         
; 447  :     default:
; 448  :         break;
; 449  :     }
; 450  :    
; 451  :     return bRc;

  000fa	2001		 movs        r0,#1
  000fc		 |$M35|

; 452  : }

  000fc	e8bd 8830	 pop         {r4,r5,r11,pc}
  00100		 |$LN36@DllEntry|
  00100		 |$LN37@DllEntry|
  00100	0000 0000	 DCD         |ghInst|
  00104		 |$LN38@DllEntry|
  00104	0000 0000	 DCD         |??_C@_1IG@NJENGIBE@?$AA?$CK?$AA?$CK?$AA?$CK?$AA?5?$AA?$CF?$AAs?$AA?3?$AA?5?$AAD?$AAL?$AAL?$AA_?$AAP?$AAR?$AAO?$AAC?$AAE?$AAS?$AAS?$AA_?$AAD?$AAE?$AAT?$AAA?$AAC?$AAH?$AA?5?$AA?9?$AA?5?$AAC?$AAu?$AAr@|
  00108		 |$LN39@DllEntry|
  00108	0000 0000	 DCD         |??_C@_1BM@ICKAFFLD@?$AAP?$AAo?$AAw?$AAe?$AAr?$AA?5?$AAM?$AAa?$AAn?$AAa?$AAg?$AAe?$AAr?$AA?$AA@|
  0010c		 |$LN40@DllEntry|
  0010c	0000 0000	 DCD         |dpCurSettings|
  00110		 |$LN41@DllEntry|
  00110	0000 0000	 DCD         |??_C@_1IG@DMCGIFIH@?$AA?$CK?$AA?$CK?$AA?$CK?$AA?5?$AA?$CF?$AAs?$AA?3?$AA?5?$AAD?$AAL?$AAL?$AA_?$AAP?$AAR?$AAO?$AAC?$AAE?$AAS?$AAS?$AA_?$AAA?$AAT?$AAT?$AAA?$AAC?$AAH?$AA?5?$AA?9?$AA?5?$AAC?$AAu?$AAr@|
  00114		 |$M33|

			 ENDP  ; |DllEntry|

	EXPORT	|??_C@_1DO@CKDJKBAK@?$AA?$CL?$AA?$CF?$AAs?$AA?3?$AA?5?$AAh?$AAP?$AAr?$AAo?$AAc?$AAe?$AAs?$AAs?$AA?5?$AA0?$AAx?$AA?$CF?$AA0?$AA8?$AAx?$AA?5?$AAe?$AAx?$AAi?$AAt?$AAi?$AAn?$AAg?$AA?$AN?$AA?6?$AA?$AA@| [ DATA ] ; `string'
	EXPORT	|??_C@_1BC@BELJBPDP@?$AAP?$AAm?$AAN?$AAo?$AAt?$AAi?$AAf?$AAy?$AA?$AA@| [ DATA ] ; `string'
	EXPORT	|??_C@_1M@FKDMEONL@?$AA?9?$AA?$CF?$AAs?$AA?$AN?$AA?6?$AA?$AA@| [ DATA ] ; `string'
	EXPORT	|PmNotify|
	IMPORT	|DeleteProcessRequirements|
	IMPORT	|DeleteProcessNotifications|

  00010			 AREA	 |.pdata|, PDATA
|$pdata1$PmNotify| DCD imagerel |$LN14@PmNotify|
	DCD	0x3160ad

  00000			 AREA	 |.rdata|, DATA, READONLY
|??_C@_1M@FKDMEONL@?$AA?9?$AA?$CF?$AAs?$AA?$AN?$AA?6?$AA?$AA@| DCB "-", 0x0
	DCB	"%", 0x0, "s", 0x0, 0xd, 0x0, 0xa, 0x0, 0x0, 0x0 ; `string'

  00000			 AREA	 |.rdata|, DATA, READONLY
|??_C@_1BC@BELJBPDP@?$AAP?$AAm?$AAN?$AAo?$AAt?$AAi?$AAf?$AAy?$AA?$AA@| DCB "P"
	DCB	0x0, "m", 0x0, "N", 0x0, "o", 0x0, "t", 0x0, "i", 0x0, "f"
	DCB	0x0, "y", 0x0, 0x0, 0x0			; `string'

  00000			 AREA	 |.rdata|, DATA, READONLY
|??_C@_1DO@CKDJKBAK@?$AA?$CL?$AA?$CF?$AAs?$AA?3?$AA?5?$AAh?$AAP?$AAr?$AAo?$AAc?$AAe?$AAs?$AAs?$AA?5?$AA0?$AAx?$AA?$CF?$AA0?$AA8?$AAx?$AA?5?$AAe?$AAx?$AAi?$AAt?$AAi?$AAn?$AAg?$AA?$AN?$AA?6?$AA?$AA@| DCB "+"
	DCB	0x0, "%", 0x0, "s", 0x0, ":", 0x0, " ", 0x0, "h", 0x0, "P"
	DCB	0x0, "r", 0x0, "o", 0x0, "c", 0x0, "e", 0x0, "s", 0x0, "s"
	DCB	0x0, " ", 0x0, "0", 0x0, "x", 0x0, "%", 0x0, "0", 0x0, "8"
	DCB	0x0, "x", 0x0, " ", 0x0, "e", 0x0, "x", 0x0, "i", 0x0, "t"
	DCB	0x0, "i", 0x0, "n", 0x0, "g", 0x0, 0xd, 0x0, 0xa, 0x0, 0x0
	DCB	0x0					; `string'
; Function compile flags: /Ogsp
; File c:\wince800\platform\rrm_ppc_windows\src\drivers\pm\mdd\pminit.cpp

  00114			 AREA	 |.text|, CODE, THUMB

  00114		 |PmNotify| PROC

; 403  : {

  00114		 |$LN14@PmNotify|
  00114	e92d 4830	 push        {r4,r5,r11,lr}
  00118	f20d 0b08	 addw        r11,sp,#8
  0011c		 |$M12|
  0011c	460c		 mov         r4,r1

; 404  :     SETFNAME(_T("PmNotify"));
; 405  : 
; 406  :     UNREFERENCED_PARAMETER(hThread);
; 407  : 
; 408  :     switch(dwFlags) {

  0011e	bb10		 cbnz        r0,|$LN9@PmNotify|

; 409  :     case DLL_PROCESS_DETACH:
; 410  :         // release any resources held by this process
; 411  :         PMLOGMSG(ZONE_API, (_T("+%s: hProcess 0x%08x exiting\r\n"), pszFname, hProcess));

  00120	4d15		 ldr         r5,|$LN20@PmNotify| ; =|dpCurSettings|
  00122	f8d5 3440	 ldr         r3,[r5,#0x440]
  00126	f413 6f00	 tst         r3,#0x800
  0012a	d009		 beq         |$LN7@PmNotify|
  0012c	4811		 ldr         r0,|$LN19@PmNotify| ; =|??_C@_1DO@CKDJKBAK@?$AA?$CL?$AA?$CF?$AAs?$AA?3?$AA?5?$AAh?$AAP?$AAr?$AAo?$AAc?$AAe?$AAs?$AAs?$AA?5?$AA0?$AAx?$AA?$CF?$AA0?$AA8?$AAx?$AA?5?$AAe?$AAx?$AAi?$AAt?$AAi?$AAn?$AAg?$AA?$AN?$AA?6?$AA?$AA@|
  0012e	460a		 mov         r2,r1
  00130	490f		 ldr         r1,|$LN18@PmNotify| ; =|??_C@_1BC@BELJBPDP@?$AAP?$AAm?$AAN?$AAo?$AAt?$AAi?$AAf?$AAy?$AA?$AA@|
  00132	f000 f800	 bl          NKDbgPrintfW
  00136	490e		 ldr         r1,|$LN18@PmNotify| ; =|??_C@_1BC@BELJBPDP@?$AAP?$AAm?$AAN?$AAo?$AAt?$AAi?$AAf?$AAy?$AA?$AA@|
  00138	480e		 ldr         r0,|$LN19@PmNotify| ; =|??_C@_1DO@CKDJKBAK@?$AA?$CL?$AA?$CF?$AAs?$AA?3?$AA?5?$AAh?$AAP?$AAr?$AAo?$AAc?$AAe?$AAs?$AAs?$AA?5?$AA0?$AAx?$AA?$CF?$AA0?$AA8?$AAx?$AA?5?$AAe?$AAx?$AAi?$AAt?$AAi?$AAn?$AAg?$AA?$AN?$AA?6?$AA?$AA@|
  0013a	4622		 mov         r2,r4
  0013c	f000 f800	 bl          CeLogMsg
  00140		 |$LN7@PmNotify|

; 412  :         DeleteProcessRequirements(hProcess);

  00140	4620		 mov         r0,r4
  00142	f000 f800	 bl          DeleteProcessRequirements

; 413  :         DeleteProcessNotifications(hProcess);

  00146	4620		 mov         r0,r4
  00148	f000 f800	 bl          DeleteProcessNotifications

; 414  :         PMLOGMSG(ZONE_API, (_T("-%s\r\n"), pszFname));

  0014c	f8d5 3440	 ldr         r3,[r5,#0x440]
  00150	f413 6f00	 tst         r3,#0x800
  00154	d007		 beq         |$LN9@PmNotify|
  00156	4906		 ldr         r1,|$LN18@PmNotify| ; =|??_C@_1BC@BELJBPDP@?$AAP?$AAm?$AAN?$AAo?$AAt?$AAi?$AAf?$AAy?$AA?$AA@|
  00158	4804		 ldr         r0,|$LN17@PmNotify| ; =|??_C@_1M@FKDMEONL@?$AA?9?$AA?$CF?$AAs?$AA?$AN?$AA?6?$AA?$AA@|
  0015a	f000 f800	 bl          NKDbgPrintfW
  0015e	4904		 ldr         r1,|$LN18@PmNotify| ; =|??_C@_1BC@BELJBPDP@?$AAP?$AAm?$AAN?$AAo?$AAt?$AAi?$AAf?$AAy?$AA?$AA@|
  00160	4802		 ldr         r0,|$LN17@PmNotify| ; =|??_C@_1M@FKDMEONL@?$AA?9?$AA?$CF?$AAs?$AA?$AN?$AA?6?$AA?$AA@|
  00162	f000 f800	 bl          CeLogMsg
  00166		 |$LN9@PmNotify|
  00166		 |$M15|

; 415  :         break;
; 416  :     default:
; 417  :         break;
; 418  :     }
; 419  : }

  00166	e8bd 8830	 pop         {r4,r5,r11,pc}
  0016a		 |$LN21@PmNotify|
  0016a		 |$M22|
  0016a	defe		 __debugbreak
  0016c		 |$LN16@PmNotify|
  0016c		 |$LN17@PmNotify|
  0016c	0000 0000	 DCD         |??_C@_1M@FKDMEONL@?$AA?9?$AA?$CF?$AAs?$AA?$AN?$AA?6?$AA?$AA@|
  00170		 |$LN18@PmNotify|
  00170	0000 0000	 DCD         |??_C@_1BC@BELJBPDP@?$AAP?$AAm?$AAN?$AAo?$AAt?$AAi?$AAf?$AAy?$AA?$AA@|
  00174		 |$LN19@PmNotify|
  00174	0000 0000	 DCD         |??_C@_1DO@CKDJKBAK@?$AA?$CL?$AA?$CF?$AAs?$AA?3?$AA?5?$AAh?$AAP?$AAr?$AAo?$AAc?$AAe?$AAs?$AAs?$AA?5?$AA0?$AAx?$AA?$CF?$AA0?$AA8?$AAx?$AA?5?$AAe?$AAx?$AAi?$AAt?$AAi?$AAn?$AAg?$AA?$AN?$AA?6?$AA?$AA@|
  00178		 |$LN20@PmNotify|
  00178	0000 0000	 DCD         |dpCurSettings|
  0017c		 |$M13|

			 ENDP  ; |PmNotify|

	EXPORT	|??_C@_1BM@OBHJEKIL@?$AA?$CF?$AAs?$AA?2?$AAI?$AAn?$AAt?$AAe?$AAr?$AAf?$AAa?$AAc?$AAe?$AAs?$AA?$AA@| [ DATA ] ; `string'
	EXPORT	|??_C@_1EO@PFEFPDAL@?$AAS?$AAY?$AAS?$AAT?$AAE?$AAM?$AA?2?$AAC?$AAu?$AAr?$AAr?$AAe?$AAn?$AAt?$AAC?$AAo?$AAn?$AAt?$AAr?$AAo?$AAl?$AAS?$AAe?$AAt?$AA?2?$AAC?$AAo?$AAn?$AAt?$AAr?$AAo?$AAl@| [ DATA ] ; `string'
	EXPORT	|??_C@_1FK@FNONLNGN@?$AA?$CF?$AAs?$AA?3?$AA?5?$AAD?$AAE?$AAB?$AAU?$AAG?$AAC?$AAH?$AAK?$AA?5?$AAf?$AAa?$AAi?$AAl?$AAe?$AAd?$AA?5?$AAi?$AAn?$AA?5?$AAf?$AAi?$AAl?$AAe?$AA?5?$AA?$CF?$AAs?$AA?5?$AAa@| [ DATA ] ; `string'
	EXPORT	|??_C@_1BA@LEPJIIOK@?$AAU?$AAn?$AAk?$AAn?$AAo?$AAw?$AAn?$AA?$AA@| [ DATA ] ; `string'
	EXPORT	|??_C@_1IG@GFJFBGDJ@?$AAc?$AA?3?$AA?2?$AAw?$AAi?$AAn?$AAc?$AAe?$AA8?$AA0?$AA0?$AA?2?$AAp?$AAl?$AAa?$AAt?$AAf?$AAo?$AAr?$AAm?$AA?2?$AAr?$AAr?$AAm?$AA_?$AAp?$AAp?$AAc?$AA_?$AAw?$AAi?$AAn@| [ DATA ] ; `string'
	EXPORT	|??_C@_1EE@DAMLNPFA@?$AA?$CF?$AAs?$AA?3?$AA?5?$AAi?$AAn?$AAv?$AAa?$AAl?$AAi?$AAd?$AA?5?$AAt?$AAy?$AAp?$AAe?$AA?5?$AAf?$AAo?$AAr?$AA?5?$AAv?$AAa?$AAl?$AAu?$AAe?$AA?5?$AA?8?$AA?$CF?$AAs?$AA?8?$AA?$AN@| [ DATA ] ; `string'
	EXPORT	|??_C@_1CA@CAGDLEBG@?$AAD?$AAe?$AAv?$AAi?$AAc?$AAe?$AAL?$AAi?$AAs?$AAt?$AAs?$AAI?$AAn?$AAi?$AAt?$AA?$AA@| [ DATA ] ; `string'
	EXPORT	|??_C@_1EC@OJCNELMO@?$AA?$CF?$AAs?$AA?3?$AA?5?$AAc?$AAa?$AAn?$AA?8?$AAt?$AA?5?$AAc?$AAo?$AAn?$AAv?$AAe?$AAr?$AAt?$AA?5?$AA?8?$AA?$CF?$AAs?$AA?8?$AA?5?$AAt?$AAo?$AA?5?$AAG?$AAU?$AAI?$AAD?$AA?$AN?$AA?6@| [ DATA ] ; `string'
	EXPORT	|??_C@_1GC@HMMKDNKJ@?$AA?$CF?$AAs?$AA?3?$AA?5?$AAd?$AAe?$AAf?$AAa?$AAu?$AAl?$AAt?$AA?5?$AAG?$AAU?$AAI?$AAD?$AA?5?$AAf?$AAo?$AAu?$AAn?$AAd?$AA?5?$AAi?$AAn?$AA?5?$AAr?$AAe?$AAg?$AAi?$AAs?$AAt@| [ DATA ] ; `string'
	EXPORT	|??_C@_1EA@IPLGNFH@?$AA?$CF?$AAs?$AA?3?$AA?5?$AAD?$AAe?$AAv?$AAi?$AAc?$AAe?$AAL?$AAi?$AAs?$AAt?$AAC?$AAr?$AAe?$AAa?$AAt?$AAe?$AA?$CI?$AA?$CJ?$AA?5?$AAf?$AAa?$AAi?$AAl?$AAe?$AAd?$AA?$AN?$AA?6?$AA?$AA@| [ DATA ] ; `string'
	EXPORT	|??_C@_1EM@FNHBJNHN@?$AA?$CF?$AAs?$AA?3?$AA?5?$AAP?$AAl?$AAa?$AAt?$AAf?$AAo?$AAr?$AAm?$AAD?$AAe?$AAv?$AAi?$AAc?$AAe?$AAL?$AAi?$AAs?$AAt?$AAI?$AAn?$AAi?$AAt?$AA?$CI?$AA?$CJ?$AA?5?$AAf?$AAa?$AAi@| [ DATA ] ; `string'
	EXPORT	|??_C@_1HA@PHCGCLLJ@?$AA?$CF?$AAs?$AA?3?$AA?5?$AAP?$AAl?$AAa?$AAt?$AAf?$AAo?$AAr?$AAm?$AAD?$AAe?$AAv?$AAi?$AAc?$AAe?$AAL?$AAi?$AAs?$AAt?$AAI?$AAn?$AAi?$AAt?$AA?$CI?$AA?$CJ?$AA?5?$AAf?$AAa?$AAi@| [ DATA ] ; `string'
	EXPORT	|??_C@_1EO@FIGOIHNC@?$AA?$CF?$AAs?$AA?3?$AA?5?$AAe?$AAr?$AAr?$AAo?$AAr?$AA?5?$AAd?$AAu?$AAr?$AAi?$AAn?$AAg?$AA?5?$AAl?$AAi?$AAs?$AAt?$AA?5?$AAi?$AAn?$AAi?$AAt?$AAi?$AAa?$AAl?$AAi?$AAz?$AAa@| [ DATA ] ; `string'
	EXPORT	|?DeviceListsInit@@YAHXZ|		; DeviceListsInit
	IMPORT	|StringCchPrintfW|
	IMPORT	|RegOpenKeyExW|
	IMPORT	|RegEnumValueW|
	IMPORT	|ConvertStringToGuid|
	IMPORT	|DeviceListCreate|
	IMPORT	|PlatformDeviceListInit|
	IMPORT	|DeviceListDestroy|
	IMPORT	|RegCloseKey|

  00018			 AREA	 |.pdata|, PDATA
|$pdata1$?DeviceListsInit@@YAHXZ| DCD imagerel |$LN65@DeviceList|
	DCD	imagerel |$unwind2$?DeviceListsInit@@YAHXZ|

  0001c			 AREA	 |.xdata|, DATA
	%	4
|$unwind2$?DeviceListsInit@@YAHXZ| DCD 0x33b000ec
	DCD	0x1e88ee8
	DCD	0xe8ffdffc
	DCD	0xffdf01
	DCD	imagerel |__GSHandlerCheck|
	DCD	0xffffffd9

  00000			 AREA	 |.rdata|, DATA, READONLY
|??_C@_1EO@FIGOIHNC@?$AA?$CF?$AAs?$AA?3?$AA?5?$AAe?$AAr?$AAr?$AAo?$AAr?$AA?5?$AAd?$AAu?$AAr?$AAi?$AAn?$AAg?$AA?5?$AAl?$AAi?$AAs?$AAt?$AA?5?$AAi?$AAn?$AAi?$AAt?$AAi?$AAa?$AAl?$AAi?$AAz?$AAa@| DCB "%"
	DCB	0x0, "s", 0x0, ":", 0x0, " ", 0x0, "e", 0x0, "r", 0x0, "r"
	DCB	0x0, "o", 0x0, "r", 0x0, " ", 0x0, "d", 0x0, "u", 0x0, "r"
	DCB	0x0, "i", 0x0, "n", 0x0, "g", 0x0, " ", 0x0, "l", 0x0, "i"
	DCB	0x0, "s", 0x0, "t", 0x0, " ", 0x0, "i", 0x0, "n", 0x0, "i"
	DCB	0x0, "t", 0x0, "i", 0x0, "a", 0x0, "l", 0x0, "i", 0x0, "z"
	DCB	0x0, "a", 0x0, "t", 0x0, "i", 0x0, "o", 0x0, "n", 0x0, 0xd
	DCB	0x0, 0xa, 0x0, 0x0, 0x0			; `string'

  00000			 AREA	 |.rdata|, DATA, READONLY
|??_C@_1HA@PHCGCLLJ@?$AA?$CF?$AAs?$AA?3?$AA?5?$AAP?$AAl?$AAa?$AAt?$AAf?$AAo?$AAr?$AAm?$AAD?$AAe?$AAv?$AAi?$AAc?$AAe?$AAL?$AAi?$AAs?$AAt?$AAI?$AAn?$AAi?$AAt?$AA?$CI?$AA?$CJ?$AA?5?$AAf?$AAa?$AAi@| DCB "%"
	DCB	0x0, "s", 0x0, ":", 0x0, " ", 0x0, "P", 0x0, "l", 0x0, "a"
	DCB	0x0, "t", 0x0, "f", 0x0, "o", 0x0, "r", 0x0, "m", 0x0, "D"
	DCB	0x0, "e", 0x0, "v", 0x0, "i", 0x0, "c", 0x0, "e", 0x0, "L"
	DCB	0x0, "i", 0x0, "s", 0x0, "t", 0x0, "I", 0x0, "n", 0x0, "i"
	DCB	0x0, "t", 0x0, "(", 0x0, ")", 0x0, " ", 0x0, "f", 0x0, "a"
	DCB	0x0, "i", 0x0, "l", 0x0, "e", 0x0, "d", 0x0, " ", 0x0, "f"
	DCB	0x0, "o", 0x0, "r", 0x0, " ", 0x0, "d", 0x0, "e", 0x0, "f"
	DCB	0x0, "a", 0x0, "u", 0x0, "l", 0x0, "t", 0x0, " ", 0x0, "c"
	DCB	0x0, "l", 0x0, "a", 0x0, "s", 0x0, "s", 0x0, 0xd, 0x0, 0xa
	DCB	0x0, 0x0, 0x0				; `string'

  00000			 AREA	 |.rdata|, DATA, READONLY
|??_C@_1EM@FNHBJNHN@?$AA?$CF?$AAs?$AA?3?$AA?5?$AAP?$AAl?$AAa?$AAt?$AAf?$AAo?$AAr?$AAm?$AAD?$AAe?$AAv?$AAi?$AAc?$AAe?$AAL?$AAi?$AAs?$AAt?$AAI?$AAn?$AAi?$AAt?$AA?$CI?$AA?$CJ?$AA?5?$AAf?$AAa?$AAi@| DCB "%"
	DCB	0x0, "s", 0x0, ":", 0x0, " ", 0x0, "P", 0x0, "l", 0x0, "a"
	DCB	0x0, "t", 0x0, "f", 0x0, "o", 0x0, "r", 0x0, "m", 0x0, "D"
	DCB	0x0, "e", 0x0, "v", 0x0, "i", 0x0, "c", 0x0, "e", 0x0, "L"
	DCB	0x0, "i", 0x0, "s", 0x0, "t", 0x0, "I", 0x0, "n", 0x0, "i"
	DCB	0x0, "t", 0x0, "(", 0x0, ")", 0x0, " ", 0x0, "f", 0x0, "a"
	DCB	0x0, "i", 0x0, "l", 0x0, "e", 0x0, "d", 0x0, 0xd, 0x0, 0xa
	DCB	0x0, 0x0, 0x0				; `string'

  00000			 AREA	 |.rdata|, DATA, READONLY
|??_C@_1EA@IPLGNFH@?$AA?$CF?$AAs?$AA?3?$AA?5?$AAD?$AAe?$AAv?$AAi?$AAc?$AAe?$AAL?$AAi?$AAs?$AAt?$AAC?$AAr?$AAe?$AAa?$AAt?$AAe?$AA?$CI?$AA?$CJ?$AA?5?$AAf?$AAa?$AAi?$AAl?$AAe?$AAd?$AA?$AN?$AA?6?$AA?$AA@| DCB "%"
	DCB	0x0, "s", 0x0, ":", 0x0, " ", 0x0, "D", 0x0, "e", 0x0, "v"
	DCB	0x0, "i", 0x0, "c", 0x0, "e", 0x0, "L", 0x0, "i", 0x0, "s"
	DCB	0x0, "t", 0x0, "C", 0x0, "r", 0x0, "e", 0x0, "a", 0x0, "t"
	DCB	0x0, "e", 0x0, "(", 0x0, ")", 0x0, " ", 0x0, "f", 0x0, "a"
	DCB	0x0, "i", 0x0, "l", 0x0, "e", 0x0, "d", 0x0, 0xd, 0x0, 0xa
	DCB	0x0, 0x0, 0x0				; `string'

  00000			 AREA	 |.rdata|, DATA, READONLY
|??_C@_1GC@HMMKDNKJ@?$AA?$CF?$AAs?$AA?3?$AA?5?$AAd?$AAe?$AAf?$AAa?$AAu?$AAl?$AAt?$AA?5?$AAG?$AAU?$AAI?$AAD?$AA?5?$AAf?$AAo?$AAu?$AAn?$AAd?$AA?5?$AAi?$AAn?$AA?5?$AAr?$AAe?$AAg?$AAi?$AAs?$AAt@| DCB "%"
	DCB	0x0, "s", 0x0, ":", 0x0, " ", 0x0, "d", 0x0, "e", 0x0, "f"
	DCB	0x0, "a", 0x0, "u", 0x0, "l", 0x0, "t", 0x0, " ", 0x0, "G"
	DCB	0x0, "U", 0x0, "I", 0x0, "D", 0x0, " ", 0x0, "f", 0x0, "o"
	DCB	0x0, "u", 0x0, "n", 0x0, "d", 0x0, " ", 0x0, "i", 0x0, "n"
	DCB	0x0, " ", 0x0, "r", 0x0, "e", 0x0, "g", 0x0, "i", 0x0, "s"
	DCB	0x0, "t", 0x0, "r", 0x0, "y", 0x0, " ", 0x0, "a", 0x0, "s"
	DCB	0x0, " ", 0x0, "e", 0x0, "x", 0x0, "p", 0x0, "e", 0x0, "c"
	DCB	0x0, "t", 0x0, "e", 0x0, "d", 0x0, 0xd, 0x0, 0xa, 0x0, 0x0
	DCB	0x0					; `string'

  00000			 AREA	 |.rdata|, DATA, READONLY
|??_C@_1EC@OJCNELMO@?$AA?$CF?$AAs?$AA?3?$AA?5?$AAc?$AAa?$AAn?$AA?8?$AAt?$AA?5?$AAc?$AAo?$AAn?$AAv?$AAe?$AAr?$AAt?$AA?5?$AA?8?$AA?$CF?$AAs?$AA?8?$AA?5?$AAt?$AAo?$AA?5?$AAG?$AAU?$AAI?$AAD?$AA?$AN?$AA?6@| DCB "%"
	DCB	0x0, "s", 0x0, ":", 0x0, " ", 0x0, "c", 0x0, "a", 0x0, "n"
	DCB	0x0, "'", 0x0, "t", 0x0, " ", 0x0, "c", 0x0, "o", 0x0, "n"
	DCB	0x0, "v", 0x0, "e", 0x0, "r", 0x0, "t", 0x0, " ", 0x0, "'"
	DCB	0x0, "%", 0x0, "s", 0x0, "'", 0x0, " ", 0x0, "t", 0x0, "o"
	DCB	0x0, " ", 0x0, "G", 0x0, "U", 0x0, "I", 0x0, "D", 0x0, 0xd
	DCB	0x0, 0xa, 0x0, 0x0, 0x0			; `string'

  00000			 AREA	 |.rdata|, DATA, READONLY
|??_C@_1CA@CAGDLEBG@?$AAD?$AAe?$AAv?$AAi?$AAc?$AAe?$AAL?$AAi?$AAs?$AAt?$AAs?$AAI?$AAn?$AAi?$AAt?$AA?$AA@| DCB "D"
	DCB	0x0, "e", 0x0, "v", 0x0, "i", 0x0, "c", 0x0, "e", 0x0, "L"
	DCB	0x0, "i", 0x0, "s", 0x0, "t", 0x0, "s", 0x0, "I", 0x0, "n"
	DCB	0x0, "i", 0x0, "t", 0x0, 0x0, 0x0	; `string'

  00000			 AREA	 |.rdata|, DATA, READONLY
|??_C@_1EE@DAMLNPFA@?$AA?$CF?$AAs?$AA?3?$AA?5?$AAi?$AAn?$AAv?$AAa?$AAl?$AAi?$AAd?$AA?5?$AAt?$AAy?$AAp?$AAe?$AA?5?$AAf?$AAo?$AAr?$AA?5?$AAv?$AAa?$AAl?$AAu?$AAe?$AA?5?$AA?8?$AA?$CF?$AAs?$AA?8?$AA?$AN@| DCB "%"
	DCB	0x0, "s", 0x0, ":", 0x0, " ", 0x0, "i", 0x0, "n", 0x0, "v"
	DCB	0x0, "a", 0x0, "l", 0x0, "i", 0x0, "d", 0x0, " ", 0x0, "t"
	DCB	0x0, "y", 0x0, "p", 0x0, "e", 0x0, " ", 0x0, "f", 0x0, "o"
	DCB	0x0, "r", 0x0, " ", 0x0, "v", 0x0, "a", 0x0, "l", 0x0, "u"
	DCB	0x0, "e", 0x0, " ", 0x0, "'", 0x0, "%", 0x0, "s", 0x0, "'"
	DCB	0x0, 0xd, 0x0, 0xa, 0x0, 0x0, 0x0	; `string'

  00000			 AREA	 |.rdata|, DATA, READONLY
|??_C@_1IG@GFJFBGDJ@?$AAc?$AA?3?$AA?2?$AAw?$AAi?$AAn?$AAc?$AAe?$AA8?$AA0?$AA0?$AA?2?$AAp?$AAl?$AAa?$AAt?$AAf?$AAo?$AAr?$AAm?$AA?2?$AAr?$AAr?$AAm?$AA_?$AAp?$AAp?$AAc?$AA_?$AAw?$AAi?$AAn@| DCB "c"
	DCB	0x0, ":", 0x0, "\\", 0x0, "w", 0x0, "i", 0x0, "n", 0x0, "c"
	DCB	0x0, "e", 0x0, "8", 0x0, "0", 0x0, "0", 0x0, "\\", 0x0, "p"
	DCB	0x0, "l", 0x0, "a", 0x0, "t", 0x0, "f", 0x0, "o", 0x0, "r"
	DCB	0x0, "m", 0x0, "\\", 0x0, "r", 0x0, "r", 0x0, "m", 0x0, "_"
	DCB	0x0, "p", 0x0, "p", 0x0, "c", 0x0, "_", 0x0, "w", 0x0, "i"
	DCB	0x0, "n", 0x0, "d", 0x0, "o", 0x0, "w", 0x0, "s", 0x0, "\\"
	DCB	0x0, "s", 0x0, "r", 0x0, "c", 0x0, "\\", 0x0, "d", 0x0, "r"
	DCB	0x0, "i", 0x0, "v", 0x0, "e", 0x0, "r", 0x0, "s", 0x0, "\\"
	DCB	0x0, "p", 0x0, "m", 0x0, "\\", 0x0, "m", 0x0, "d", 0x0, "d"
	DCB	0x0, "\\", 0x0, "p", 0x0, "m", 0x0, "i", 0x0, "n", 0x0, "i"
	DCB	0x0, "t", 0x0, ".", 0x0, "c", 0x0, "p", 0x0, "p", 0x0, 0x0
	DCB	0x0					; `string'

  00000			 AREA	 |.rdata|, DATA, READONLY
|??_C@_1BA@LEPJIIOK@?$AAU?$AAn?$AAk?$AAn?$AAo?$AAw?$AAn?$AA?$AA@| DCB "U", 0x0
	DCB	"n", 0x0, "k", 0x0, "n", 0x0, "o", 0x0, "w", 0x0, "n", 0x0
	DCB	0x0, 0x0				; `string'

  00000			 AREA	 |.rdata|, DATA, READONLY
|??_C@_1FK@FNONLNGN@?$AA?$CF?$AAs?$AA?3?$AA?5?$AAD?$AAE?$AAB?$AAU?$AAG?$AAC?$AAH?$AAK?$AA?5?$AAf?$AAa?$AAi?$AAl?$AAe?$AAd?$AA?5?$AAi?$AAn?$AA?5?$AAf?$AAi?$AAl?$AAe?$AA?5?$AA?$CF?$AAs?$AA?5?$AAa@| DCB "%"
	DCB	0x0, "s", 0x0, ":", 0x0, " ", 0x0, "D", 0x0, "E", 0x0, "B"
	DCB	0x0, "U", 0x0, "G", 0x0, "C", 0x0, "H", 0x0, "K", 0x0, " "
	DCB	0x0, "f", 0x0, "a", 0x0, "i", 0x0, "l", 0x0, "e", 0x0, "d"
	DCB	0x0, " ", 0x0, "i", 0x0, "n", 0x0, " ", 0x0, "f", 0x0, "i"
	DCB	0x0, "l", 0x0, "e", 0x0, " ", 0x0, "%", 0x0, "s", 0x0, " "
	DCB	0x0, "a", 0x0, "t", 0x0, " ", 0x0, "l", 0x0, "i", 0x0, "n"
	DCB	0x0, "e", 0x0, " ", 0x0, "%", 0x0, "d", 0x0, " ", 0x0, 0xd
	DCB	0x0, 0xa, 0x0, 0x0, 0x0			; `string'

  00000			 AREA	 |.rdata|, DATA, READONLY
|??_C@_1EO@PFEFPDAL@?$AAS?$AAY?$AAS?$AAT?$AAE?$AAM?$AA?2?$AAC?$AAu?$AAr?$AAr?$AAe?$AAn?$AAt?$AAC?$AAo?$AAn?$AAt?$AAr?$AAo?$AAl?$AAS?$AAe?$AAt?$AA?2?$AAC?$AAo?$AAn?$AAt?$AAr?$AAo?$AAl@| DCB "S"
	DCB	0x0, "Y", 0x0, "S", 0x0, "T", 0x0, "E", 0x0, "M", 0x0, "\\"
	DCB	0x0, "C", 0x0, "u", 0x0, "r", 0x0, "r", 0x0, "e", 0x0, "n"
	DCB	0x0, "t", 0x0, "C", 0x0, "o", 0x0, "n", 0x0, "t", 0x0, "r"
	DCB	0x0, "o", 0x0, "l", 0x0, "S", 0x0, "e", 0x0, "t", 0x0, "\\"
	DCB	0x0, "C", 0x0, "o", 0x0, "n", 0x0, "t", 0x0, "r", 0x0, "o"
	DCB	0x0, "l", 0x0, "\\", 0x0, "P", 0x0, "o", 0x0, "w", 0x0, "e"
	DCB	0x0, "r", 0x0, 0x0, 0x0			; `string'

  00000			 AREA	 |.rdata|, DATA, READONLY
|??_C@_1BM@OBHJEKIL@?$AA?$CF?$AAs?$AA?2?$AAI?$AAn?$AAt?$AAe?$AAr?$AAf?$AAa?$AAc?$AAe?$AAs?$AA?$AA@| DCB "%"
	DCB	0x0, "s", 0x0, "\\", 0x0, "I", 0x0, "n", 0x0, "t", 0x0, "e"
	DCB	0x0, "r", 0x0, "f", 0x0, "a", 0x0, "c", 0x0, "e", 0x0, "s"
	DCB	0x0, 0x0, 0x0				; `string'
; Function compile flags: /Ogsp
; File c:\wince800\platform\rrm_ppc_windows\src\drivers\pm\mdd\pminit.cpp
; File c:\wince800\public\common\sdk\inc\guiddef.h
; File c:\wince800\platform\rrm_ppc_windows\src\drivers\pm\mdd\pminit.cpp

  0017c			 AREA	 |.text|, CODE, THUMB

  0017c		 |?DeviceListsInit@@YAHXZ| PROC		; DeviceListsInit

; 97   : {

  0017c		 |$LN65@DeviceList|
  0017c	e92d 4ff0	 push        {r4-r11,lr}
  00180	f20d 0b1c	 addw        r11,sp,#0x1C
  00184	f000 f800	 bl          __security_push_cookie
  00188	f2ad 2d38	 subw        sp,sp,#0x238
  0018c		 |$M63|

; 98   :     BOOL fOk = TRUE;
; 99   :     PDEVICE_LIST pdl;
; 100  :     DWORD dwStatus;
; 101  :     HKEY hk;
; 102  :     TCHAR szBuf[MAX_PATH];
; 103  :     SETFNAME(_T("DeviceListsInit"));
; 104  : 
; 105  :     // enumerate all the device classes
; 106  :     VERIFY(SUCCEEDED(StringCchPrintf(szBuf,_countof(szBuf), _T("%s\\Interfaces"), PWRMGR_REG_KEY)));

  0018c	4b80		 ldr         r3,|$LN83@DeviceList| ; =|??_C@_1EO@PFEFPDAL@?$AAS?$AAY?$AAS?$AAT?$AAE?$AAM?$AA?2?$AAC?$AAu?$AAr?$AAr?$AAe?$AAn?$AAt?$AAC?$AAo?$AAn?$AAt?$AAr?$AAo?$AAl?$AAS?$AAe?$AAt?$AA?2?$AAC?$AAo?$AAn?$AAt?$AAr?$AAo?$AAl@|
  0018e	4a7f		 ldr         r2,|$LN82@DeviceList| ; =|??_C@_1BM@OBHJEKIL@?$AA?$CF?$AAs?$AA?2?$AAI?$AAn?$AAt?$AAe?$AAr?$AAf?$AAa?$AAc?$AAe?$AAs?$AA?$AA@|
  00190	f44f 7882	 mov         r8,#0x104
  00194	4641		 mov         r1,r8
  00196	a80c		 add         r0,sp,#0x30
  00198	2601		 movs        r6,#1
  0019a	f000 f800	 bl          StringCchPrintfW
  0019e	2800		 cmp         r0,#0
  001a0	da06		 bge         |$LN27@DeviceList|
  001a2	4a79		 ldr         r2,|$LN81@DeviceList| ; =|??_C@_1IG@GFJFBGDJ@?$AAc?$AA?3?$AA?2?$AAw?$AAi?$AAn?$AAc?$AAe?$AA8?$AA0?$AA0?$AA?2?$AAp?$AAl?$AAa?$AAt?$AAf?$AAo?$AAr?$AAm?$AA?2?$AAr?$AAr?$AAm?$AA_?$AAp?$AAp?$AAc?$AA_?$AAw?$AAi?$AAn@|
  001a4	4977		 ldr         r1,|$LN80@DeviceList| ; =|??_C@_1BA@LEPJIIOK@?$AAU?$AAn?$AAk?$AAn?$AAo?$AAw?$AAn?$AA?$AA@|
  001a6	4876		 ldr         r0,|$LN79@DeviceList| ; =|??_C@_1FK@FNONLNGN@?$AA?$CF?$AAs?$AA?3?$AA?5?$AAD?$AAE?$AAB?$AAU?$AAG?$AAC?$AAH?$AAK?$AA?5?$AAf?$AAa?$AAi?$AAl?$AAe?$AAd?$AA?5?$AAi?$AAn?$AA?5?$AAf?$AAi?$AAl?$AAe?$AA?5?$AA?$CF?$AAs?$AA?5?$AAa@|
  001a8	236a		 movs        r3,#0x6A
  001aa	f000 f800	 bl          NKDbgPrintfW
  001ae	defe		 __debugbreak
  001b0		 |$LN27@DeviceList|

; 107  :     dwStatus = RegOpenKeyEx(HKEY_LOCAL_MACHINE, szBuf, 0, 0, &hk);

  001b0	ab04		 add         r3,sp,#0x10
  001b2	9300		 str         r3,[sp]
  001b4	2301		 movs        r3,#1
  001b6	07d8		 lsls        r0,r3,#0x1F
  001b8	3002		 adds        r0,#2
  001ba	a90c		 add         r1,sp,#0x30
  001bc	2300		 movs        r3,#0
  001be	2200		 movs        r2,#0
  001c0	f000 f800	 bl          RegOpenKeyExW

; 108  :     if(dwStatus == ERROR_SUCCESS) {

  001c4	4d6d		 ldr         r5,|$LN78@DeviceList| ; =|gpDeviceLists|
  001c6	4f6c		 ldr         r7,|$LN77@DeviceList| ; =|dpCurSettings|
  001c8	2400		 movs        r4,#0
  001ca	2800		 cmp         r0,#0
  001cc	f040 8083	 bne         |$LN55@DeviceList|

; 109  :         DWORD dwIndex = 0;

  001d0	f04f 0900	 mov         r9,#0
  001d4	f10d 0a14	 add         r10,sp,#0x14
  001d8		 |$LL22@DeviceList|

; 110  :         do {
; 111  :             DWORD cbValueName = _countof(szBuf), dwType;
; 112  :             GUID idInterface;
; 113  : 
; 114  :             dwStatus = RegEnumValue(hk, dwIndex, szBuf, &cbValueName, NULL,
; 115  :                 &dwType, NULL, NULL);

  001d8	9804		 ldr         r0,[sp,#0x10]
  001da	ab06		 add         r3,sp,#0x18
  001dc	aa0c		 add         r2,sp,#0x30
  001de	4649		 mov         r1,r9
  001e0	f8cd 8018	 str         r8,[sp,#0x18]
  001e4	9403		 str         r4,[sp,#0xC]
  001e6	9402		 str         r4,[sp,#8]
  001e8	f8cd a004	 str         r10,[sp,#4]
  001ec	9400		 str         r4,[sp]
  001ee	f000 f800	 bl          RegEnumValueW

; 116  :             if(dwStatus == ERROR_SUCCESS) {

  001f2	2800		 cmp         r0,#0
  001f4	d166		 bne         |$LN54@DeviceList|

; 117  :                 if(dwType != REG_SZ) {

  001f6	9b05		 ldr         r3,[sp,#0x14]
  001f8	2b01		 cmp         r3,#1
  001fa	d00b		 beq         |$LN18@DeviceList|

; 118  :                     PMLOGMSG(ZONE_WARN, (_T("%s: invalid type for value '%s'\r\n"),
; 119  :                         pszFname, szBuf));

  001fc	f8d7 3440	 ldr         r3,[r7,#0x440]
  00200	f013 0f02	 tst         r3,#2
  00204	d05b		 beq         |$LN9@DeviceList|
  00206	4954		 ldr         r1,|$LN69@DeviceList| ; =|??_C@_1CA@CAGDLEBG@?$AAD?$AAe?$AAv?$AAi?$AAc?$AAe?$AAL?$AAi?$AAs?$AAt?$AAs?$AAI?$AAn?$AAi?$AAt?$AA?$AA@|
  00208	485a		 ldr         r0,|$LN76@DeviceList| ; =|??_C@_1EE@DAMLNPFA@?$AA?$CF?$AAs?$AA?3?$AA?5?$AAi?$AAn?$AAv?$AAa?$AAl?$AAi?$AAd?$AA?5?$AAt?$AAy?$AAp?$AAe?$AA?5?$AAf?$AAo?$AAr?$AA?5?$AAv?$AAa?$AAl?$AAu?$AAe?$AA?5?$AA?8?$AA?$CF?$AAs?$AA?8?$AA?$AN@|
  0020a	aa0c		 add         r2,sp,#0x30
  0020c	f000 f800	 bl          NKDbgPrintfW
  00210	4858		 ldr         r0,|$LN76@DeviceList| ; =|??_C@_1EE@DAMLNPFA@?$AA?$CF?$AAs?$AA?3?$AA?5?$AAi?$AAn?$AAv?$AAa?$AAl?$AAi?$AAd?$AA?5?$AAt?$AAy?$AAp?$AAe?$AA?5?$AAf?$AAo?$AAr?$AA?5?$AAv?$AAa?$AAl?$AAu?$AAe?$AA?5?$AA?8?$AA?$CF?$AAs?$AA?8?$AA?$AN@|

; 120  :                 } else if(!ConvertStringToGuid(szBuf, &idInterface)) {

  00212	e00f		 b           |$LN61@DeviceList|
  00214		 |$LN18@DeviceList|
  00214	a908		 add         r1,sp,#0x20
  00216	a80c		 add         r0,sp,#0x30
  00218	f000 f800	 bl          ConvertStringToGuid
  0021c	b978		 cbnz        r0,|$LN16@DeviceList|

; 121  :                     PMLOGMSG(ZONE_WARN, (_T("%s: can't convert '%s' to GUID\r\n"),
; 122  :                         pszFname, szBuf));

  0021e	f8d7 3440	 ldr         r3,[r7,#0x440]
  00222	f013 0f02	 tst         r3,#2
  00226	d04a		 beq         |$LN9@DeviceList|
  00228	494b		 ldr         r1,|$LN69@DeviceList| ; =|??_C@_1CA@CAGDLEBG@?$AAD?$AAe?$AAv?$AAi?$AAc?$AAe?$AAL?$AAi?$AAs?$AAt?$AAs?$AAI?$AAn?$AAi?$AAt?$AA?$AA@|
  0022a	4851		 ldr         r0,|$LN75@DeviceList| ; =|??_C@_1EC@OJCNELMO@?$AA?$CF?$AAs?$AA?3?$AA?5?$AAc?$AAa?$AAn?$AA?8?$AAt?$AA?5?$AAc?$AAo?$AAn?$AAv?$AAe?$AAr?$AAt?$AA?5?$AA?8?$AA?$CF?$AAs?$AA?8?$AA?5?$AAt?$AAo?$AA?5?$AAG?$AAU?$AAI?$AAD?$AA?$AN?$AA?6@|
  0022c	aa0c		 add         r2,sp,#0x30
  0022e	f000 f800	 bl          NKDbgPrintfW
  00232	484f		 ldr         r0,|$LN75@DeviceList| ; =|??_C@_1EC@OJCNELMO@?$AA?$CF?$AAs?$AA?3?$AA?5?$AAc?$AAa?$AAn?$AA?8?$AAt?$AA?5?$AAc?$AAo?$AAn?$AAv?$AAe?$AAr?$AAt?$AA?5?$AA?8?$AA?$CF?$AAs?$AA?8?$AA?5?$AAt?$AAo?$AA?5?$AAG?$AAU?$AAI?$AAD?$AA?$AN?$AA?6@|
  00234		 |$LN61@DeviceList|
  00234	4948		 ldr         r1,|$LN69@DeviceList| ; =|??_C@_1CA@CAGDLEBG@?$AAD?$AAe?$AAv?$AAi?$AAc?$AAe?$AAL?$AAi?$AAs?$AAt?$AAs?$AAI?$AAn?$AAi?$AAt?$AA?$AA@|
  00236	aa0c		 add         r2,sp,#0x30
  00238	f000 f800	 bl          CeLogMsg

; 123  :                 } else if(idInterface == idGenericPMDeviceClass) {

  0023c	e03f		 b           |$LN9@DeviceList|
  0023e		 |$LN16@DeviceList|
; File c:\wince800\public\common\sdk\inc\guiddef.h

; 150  :     return !memcmp(&rguid1, &rguid2, sizeof(GUID));

  0023e	4948		 ldr         r1,|$LN71@DeviceList| ; =|idGenericPMDeviceClass|
  00240	2210		 movs        r2,#0x10
  00242	a808		 add         r0,sp,#0x20
  00244	f000 f800	 bl          memcmp
  00248	b968		 cbnz        r0,|$LN14@DeviceList|
; File c:\wince800\platform\rrm_ppc_windows\src\drivers\pm\mdd\pminit.cpp

; 125  :                         pszFname));

  0024a	f8d7 3440	 ldr         r3,[r7,#0x440]
  0024e	f013 0f04	 tst         r3,#4
  00252	d034		 beq         |$LN9@DeviceList|
  00254	4940		 ldr         r1,|$LN69@DeviceList| ; =|??_C@_1CA@CAGDLEBG@?$AAD?$AAe?$AAv?$AAi?$AAc?$AAe?$AAL?$AAi?$AAs?$AAt?$AAs?$AAI?$AAn?$AAi?$AAt?$AA?$AA@|
  00256	4845		 ldr         r0,|$LN74@DeviceList| ; =|??_C@_1GC@HMMKDNKJ@?$AA?$CF?$AAs?$AA?3?$AA?5?$AAd?$AAe?$AAf?$AAa?$AAu?$AAl?$AAt?$AA?5?$AAG?$AAU?$AAI?$AAD?$AA?5?$AAf?$AAo?$AAu?$AAn?$AAd?$AA?5?$AAi?$AAn?$AA?5?$AAr?$AAe?$AAg?$AAi?$AAs?$AAt@|
  00258	f000 f800	 bl          NKDbgPrintfW
  0025c	493e		 ldr         r1,|$LN69@DeviceList| ; =|??_C@_1CA@CAGDLEBG@?$AAD?$AAe?$AAv?$AAi?$AAc?$AAe?$AAL?$AAi?$AAs?$AAt?$AAs?$AAI?$AAn?$AAi?$AAt?$AA?$AA@|
  0025e	4843		 ldr         r0,|$LN74@DeviceList| ; =|??_C@_1GC@HMMKDNKJ@?$AA?$CF?$AAs?$AA?3?$AA?5?$AAd?$AAe?$AAf?$AAa?$AAu?$AAl?$AAt?$AA?5?$AAG?$AAU?$AAI?$AAD?$AA?5?$AAf?$AAo?$AAu?$AAn?$AAd?$AA?5?$AAi?$AAn?$AA?5?$AAr?$AAe?$AAg?$AAi?$AAs?$AAt@|
  00260	f000 f800	 bl          CeLogMsg

; 126  :                 } else if((pdl = DeviceListCreate(&idInterface)) == NULL) {

  00264	e02b		 b           |$LN9@DeviceList|
  00266		 |$LN14@DeviceList|
  00266	a808		 add         r0,sp,#0x20
  00268	f000 f800	 bl          DeviceListCreate
  0026c	4604		 mov         r4,r0
  0026e	b96c		 cbnz        r4,|$LN12@DeviceList|

; 127  :                     PMLOGMSG(ZONE_WARN, (_T("%s: DeviceListCreate() failed\r\n"), 
; 128  :                         pszFname));

  00270	f8d7 3440	 ldr         r3,[r7,#0x440]
  00274	f013 0f02	 tst         r3,#2
  00278	d020		 beq         |$LN58@DeviceList|
  0027a	4937		 ldr         r1,|$LN69@DeviceList| ; =|??_C@_1CA@CAGDLEBG@?$AAD?$AAe?$AAv?$AAi?$AAc?$AAe?$AAL?$AAi?$AAs?$AAt?$AAs?$AAI?$AAn?$AAi?$AAt?$AA?$AA@|
  0027c	483a		 ldr         r0,|$LN73@DeviceList| ; =|??_C@_1EA@IPLGNFH@?$AA?$CF?$AAs?$AA?3?$AA?5?$AAD?$AAe?$AAv?$AAi?$AAc?$AAe?$AAL?$AAi?$AAs?$AAt?$AAC?$AAr?$AAe?$AAa?$AAt?$AAe?$AA?$CI?$AA?$CJ?$AA?5?$AAf?$AAa?$AAi?$AAl?$AAe?$AAd?$AA?$AN?$AA?6?$AA?$AA@|
  0027e	f000 f800	 bl          NKDbgPrintfW
  00282	4935		 ldr         r1,|$LN69@DeviceList| ; =|??_C@_1CA@CAGDLEBG@?$AAD?$AAe?$AAv?$AAi?$AAc?$AAe?$AAL?$AAi?$AAs?$AAt?$AAs?$AAI?$AAn?$AAi?$AAt?$AA?$AA@|
  00284	4838		 ldr         r0,|$LN73@DeviceList| ; =|??_C@_1EA@IPLGNFH@?$AA?$CF?$AAs?$AA?3?$AA?5?$AAD?$AAe?$AAv?$AAi?$AAc?$AAe?$AAL?$AAi?$AAs?$AAt?$AAC?$AAr?$AAe?$AAa?$AAt?$AAe?$AA?$CI?$AA?$CJ?$AA?5?$AAf?$AAa?$AAi?$AAl?$AAe?$AAd?$AA?$AN?$AA?6?$AA?$AA@|
  00286	f000 f800	 bl          CeLogMsg

; 129  :                 } else if(PlatformDeviceListInit(pdl) == FALSE) {

  0028a	e017		 b           |$LN58@DeviceList|
  0028c		 |$LN12@DeviceList|
  0028c	4620		 mov         r0,r4
  0028e	f000 f800	 bl          PlatformDeviceListInit
  00292	b980		 cbnz        r0,|$LN10@DeviceList|

; 130  :                     PMLOGMSG(ZONE_WARN, (_T("%s: PlatformDeviceListInit() failed\r\n"), 
; 131  :                         pszFname));

  00294	f8d7 3440	 ldr         r3,[r7,#0x440]
  00298	f013 0f02	 tst         r3,#2
  0029c	d007		 beq         |$LN36@DeviceList|
  0029e	492e		 ldr         r1,|$LN69@DeviceList| ; =|??_C@_1CA@CAGDLEBG@?$AAD?$AAe?$AAv?$AAi?$AAc?$AAe?$AAL?$AAi?$AAs?$AAt?$AAs?$AAI?$AAn?$AAi?$AAt?$AA?$AA@|
  002a0	4830		 ldr         r0,|$LN72@DeviceList| ; =|??_C@_1EM@FNHBJNHN@?$AA?$CF?$AAs?$AA?3?$AA?5?$AAP?$AAl?$AAa?$AAt?$AAf?$AAo?$AAr?$AAm?$AAD?$AAe?$AAv?$AAi?$AAc?$AAe?$AAL?$AAi?$AAs?$AAt?$AAI?$AAn?$AAi?$AAt?$AA?$CI?$AA?$CJ?$AA?5?$AAf?$AAa?$AAi@|
  002a2	f000 f800	 bl          NKDbgPrintfW
  002a6	492c		 ldr         r1,|$LN69@DeviceList| ; =|??_C@_1CA@CAGDLEBG@?$AAD?$AAe?$AAv?$AAi?$AAc?$AAe?$AAL?$AAi?$AAs?$AAt?$AAs?$AAI?$AAn?$AAi?$AAt?$AA?$AA@|
  002a8	482e		 ldr         r0,|$LN72@DeviceList| ; =|??_C@_1EM@FNHBJNHN@?$AA?$CF?$AAs?$AA?3?$AA?5?$AAP?$AAl?$AAa?$AAt?$AAf?$AAo?$AAr?$AAm?$AAD?$AAe?$AAv?$AAi?$AAc?$AAe?$AAL?$AAi?$AAs?$AAt?$AAI?$AAn?$AAi?$AAt?$AA?$CI?$AA?$CJ?$AA?5?$AAf?$AAa?$AAi@|
  002aa	f000 f800	 bl          CeLogMsg
  002ae		 |$LN36@DeviceList|

; 132  :                     DeviceListDestroy(pdl);

  002ae	4620		 mov         r0,r4
  002b0	f000 f800	 bl          DeviceListDestroy

; 133  :                 } else {

  002b4	e002		 b           |$LN58@DeviceList|
  002b6		 |$LN10@DeviceList|

; 134  :                     // add the new entry to the list
; 135  :                     pdl->pNext = gpDeviceLists;

  002b6	682b		 ldr         r3,[r5]
  002b8	6163		 str         r3,[r4,#0x14]

; 136  :                     gpDeviceLists = pdl;

  002ba	602c		 str         r4,[r5]
  002bc		 |$LN58@DeviceList|
  002bc	2400		 movs        r4,#0
  002be		 |$LN9@DeviceList|

; 137  :                 }
; 138  : 
; 139  :                 // update the index
; 140  :                 dwIndex++;

  002be	f109 0901	 add         r9,r9,#1

; 141  :             }
; 142  :         } while(dwStatus == ERROR_SUCCESS);

  002c2	e789		 b           |$LL22@DeviceList|
  002c4		 |$LN54@DeviceList|

; 143  : 
; 144  :         // check for abnormal termination of the loop
; 145  :         if(dwStatus != ERROR_NO_MORE_ITEMS) {

  002c4	f240 1303	 mov         r3,#0x103
  002c8	4298		 cmp         r0,r3
  002ca	d000		 beq         |$LN8@DeviceList|

; 146  :             fOk = FALSE;

  002cc	2600		 movs        r6,#0
  002ce		 |$LN8@DeviceList|

; 147  :         }
; 148  : 
; 149  :         // close the registry handle
; 150  :         RegCloseKey(hk);

  002ce	9804		 ldr         r0,[sp,#0x10]
  002d0	f000 f800	 bl          RegCloseKey

; 151  :     }
; 152  : 
; 153  :     // add the default list last
; 154  :     if(fOk) {

  002d4	b1e6		 cbz         r6,|$LN53@DeviceList|
  002d6		 |$LN55@DeviceList|

; 155  :         fOk = FALSE;
; 156  :         pdl = DeviceListCreate(&idGenericPMDeviceClass);

  002d6	4822		 ldr         r0,|$LN71@DeviceList| ; =|idGenericPMDeviceClass|
  002d8	2600		 movs        r6,#0
  002da	f000 f800	 bl          DeviceListCreate
  002de	4604		 mov         r4,r0

; 157  :         if(pdl != NULL) {

  002e0	b1ac		 cbz         r4,|$LN57@DeviceList|

; 158  :             if(PlatformDeviceListInit(pdl) == FALSE) {

  002e2	f000 f800	 bl          PlatformDeviceListInit
  002e6	bb08		 cbnz        r0,|$LN5@DeviceList|

; 159  :                 PMLOGMSG(ZONE_INIT || ZONE_WARN, 
; 160  :                     (_T("%s: PlatformDeviceListInit() failed for default class\r\n"),
; 161  :                     pszFname));

  002e8	f8d7 3440	 ldr         r3,[r7,#0x440]
  002ec	f013 0f04	 tst         r3,#4
  002f0	d102		 bne         |$LN38@DeviceList|
  002f2	f013 0f02	 tst         r3,#2
  002f6	d007		 beq         |$LN39@DeviceList|
  002f8		 |$LN38@DeviceList|
  002f8	4917		 ldr         r1,|$LN69@DeviceList| ; =|??_C@_1CA@CAGDLEBG@?$AAD?$AAe?$AAv?$AAi?$AAc?$AAe?$AAL?$AAi?$AAs?$AAt?$AAs?$AAI?$AAn?$AAi?$AAt?$AA?$AA@|
  002fa	4818		 ldr         r0,|$LN70@DeviceList| ; =|??_C@_1HA@PHCGCLLJ@?$AA?$CF?$AAs?$AA?3?$AA?5?$AAP?$AAl?$AAa?$AAt?$AAf?$AAo?$AAr?$AAm?$AAD?$AAe?$AAv?$AAi?$AAc?$AAe?$AAL?$AAi?$AAs?$AAt?$AAI?$AAn?$AAi?$AAt?$AA?$CI?$AA?$CJ?$AA?5?$AAf?$AAa?$AAi@|
  002fc	f000 f800	 bl          NKDbgPrintfW
  00300	4915		 ldr         r1,|$LN69@DeviceList| ; =|??_C@_1CA@CAGDLEBG@?$AAD?$AAe?$AAv?$AAi?$AAc?$AAe?$AAL?$AAi?$AAs?$AAt?$AAs?$AAI?$AAn?$AAi?$AAt?$AA?$AA@|
  00302	4816		 ldr         r0,|$LN70@DeviceList| ; =|??_C@_1HA@PHCGCLLJ@?$AA?$CF?$AAs?$AA?3?$AA?5?$AAP?$AAl?$AAa?$AAt?$AAf?$AAo?$AAr?$AAm?$AAD?$AAe?$AAv?$AAi?$AAc?$AAe?$AAL?$AAi?$AAs?$AAt?$AAI?$AAn?$AAi?$AAt?$AA?$CI?$AA?$CJ?$AA?5?$AAf?$AAa?$AAi@|
  00304	f000 f800	 bl          CeLogMsg
  00308		 |$LN39@DeviceList|

; 162  :                 DeviceListDestroy(pdl);

  00308	4620		 mov         r0,r4
  0030a	f000 f800	 bl          DeviceListDestroy
  0030e		 |$LN57@DeviceList|
  0030e	2400		 movs        r4,#0
  00310		 |$LN53@DeviceList|

; 173  :         PMLOGMSG(ZONE_WARN, (_T("%s: error during list initialization\r\n"), 
; 174  :             pszFname));

  00310	f8d7 3440	 ldr         r3,[r7,#0x440]
  00314	f013 0f02	 tst         r3,#2
  00318	d012		 beq         |$LN40@DeviceList|
  0031a	490f		 ldr         r1,|$LN69@DeviceList| ; =|??_C@_1CA@CAGDLEBG@?$AAD?$AAe?$AAv?$AAi?$AAc?$AAe?$AAL?$AAi?$AAs?$AAt?$AAs?$AAI?$AAn?$AAi?$AAt?$AA?$AA@|
  0031c	480d		 ldr         r0,|$LN68@DeviceList| ; =|??_C@_1EO@FIGOIHNC@?$AA?$CF?$AAs?$AA?3?$AA?5?$AAe?$AAr?$AAr?$AAo?$AAr?$AA?5?$AAd?$AAu?$AAr?$AAi?$AAn?$AAg?$AA?5?$AAl?$AAi?$AAs?$AAt?$AA?5?$AAi?$AAn?$AAi?$AAt?$AAi?$AAa?$AAl?$AAi?$AAz?$AAa@|
  0031e	f000 f800	 bl          NKDbgPrintfW
  00322	490d		 ldr         r1,|$LN69@DeviceList| ; =|??_C@_1CA@CAGDLEBG@?$AAD?$AAe?$AAv?$AAi?$AAc?$AAe?$AAL?$AAi?$AAs?$AAt?$AAs?$AAI?$AAn?$AAi?$AAt?$AA?$AA@|
  00324	480b		 ldr         r0,|$LN68@DeviceList| ; =|??_C@_1EO@FIGOIHNC@?$AA?$CF?$AAs?$AA?3?$AA?5?$AAe?$AAr?$AAr?$AAo?$AAr?$AA?5?$AAd?$AAu?$AAr?$AAi?$AAn?$AAg?$AA?5?$AAl?$AAi?$AAs?$AAt?$AA?5?$AAi?$AAn?$AAi?$AAt?$AAi?$AAa?$AAl?$AAi?$AAz?$AAa@|
  00326	f000 f800	 bl          CeLogMsg

; 175  :         while(gpDeviceLists != NULL) {

  0032a	e009		 b           |$LN40@DeviceList|
  0032c		 |$LN5@DeviceList|

; 163  :             } else {
; 164  :                 pdl->pNext = gpDeviceLists;

  0032c	682b		 ldr         r3,[r5]

; 165  :                 gpDeviceLists = pdl;
; 166  :                 fOk = TRUE;

  0032e	2601		 movs        r6,#1
  00330	6163		 str         r3,[r4,#0x14]
  00332	602c		 str         r4,[r5]

; 167  :             }
; 168  :         }
; 169  :     }
; 170  : 
; 171  :     // clean up if necessary
; 172  :     if(!fOk) {

  00334	e007		 b           |$LN1@DeviceList|
  00336		 |$LL2@DeviceList|

; 176  :             pdl = gpDeviceLists;
; 177  :             gpDeviceLists = pdl->pNext;

  00336	6943		 ldr         r3,[r0,#0x14]
  00338	602b		 str         r3,[r5]

; 178  :             pdl->pNext = NULL;

  0033a	6144		 str         r4,[r0,#0x14]

; 179  :             DeviceListDestroy(pdl);

  0033c	f000 f800	 bl          DeviceListDestroy
  00340		 |$LN40@DeviceList|

; 175  :         while(gpDeviceLists != NULL) {

  00340	6828		 ldr         r0,[r5]
  00342	2800		 cmp         r0,#0
  00344	d1f7		 bne         |$LL2@DeviceList|
  00346		 |$LN1@DeviceList|

; 180  :         }
; 181  :     }
; 182  : 
; 183  :     return fOk;
; 184  : }

  00346	4630		 mov         r0,r6
  00348		 |$M66|
  00348	f20d 2d38	 addw        sp,sp,#0x238
  0034c	f000 f800	 bl          __security_pop_cookie
  00350	e8bd 8ff0	 pop         {r4-r11,pc}
  00354		 |$LN67@DeviceList|
  00354		 |$LN68@DeviceList|
  00354	0000 0000	 DCD         |??_C@_1EO@FIGOIHNC@?$AA?$CF?$AAs?$AA?3?$AA?5?$AAe?$AAr?$AAr?$AAo?$AAr?$AA?5?$AAd?$AAu?$AAr?$AAi?$AAn?$AAg?$AA?5?$AAl?$AAi?$AAs?$AAt?$AA?5?$AAi?$AAn?$AAi?$AAt?$AAi?$AAa?$AAl?$AAi?$AAz?$AAa@|
  00358		 |$LN69@DeviceList|
  00358	0000 0000	 DCD         |??_C@_1CA@CAGDLEBG@?$AAD?$AAe?$AAv?$AAi?$AAc?$AAe?$AAL?$AAi?$AAs?$AAt?$AAs?$AAI?$AAn?$AAi?$AAt?$AA?$AA@|
  0035c		 |$LN70@DeviceList|
  0035c	0000 0000	 DCD         |??_C@_1HA@PHCGCLLJ@?$AA?$CF?$AAs?$AA?3?$AA?5?$AAP?$AAl?$AAa?$AAt?$AAf?$AAo?$AAr?$AAm?$AAD?$AAe?$AAv?$AAi?$AAc?$AAe?$AAL?$AAi?$AAs?$AAt?$AAI?$AAn?$AAi?$AAt?$AA?$CI?$AA?$CJ?$AA?5?$AAf?$AAa?$AAi@|
  00360		 |$LN71@DeviceList|
  00360	0000 0000	 DCD         |idGenericPMDeviceClass|
  00364		 |$LN72@DeviceList|
  00364	0000 0000	 DCD         |??_C@_1EM@FNHBJNHN@?$AA?$CF?$AAs?$AA?3?$AA?5?$AAP?$AAl?$AAa?$AAt?$AAf?$AAo?$AAr?$AAm?$AAD?$AAe?$AAv?$AAi?$AAc?$AAe?$AAL?$AAi?$AAs?$AAt?$AAI?$AAn?$AAi?$AAt?$AA?$CI?$AA?$CJ?$AA?5?$AAf?$AAa?$AAi@|
  00368		 |$LN73@DeviceList|
  00368	0000 0000	 DCD         |??_C@_1EA@IPLGNFH@?$AA?$CF?$AAs?$AA?3?$AA?5?$AAD?$AAe?$AAv?$AAi?$AAc?$AAe?$AAL?$AAi?$AAs?$AAt?$AAC?$AAr?$AAe?$AAa?$AAt?$AAe?$AA?$CI?$AA?$CJ?$AA?5?$AAf?$AAa?$AAi?$AAl?$AAe?$AAd?$AA?$AN?$AA?6?$AA?$AA@|
  0036c		 |$LN74@DeviceList|
  0036c	0000 0000	 DCD         |??_C@_1GC@HMMKDNKJ@?$AA?$CF?$AAs?$AA?3?$AA?5?$AAd?$AAe?$AAf?$AAa?$AAu?$AAl?$AAt?$AA?5?$AAG?$AAU?$AAI?$AAD?$AA?5?$AAf?$AAo?$AAu?$AAn?$AAd?$AA?5?$AAi?$AAn?$AA?5?$AAr?$AAe?$AAg?$AAi?$AAs?$AAt@|
  00370		 |$LN75@DeviceList|
  00370	0000 0000	 DCD         |??_C@_1EC@OJCNELMO@?$AA?$CF?$AAs?$AA?3?$AA?5?$AAc?$AAa?$AAn?$AA?8?$AAt?$AA?5?$AAc?$AAo?$AAn?$AAv?$AAe?$AAr?$AAt?$AA?5?$AA?8?$AA?$CF?$AAs?$AA?8?$AA?5?$AAt?$AAo?$AA?5?$AAG?$AAU?$AAI?$AAD?$AA?$AN?$AA?6@|
  00374		 |$LN76@DeviceList|
  00374	0000 0000	 DCD         |??_C@_1EE@DAMLNPFA@?$AA?$CF?$AAs?$AA?3?$AA?5?$AAi?$AAn?$AAv?$AAa?$AAl?$AAi?$AAd?$AA?5?$AAt?$AAy?$AAp?$AAe?$AA?5?$AAf?$AAo?$AAr?$AA?5?$AAv?$AAa?$AAl?$AAu?$AAe?$AA?5?$AA?8?$AA?$CF?$AAs?$AA?8?$AA?$AN@|
  00378		 |$LN77@DeviceList|
  00378	0000 0000	 DCD         |dpCurSettings|
  0037c		 |$LN78@DeviceList|
  0037c	0000 0000	 DCD         |gpDeviceLists|
  00380		 |$LN79@DeviceList|
  00380	0000 0000	 DCD         |??_C@_1FK@FNONLNGN@?$AA?$CF?$AAs?$AA?3?$AA?5?$AAD?$AAE?$AAB?$AAU?$AAG?$AAC?$AAH?$AAK?$AA?5?$AAf?$AAa?$AAi?$AAl?$AAe?$AAd?$AA?5?$AAi?$AAn?$AA?5?$AAf?$AAi?$AAl?$AAe?$AA?5?$AA?$CF?$AAs?$AA?5?$AAa@|
  00384		 |$LN80@DeviceList|
  00384	0000 0000	 DCD         |??_C@_1BA@LEPJIIOK@?$AAU?$AAn?$AAk?$AAn?$AAo?$AAw?$AAn?$AA?$AA@|
  00388		 |$LN81@DeviceList|
  00388	0000 0000	 DCD         |??_C@_1IG@GFJFBGDJ@?$AAc?$AA?3?$AA?2?$AAw?$AAi?$AAn?$AAc?$AAe?$AA8?$AA0?$AA0?$AA?2?$AAp?$AAl?$AAa?$AAt?$AAf?$AAo?$AAr?$AAm?$AA?2?$AAr?$AAr?$AAm?$AA_?$AAp?$AAp?$AAc?$AA_?$AAw?$AAi?$AAn@|
  0038c		 |$LN82@DeviceList|
  0038c	0000 0000	 DCD         |??_C@_1BM@OBHJEKIL@?$AA?$CF?$AAs?$AA?2?$AAI?$AAn?$AAt?$AAe?$AAr?$AAf?$AAa?$AAc?$AAe?$AAs?$AA?$AA@|
  00390		 |$LN83@DeviceList|
  00390	0000 0000	 DCD         |??_C@_1EO@PFEFPDAL@?$AAS?$AAY?$AAS?$AAT?$AAE?$AAM?$AA?2?$AAC?$AAu?$AAr?$AAr?$AAe?$AAn?$AAt?$AAC?$AAo?$AAn?$AAt?$AAr?$AAo?$AAl?$AAS?$AAe?$AAt?$AA?2?$AAC?$AAo?$AAn?$AAt?$AAr?$AAo?$AAl@|
  00394		 |$M64|

			 ENDP  ; |?DeviceListsInit@@YAHXZ|, DeviceListsInit

	EXPORT	|??_C@_1M@LFABOLDL@?$AA?$CL?$AA?$CF?$AAs?$AA?$AN?$AA?6?$AA?$AA@| [ DATA ] ; `string'
	EXPORT	|??_C@_1O@NDNKNHPJ@?$AAP?$AAm?$AAI?$AAn?$AAi?$AAt?$AA?$AA@| [ DATA ] ; `string'
	EXPORT	|??_C@_1FM@CIIPHLJM@?$AA?$CF?$AAs?$AA?3?$AA?5?$AAC?$AAr?$AAe?$AAa?$AAt?$AAe?$AAE?$AAv?$AAe?$AAn?$AAt?$AA?$CI?$AA?$CJ?$AA?5?$AAf?$AAa?$AAi?$AAl?$AAe?$AAd?$AA?5?$AAf?$AAo?$AAr?$AA?5?$AAs?$AAh?$AAu@| [ DATA ] ; `string'
	EXPORT	|??_C@_1FK@KDNBKLHB@?$AA?$CF?$AAs?$AA?3?$AA?5?$AAP?$AAl?$AAa?$AAt?$AAf?$AAo?$AAr?$AAm?$AAV?$AAa?$AAl?$AAi?$AAd?$AAa?$AAt?$AAe?$AAP?$AAM?$AAR?$AAe?$AAg?$AAi?$AAs?$AAt?$AAr?$AAy?$AA?$CI?$AA?$CJ@| [ DATA ] ; `string'
	EXPORT	|??_C@_1DC@OOKIINAM@?$AAS?$AAY?$AAS?$AAT?$AAE?$AAM?$AA?1?$AAP?$AAo?$AAw?$AAe?$AAr?$AAM?$AAa?$AAn?$AAa?$AAg?$AAe?$AAr?$AAR?$AAe?$AAa?$AAd?$AAy?$AA?$AA@| [ DATA ] ; `string'
	EXPORT	|??_C@_1DK@HMANBMPF@?$AA?$CF?$AAs?$AA?3?$AA?5?$AAe?$AAv?$AAe?$AAn?$AAt?$AA?5?$AAc?$AAr?$AAe?$AAa?$AAt?$AAi?$AAo?$AAn?$AA?5?$AAf?$AAa?$AAi?$AAl?$AAu?$AAr?$AAe?$AA?$AN?$AA?6?$AA?$AA@| [ DATA ] ; `string'
	EXPORT	|??_C@_1DM@GDOFDLJI@?$AA?$CF?$AAs?$AA?3?$AA?5?$AAt?$AAh?$AAr?$AAe?$AAa?$AAd?$AA?5?$AAc?$AAr?$AAe?$AAa?$AAt?$AAi?$AAo?$AAn?$AA?5?$AAf?$AAa?$AAi?$AAl?$AAu?$AAr?$AAe?$AA?$AN?$AA?6?$AA?$AA@| [ DATA ] ; `string'
	EXPORT	|??_C@_1EI@OEHMKAOO@?$AA?$CF?$AAs?$AA?3?$AA?5?$AAt?$AAh?$AAr?$AAe?$AAa?$AAd?$AA?5?$AAi?$AAn?$AAi?$AAt?$AAi?$AAa?$AAl?$AAi?$AAz?$AAa?$AAt?$AAi?$AAo?$AAn?$AA?5?$AAf?$AAa?$AAi?$AAl?$AAu?$AAr@| [ DATA ] ; `string'
	EXPORT	|??_C@_1HA@PHFPGFKF@?$AA?$CF?$AAs?$AA?3?$AA?5?$AAW?$AAa?$AAi?$AAt?$AAF?$AAo?$AAr?$AAM?$AAu?$AAl?$AAt?$AAi?$AAp?$AAl?$AAe?$AAO?$AAb?$AAj?$AAe?$AAc?$AAt?$AAs?$AA?$CI?$AA?$CJ?$AA?5?$AAr?$AAe?$AAt@| [ DATA ] ; `string'
	EXPORT	|??_C@_1EK@MHHINMNC@?$AA?$CF?$AAs?$AA?3?$AA?5?$AAs?$AAy?$AAs?$AAt?$AAe?$AAm?$AA?5?$AAt?$AAh?$AAr?$AAe?$AAa?$AAd?$AA?5?$AAc?$AAr?$AAe?$AAa?$AAt?$AAi?$AAo?$AAn?$AA?5?$AAf?$AAa?$AAi?$AAl?$AAu@| [ DATA ] ; `string'
	EXPORT	|??_C@_1FG@LNDLJJOC@?$AA?$CF?$AAs?$AA?3?$AA?5?$AAs?$AAy?$AAs?$AAt?$AAe?$AAm?$AA?5?$AAt?$AAh?$AAr?$AAe?$AAa?$AAd?$AA?5?$AAi?$AAn?$AAi?$AAt?$AAi?$AAa?$AAl?$AAi?$AAz?$AAa?$AAt?$AAi?$AAo?$AAn@| [ DATA ] ; `string'
	EXPORT	|??_C@_1DO@JOHFJEDC@?$AA?$CF?$AAs?$AA?3?$AA?5?$AAs?$AAh?$AAu?$AAt?$AAt?$AAi?$AAn?$AAg?$AA?5?$AAd?$AAo?$AAw?$AAn?$AA?5?$AAP?$AAn?$AAP?$AA?5?$AAt?$AAh?$AAr?$AAe?$AAa?$AAd?$AA?$AN?$AA?6?$AA?$AA@| [ DATA ] ; `string'
	EXPORT	|??_C@_1EE@OMMAAAMF@?$AA?$CF?$AAs?$AA?3?$AA?5?$AAs?$AAh?$AAu?$AAt?$AAt?$AAi?$AAn?$AAg?$AA?5?$AAd?$AAo?$AAw?$AAn?$AA?5?$AAr?$AAe?$AAs?$AAu?$AAm?$AAe?$AA?5?$AAt?$AAh?$AAr?$AAe?$AAa?$AAd?$AA?$AN@| [ DATA ] ; `string'
	EXPORT	|??_C@_1EE@CIFABHGF@?$AA?$CF?$AAs?$AA?3?$AA?5?$AAs?$AAh?$AAu?$AAt?$AAt?$AAi?$AAn?$AAg?$AA?5?$AAd?$AAo?$AAw?$AAn?$AA?5?$AAs?$AAy?$AAs?$AAt?$AAe?$AAm?$AA?5?$AAt?$AAh?$AAr?$AAe?$AAa?$AAd?$AA?$AN@| [ DATA ] ; `string'
	EXPORT	|??_C@_1FG@OCCOMIBI@?$AA?$CF?$AAs?$AA?3?$AA?5?$AAs?$AAh?$AAu?$AAt?$AAt?$AAi?$AAn?$AAg?$AA?5?$AAd?$AAo?$AAw?$AAn?$AA?5?$AAa?$AAc?$AAt?$AAi?$AAv?$AAi?$AAt?$AAy?$AA?5?$AAt?$AAi?$AAm?$AAe?$AAr@| [ DATA ] ; `string'
	EXPORT	|??_C@_1CM@JOGFCBGM@?$AA?$CF?$AAs?$AA?3?$AA?5?$AAc?$AAl?$AAo?$AAs?$AAi?$AAn?$AAg?$AA?5?$AAh?$AAa?$AAn?$AAd?$AAl?$AAe?$AAs?$AA?$AN?$AA?6?$AA?$AA@| [ DATA ] ; `string'
	EXPORT	|??_C@_1CI@JMHLNJN@?$AA?9?$AA?$CF?$AAs?$AA?3?$AA?5?$AAr?$AAe?$AAt?$AAu?$AAr?$AAn?$AAi?$AAn?$AAg?$AA?5?$AA?$CF?$AAd?$AA?$AN?$AA?6?$AA?$AA@| [ DATA ] ; `string'
	EXPORT	|PmInit|
	IMPORT	|InitializeCriticalSection|
	IMPORT	|GetProcessHeap|
	IMPORT	|CreateEventW|
	IMPORT	|PlatformValidatePMRegistry|
	IMPORT	|PnpThreadProc|
	IMPORT	|CreateThread|
	IMPORT	|ResumeThreadProc|
	IMPORT	|ActivityTimersThreadProc|
	IMPORT	|WaitForMultipleObjects|
	IMPORT	|GetLastError|
	IMPORT	|?PMExt_Init@@YAHXZ|			; PMExt_Init
	IMPORT	|SystemThreadProc|
	IMPORT	|PmSetSystemPowerState|
	IMPORT	|?PMExt_DeInit@@YAHXZ|			; PMExt_DeInit
	IMPORT	|WaitForSingleObject|
	IMPORT	|CloseHandle|

  00020			 AREA	 |.pdata|, PDATA
|$pdata1$PmInit| DCD imagerel |$LN85@PmInit|
	DCD	0x3760939

  00000			 AREA	 |.rdata|, DATA, READONLY
|??_C@_1CI@JMHLNJN@?$AA?9?$AA?$CF?$AAs?$AA?3?$AA?5?$AAr?$AAe?$AAt?$AAu?$AAr?$AAn?$AAi?$AAn?$AAg?$AA?5?$AA?$CF?$AAd?$AA?$AN?$AA?6?$AA?$AA@| DCB "-"
	DCB	0x0, "%", 0x0, "s", 0x0, ":", 0x0, " ", 0x0, "r", 0x0, "e"
	DCB	0x0, "t", 0x0, "u", 0x0, "r", 0x0, "n", 0x0, "i", 0x0, "n"
	DCB	0x0, "g", 0x0, " ", 0x0, "%", 0x0, "d", 0x0, 0xd, 0x0, 0xa
	DCB	0x0, 0x0, 0x0				; `string'

  00000			 AREA	 |.rdata|, DATA, READONLY
|??_C@_1CM@JOGFCBGM@?$AA?$CF?$AAs?$AA?3?$AA?5?$AAc?$AAl?$AAo?$AAs?$AAi?$AAn?$AAg?$AA?5?$AAh?$AAa?$AAn?$AAd?$AAl?$AAe?$AAs?$AA?$AN?$AA?6?$AA?$AA@| DCB "%"
	DCB	0x0, "s", 0x0, ":", 0x0, " ", 0x0, "c", 0x0, "l", 0x0, "o"
	DCB	0x0, "s", 0x0, "i", 0x0, "n", 0x0, "g", 0x0, " ", 0x0, "h"
	DCB	0x0, "a", 0x0, "n", 0x0, "d", 0x0, "l", 0x0, "e", 0x0, "s"
	DCB	0x0, 0xd, 0x0, 0xa, 0x0, 0x0, 0x0	; `string'

  00000			 AREA	 |.rdata|, DATA, READONLY
|??_C@_1FG@OCCOMIBI@?$AA?$CF?$AAs?$AA?3?$AA?5?$AAs?$AAh?$AAu?$AAt?$AAt?$AAi?$AAn?$AAg?$AA?5?$AAd?$AAo?$AAw?$AAn?$AA?5?$AAa?$AAc?$AAt?$AAi?$AAv?$AAi?$AAt?$AAy?$AA?5?$AAt?$AAi?$AAm?$AAe?$AAr@| DCB "%"
	DCB	0x0, "s", 0x0, ":", 0x0, " ", 0x0, "s", 0x0, "h", 0x0, "u"
	DCB	0x0, "t", 0x0, "t", 0x0, "i", 0x0, "n", 0x0, "g", 0x0, " "
	DCB	0x0, "d", 0x0, "o", 0x0, "w", 0x0, "n", 0x0, " ", 0x0, "a"
	DCB	0x0, "c", 0x0, "t", 0x0, "i", 0x0, "v", 0x0, "i", 0x0, "t"
	DCB	0x0, "y", 0x0, " ", 0x0, "t", 0x0, "i", 0x0, "m", 0x0, "e"
	DCB	0x0, "r", 0x0, "s", 0x0, " ", 0x0, "t", 0x0, "h", 0x0, "r"
	DCB	0x0, "e", 0x0, "a", 0x0, "d", 0x0, 0xd, 0x0, 0xa, 0x0, 0x0
	DCB	0x0					; `string'

  00000			 AREA	 |.rdata|, DATA, READONLY
|??_C@_1EE@CIFABHGF@?$AA?$CF?$AAs?$AA?3?$AA?5?$AAs?$AAh?$AAu?$AAt?$AAt?$AAi?$AAn?$AAg?$AA?5?$AAd?$AAo?$AAw?$AAn?$AA?5?$AAs?$AAy?$AAs?$AAt?$AAe?$AAm?$AA?5?$AAt?$AAh?$AAr?$AAe?$AAa?$AAd?$AA?$AN@| DCB "%"
	DCB	0x0, "s", 0x0, ":", 0x0, " ", 0x0, "s", 0x0, "h", 0x0, "u"
	DCB	0x0, "t", 0x0, "t", 0x0, "i", 0x0, "n", 0x0, "g", 0x0, " "
	DCB	0x0, "d", 0x0, "o", 0x0, "w", 0x0, "n", 0x0, " ", 0x0, "s"
	DCB	0x0, "y", 0x0, "s", 0x0, "t", 0x0, "e", 0x0, "m", 0x0, " "
	DCB	0x0, "t", 0x0, "h", 0x0, "r", 0x0, "e", 0x0, "a", 0x0, "d"
	DCB	0x0, 0xd, 0x0, 0xa, 0x0, 0x0, 0x0	; `string'

  00000			 AREA	 |.rdata|, DATA, READONLY
|??_C@_1EE@OMMAAAMF@?$AA?$CF?$AAs?$AA?3?$AA?5?$AAs?$AAh?$AAu?$AAt?$AAt?$AAi?$AAn?$AAg?$AA?5?$AAd?$AAo?$AAw?$AAn?$AA?5?$AAr?$AAe?$AAs?$AAu?$AAm?$AAe?$AA?5?$AAt?$AAh?$AAr?$AAe?$AAa?$AAd?$AA?$AN@| DCB "%"
	DCB	0x0, "s", 0x0, ":", 0x0, " ", 0x0, "s", 0x0, "h", 0x0, "u"
	DCB	0x0, "t", 0x0, "t", 0x0, "i", 0x0, "n", 0x0, "g", 0x0, " "
	DCB	0x0, "d", 0x0, "o", 0x0, "w", 0x0, "n", 0x0, " ", 0x0, "r"
	DCB	0x0, "e", 0x0, "s", 0x0, "u", 0x0, "m", 0x0, "e", 0x0, " "
	DCB	0x0, "t", 0x0, "h", 0x0, "r", 0x0, "e", 0x0, "a", 0x0, "d"
	DCB	0x0, 0xd, 0x0, 0xa, 0x0, 0x0, 0x0	; `string'

  00000			 AREA	 |.rdata|, DATA, READONLY
|??_C@_1DO@JOHFJEDC@?$AA?$CF?$AAs?$AA?3?$AA?5?$AAs?$AAh?$AAu?$AAt?$AAt?$AAi?$AAn?$AAg?$AA?5?$AAd?$AAo?$AAw?$AAn?$AA?5?$AAP?$AAn?$AAP?$AA?5?$AAt?$AAh?$AAr?$AAe?$AAa?$AAd?$AA?$AN?$AA?6?$AA?$AA@| DCB "%"
	DCB	0x0, "s", 0x0, ":", 0x0, " ", 0x0, "s", 0x0, "h", 0x0, "u"
	DCB	0x0, "t", 0x0, "t", 0x0, "i", 0x0, "n", 0x0, "g", 0x0, " "
	DCB	0x0, "d", 0x0, "o", 0x0, "w", 0x0, "n", 0x0, " ", 0x0, "P"
	DCB	0x0, "n", 0x0, "P", 0x0, " ", 0x0, "t", 0x0, "h", 0x0, "r"
	DCB	0x0, "e", 0x0, "a", 0x0, "d", 0x0, 0xd, 0x0, 0xa, 0x0, 0x0
	DCB	0x0					; `string'

  00000			 AREA	 |.rdata|, DATA, READONLY
|??_C@_1FG@LNDLJJOC@?$AA?$CF?$AAs?$AA?3?$AA?5?$AAs?$AAy?$AAs?$AAt?$AAe?$AAm?$AA?5?$AAt?$AAh?$AAr?$AAe?$AAa?$AAd?$AA?5?$AAi?$AAn?$AAi?$AAt?$AAi?$AAa?$AAl?$AAi?$AAz?$AAa?$AAt?$AAi?$AAo?$AAn@| DCB "%"
	DCB	0x0, "s", 0x0, ":", 0x0, " ", 0x0, "s", 0x0, "y", 0x0, "s"
	DCB	0x0, "t", 0x0, "e", 0x0, "m", 0x0, " ", 0x0, "t", 0x0, "h"
	DCB	0x0, "r", 0x0, "e", 0x0, "a", 0x0, "d", 0x0, " ", 0x0, "i"
	DCB	0x0, "n", 0x0, "i", 0x0, "t", 0x0, "i", 0x0, "a", 0x0, "l"
	DCB	0x0, "i", 0x0, "z", 0x0, "a", 0x0, "t", 0x0, "i", 0x0, "o"
	DCB	0x0, "n", 0x0, " ", 0x0, "f", 0x0, "a", 0x0, "i", 0x0, "l"
	DCB	0x0, "u", 0x0, "r", 0x0, "e", 0x0, 0xd, 0x0, 0xa, 0x0, 0x0
	DCB	0x0					; `string'

  00000			 AREA	 |.rdata|, DATA, READONLY
|??_C@_1EK@MHHINMNC@?$AA?$CF?$AAs?$AA?3?$AA?5?$AAs?$AAy?$AAs?$AAt?$AAe?$AAm?$AA?5?$AAt?$AAh?$AAr?$AAe?$AAa?$AAd?$AA?5?$AAc?$AAr?$AAe?$AAa?$AAt?$AAi?$AAo?$AAn?$AA?5?$AAf?$AAa?$AAi?$AAl?$AAu@| DCB "%"
	DCB	0x0, "s", 0x0, ":", 0x0, " ", 0x0, "s", 0x0, "y", 0x0, "s"
	DCB	0x0, "t", 0x0, "e", 0x0, "m", 0x0, " ", 0x0, "t", 0x0, "h"
	DCB	0x0, "r", 0x0, "e", 0x0, "a", 0x0, "d", 0x0, " ", 0x0, "c"
	DCB	0x0, "r", 0x0, "e", 0x0, "a", 0x0, "t", 0x0, "i", 0x0, "o"
	DCB	0x0, "n", 0x0, " ", 0x0, "f", 0x0, "a", 0x0, "i", 0x0, "l"
	DCB	0x0, "u", 0x0, "r", 0x0, "e", 0x0, 0xd, 0x0, 0xa, 0x0, 0x0
	DCB	0x0					; `string'

  00000			 AREA	 |.rdata|, DATA, READONLY
|??_C@_1HA@PHFPGFKF@?$AA?$CF?$AAs?$AA?3?$AA?5?$AAW?$AAa?$AAi?$AAt?$AAF?$AAo?$AAr?$AAM?$AAu?$AAl?$AAt?$AAi?$AAp?$AAl?$AAe?$AAO?$AAb?$AAj?$AAe?$AAc?$AAt?$AAs?$AA?$CI?$AA?$CJ?$AA?5?$AAr?$AAe?$AAt@| DCB "%"
	DCB	0x0, "s", 0x0, ":", 0x0, " ", 0x0, "W", 0x0, "a", 0x0, "i"
	DCB	0x0, "t", 0x0, "F", 0x0, "o", 0x0, "r", 0x0, "M", 0x0, "u"
	DCB	0x0, "l", 0x0, "t", 0x0, "i", 0x0, "p", 0x0, "l", 0x0, "e"
	DCB	0x0, "O", 0x0, "b", 0x0, "j", 0x0, "e", 0x0, "c", 0x0, "t"
	DCB	0x0, "s", 0x0, "(", 0x0, ")", 0x0, " ", 0x0, "r", 0x0, "e"
	DCB	0x0, "t", 0x0, "u", 0x0, "r", 0x0, "n", 0x0, "d", 0x0, " "
	DCB	0x0, "%", 0x0, "d", 0x0, ",", 0x0, " ", 0x0, "s", 0x0, "t"
	DCB	0x0, "a", 0x0, "t", 0x0, "u", 0x0, "s", 0x0, " ", 0x0, "i"
	DCB	0x0, "s", 0x0, " ", 0x0, "%", 0x0, "d", 0x0, 0xd, 0x0, 0xa
	DCB	0x0, 0x0, 0x0				; `string'

  00000			 AREA	 |.rdata|, DATA, READONLY
|??_C@_1EI@OEHMKAOO@?$AA?$CF?$AAs?$AA?3?$AA?5?$AAt?$AAh?$AAr?$AAe?$AAa?$AAd?$AA?5?$AAi?$AAn?$AAi?$AAt?$AAi?$AAa?$AAl?$AAi?$AAz?$AAa?$AAt?$AAi?$AAo?$AAn?$AA?5?$AAf?$AAa?$AAi?$AAl?$AAu?$AAr@| DCB "%"
	DCB	0x0, "s", 0x0, ":", 0x0, " ", 0x0, "t", 0x0, "h", 0x0, "r"
	DCB	0x0, "e", 0x0, "a", 0x0, "d", 0x0, " ", 0x0, "i", 0x0, "n"
	DCB	0x0, "i", 0x0, "t", 0x0, "i", 0x0, "a", 0x0, "l", 0x0, "i"
	DCB	0x0, "z", 0x0, "a", 0x0, "t", 0x0, "i", 0x0, "o", 0x0, "n"
	DCB	0x0, " ", 0x0, "f", 0x0, "a", 0x0, "i", 0x0, "l", 0x0, "u"
	DCB	0x0, "r", 0x0, "e", 0x0, 0xd, 0x0, 0xa, 0x0, 0x0, 0x0 ; `string'

  00000			 AREA	 |.rdata|, DATA, READONLY
|??_C@_1DM@GDOFDLJI@?$AA?$CF?$AAs?$AA?3?$AA?5?$AAt?$AAh?$AAr?$AAe?$AAa?$AAd?$AA?5?$AAc?$AAr?$AAe?$AAa?$AAt?$AAi?$AAo?$AAn?$AA?5?$AAf?$AAa?$AAi?$AAl?$AAu?$AAr?$AAe?$AA?$AN?$AA?6?$AA?$AA@| DCB "%"
	DCB	0x0, "s", 0x0, ":", 0x0, " ", 0x0, "t", 0x0, "h", 0x0, "r"
	DCB	0x0, "e", 0x0, "a", 0x0, "d", 0x0, " ", 0x0, "c", 0x0, "r"
	DCB	0x0, "e", 0x0, "a", 0x0, "t", 0x0, "i", 0x0, "o", 0x0, "n"
	DCB	0x0, " ", 0x0, "f", 0x0, "a", 0x0, "i", 0x0, "l", 0x0, "u"
	DCB	0x0, "r", 0x0, "e", 0x0, 0xd, 0x0, 0xa, 0x0, 0x0, 0x0 ; `string'

  00000			 AREA	 |.rdata|, DATA, READONLY
|??_C@_1DK@HMANBMPF@?$AA?$CF?$AAs?$AA?3?$AA?5?$AAe?$AAv?$AAe?$AAn?$AAt?$AA?5?$AAc?$AAr?$AAe?$AAa?$AAt?$AAi?$AAo?$AAn?$AA?5?$AAf?$AAa?$AAi?$AAl?$AAu?$AAr?$AAe?$AA?$AN?$AA?6?$AA?$AA@| DCB "%"
	DCB	0x0, "s", 0x0, ":", 0x0, " ", 0x0, "e", 0x0, "v", 0x0, "e"
	DCB	0x0, "n", 0x0, "t", 0x0, " ", 0x0, "c", 0x0, "r", 0x0, "e"
	DCB	0x0, "a", 0x0, "t", 0x0, "i", 0x0, "o", 0x0, "n", 0x0, " "
	DCB	0x0, "f", 0x0, "a", 0x0, "i", 0x0, "l", 0x0, "u", 0x0, "r"
	DCB	0x0, "e", 0x0, 0xd, 0x0, 0xa, 0x0, 0x0, 0x0 ; `string'

  00000			 AREA	 |.rdata|, DATA, READONLY
|??_C@_1DC@OOKIINAM@?$AAS?$AAY?$AAS?$AAT?$AAE?$AAM?$AA?1?$AAP?$AAo?$AAw?$AAe?$AAr?$AAM?$AAa?$AAn?$AAa?$AAg?$AAe?$AAr?$AAR?$AAe?$AAa?$AAd?$AAy?$AA?$AA@| DCB "S"
	DCB	0x0, "Y", 0x0, "S", 0x0, "T", 0x0, "E", 0x0, "M", 0x0, "/"
	DCB	0x0, "P", 0x0, "o", 0x0, "w", 0x0, "e", 0x0, "r", 0x0, "M"
	DCB	0x0, "a", 0x0, "n", 0x0, "a", 0x0, "g", 0x0, "e", 0x0, "r"
	DCB	0x0, "R", 0x0, "e", 0x0, "a", 0x0, "d", 0x0, "y", 0x0, 0x0
	DCB	0x0					; `string'

  00000			 AREA	 |.rdata|, DATA, READONLY
|??_C@_1FK@KDNBKLHB@?$AA?$CF?$AAs?$AA?3?$AA?5?$AAP?$AAl?$AAa?$AAt?$AAf?$AAo?$AAr?$AAm?$AAV?$AAa?$AAl?$AAi?$AAd?$AAa?$AAt?$AAe?$AAP?$AAM?$AAR?$AAe?$AAg?$AAi?$AAs?$AAt?$AAr?$AAy?$AA?$CI?$AA?$CJ@| DCB "%"
	DCB	0x0, "s", 0x0, ":", 0x0, " ", 0x0, "P", 0x0, "l", 0x0, "a"
	DCB	0x0, "t", 0x0, "f", 0x0, "o", 0x0, "r", 0x0, "m", 0x0, "V"
	DCB	0x0, "a", 0x0, "l", 0x0, "i", 0x0, "d", 0x0, "a", 0x0, "t"
	DCB	0x0, "e", 0x0, "P", 0x0, "M", 0x0, "R", 0x0, "e", 0x0, "g"
	DCB	0x0, "i", 0x0, "s", 0x0, "t", 0x0, "r", 0x0, "y", 0x0, "("
	DCB	0x0, ")", 0x0, " ", 0x0, "f", 0x0, "a", 0x0, "i", 0x0, "l"
	DCB	0x0, "e", 0x0, "d", 0x0, " ", 0x0, "%", 0x0, "d", 0x0, 0xd
	DCB	0x0, 0xa, 0x0, 0x0, 0x0			; `string'

  00000			 AREA	 |.rdata|, DATA, READONLY
|??_C@_1FM@CIIPHLJM@?$AA?$CF?$AAs?$AA?3?$AA?5?$AAC?$AAr?$AAe?$AAa?$AAt?$AAe?$AAE?$AAv?$AAe?$AAn?$AAt?$AA?$CI?$AA?$CJ?$AA?5?$AAf?$AAa?$AAi?$AAl?$AAe?$AAd?$AA?5?$AAf?$AAo?$AAr?$AA?5?$AAs?$AAh?$AAu@| DCB "%"
	DCB	0x0, "s", 0x0, ":", 0x0, " ", 0x0, "C", 0x0, "r", 0x0, "e"
	DCB	0x0, "a", 0x0, "t", 0x0, "e", 0x0, "E", 0x0, "v", 0x0, "e"
	DCB	0x0, "n", 0x0, "t", 0x0, "(", 0x0, ")", 0x0, " ", 0x0, "f"
	DCB	0x0, "a", 0x0, "i", 0x0, "l", 0x0, "e", 0x0, "d", 0x0, " "
	DCB	0x0, "f", 0x0, "o", 0x0, "r", 0x0, " ", 0x0, "s", 0x0, "h"
	DCB	0x0, "u", 0x0, "t", 0x0, "d", 0x0, "o", 0x0, "w", 0x0, "n"
	DCB	0x0, " ", 0x0, "e", 0x0, "v", 0x0, "e", 0x0, "n", 0x0, "t"
	DCB	0x0, 0xd, 0x0, 0xa, 0x0, 0x0, 0x0	; `string'

  00000			 AREA	 |.rdata|, DATA, READONLY
|??_C@_1O@NDNKNHPJ@?$AAP?$AAm?$AAI?$AAn?$AAi?$AAt?$AA?$AA@| DCB "P", 0x0, "m"
	DCB	0x0, "I", 0x0, "n", 0x0, "i", 0x0, "t", 0x0, 0x0, 0x0 ; `string'

  00000			 AREA	 |.rdata|, DATA, READONLY
|??_C@_1M@LFABOLDL@?$AA?$CL?$AA?$CF?$AAs?$AA?$AN?$AA?6?$AA?$AA@| DCB "+", 0x0
	DCB	"%", 0x0, "s", 0x0, 0xd, 0x0, 0xa, 0x0, 0x0, 0x0 ; `string'
; Function compile flags: /Ogsp
; File c:\wince800\platform\rrm_ppc_windows\src\drivers\pm\mdd\pminit.cpp
; File c:\wince800\public\common\sdk\inc\kfuncs.h
; File c:\wince800\platform\rrm_ppc_windows\src\drivers\pm\mdd\pminit.cpp
; File c:\wince800\public\common\sdk\inc\kfuncs.h
; File c:\wince800\platform\rrm_ppc_windows\src\drivers\pm\mdd\pminit.cpp

  00394			 AREA	 |.text|, CODE, THUMB

  00394		 |PmInit| PROC

; 191  : {

  00394		 |$LN85@PmInit|
  00394	e92d 4ff0	 push        {r4-r11,lr}
  00398	f20d 0b1c	 addw        r11,sp,#0x1C
  0039c	b08d		 sub         sp,sp,#0x34
  0039e		 |$M83|

; 192  :     BOOL fOk = TRUE;
; 193  :     HANDLE hevPnPReady = NULL, hevResumeReady = NULL, hevSystemReady = NULL;
; 194  :     HANDLE hevActivityTimersReady = NULL, hevDummy = NULL;
; 195  :     SETFNAME(_T("PmInit"));
; 196  : 
; 197  :     PMLOGMSG(ZONE_INIT || ZONE_API, (_T("+%s\r\n"), pszFname));

  0039e	f8df 64f0	 ldr         r6,|$LN112@PmInit|	; =|dpCurSettings|
  003a2	2300		 movs        r3,#0
  003a4	9302		 str         r3,[sp,#8]
  003a6	f8d6 3440	 ldr         r3,[r6,#0x440]
  003aa	2700		 movs        r7,#0
  003ac	f04f 0a00	 mov         r10,#0
  003b0	f04f 0800	 mov         r8,#0
  003b4	f04f 0900	 mov         r9,#0
  003b8	f013 0f04	 tst         r3,#4
  003bc	9703		 str         r7,[sp,#0xC]
  003be	d102		 bne         |$LN40@PmInit|
  003c0	f413 6f00	 tst         r3,#0x800
  003c4	d00b		 beq         |$LN41@PmInit|
  003c6		 |$LN40@PmInit|
  003c6	f8df 1474	 ldr         r1,|$LN91@PmInit|	; =|??_C@_1O@NDNKNHPJ@?$AAP?$AAm?$AAI?$AAn?$AAi?$AAt?$AA?$AA@|
  003ca	f8df 04c0	 ldr         r0,|$LN111@PmInit|	; =|??_C@_1M@LFABOLDL@?$AA?$CL?$AA?$CF?$AAs?$AA?$AN?$AA?6?$AA?$AA@|
  003ce	f000 f800	 bl          NKDbgPrintfW
  003d2	f8df 1468	 ldr         r1,|$LN91@PmInit|	; =|??_C@_1O@NDNKNHPJ@?$AAP?$AAm?$AAI?$AAn?$AAi?$AAt?$AA?$AA@|
  003d6	f8df 04b4	 ldr         r0,|$LN111@PmInit|	; =|??_C@_1M@LFABOLDL@?$AA?$CL?$AA?$CF?$AAs?$AA?$AN?$AA?6?$AA?$AA@|
  003da	f000 f800	 bl          CeLogMsg
  003de		 |$LN41@PmInit|

; 198  : 
; 199  :     // set up globals
; 200  :     InitializeCriticalSection(&gcsPowerManager);

  003de	f8df 44a8	 ldr         r4,|$LN110@PmInit|	; =|ghevTimerResume|
  003e2	f114 002c	 adds        r0,r4,#0x2C
  003e6	f000 f800	 bl          InitializeCriticalSection

; 201  :     InitializeCriticalSection(&gcsDeviceUpdateAPIs);

  003ea	f114 0048	 adds        r0,r4,#0x48
  003ee	f000 f800	 bl          InitializeCriticalSection

; 202  :     gpFloorDx = NULL;

  003f2	2300		 movs        r3,#0
  003f4	61e3		 str         r3,[r4,#0x1C]

; 203  :     gpCeilingDx = NULL;

  003f6	62a3		 str         r3,[r4,#0x28]

; 204  :     gpPowerNotifications = NULL;

  003f8	61a3		 str         r3,[r4,#0x18]

; 205  :     gpSystemPowerState = NULL;

  003fa	6623		 str         r3,[r4,#0x60]

; 206  :     ghPmHeap = GetProcessHeap();

  003fc	f000 f800	 bl          GetProcessHeap
  00400	6260		 str         r0,[r4,#0x24]

; 207  :     gpDeviceLists = NULL;

  00402	2300		 movs        r3,#0

; 208  :     gppActivityTimers = NULL;
; 209  :     ghevPowerManagerReady = NULL;
; 210  :     ghevResume = NULL;
; 211  :     ghevTimerResume = NULL;
; 212  :     ghtPnP = NULL;
; 213  :     ghtResume = NULL;
; 214  :     ghtActivityTimers = NULL;
; 215  :     ghtSystem = NULL;
; 216  : 
; 217  :     // cleanup event (hopefully never used)
; 218  :     ghevPmShutdown = CreateEvent(NULL, TRUE, FALSE, NULL);

  00404	2000		 movs        r0,#0
  00406	2200		 movs        r2,#0
  00408	2101		 movs        r1,#1
  0040a	6463		 str         r3,[r4,#0x44]
  0040c	60e3		 str         r3,[r4,#0xC]
  0040e	6223		 str         r3,[r4,#0x20]
  00410	6423		 str         r3,[r4,#0x40]
  00412	6023		 str         r3,[r4]
  00414	6123		 str         r3,[r4,#0x10]
  00416	6663		 str         r3,[r4,#0x64]
  00418	65e3		 str         r3,[r4,#0x5C]
  0041a	6163		 str         r3,[r4,#0x14]
  0041c	f000 f800	 bl          CreateEventW
  00420	6060		 str         r0,[r4,#4]

; 219  :     if(ghevPmShutdown == NULL) {

  00422	b970		 cbnz        r0,|$LN79@PmInit|

; 220  :         PMLOGMSG(ZONE_ERROR, (_T("%s: CreateEvent() failed for shutdown event\r\n"), pszFname));

  00424	f8d6 3440	 ldr         r3,[r6,#0x440]
  00428	f013 0f01	 tst         r3,#1
  0042c	f000 80b7	 beq         |$LN48@PmInit|
  00430	f8df 1408	 ldr         r1,|$LN91@PmInit|	; =|??_C@_1O@NDNKNHPJ@?$AAP?$AAm?$AAI?$AAn?$AAi?$AAt?$AA?$AA@|
  00434	f8df 044c	 ldr         r0,|$LN109@PmInit|	; =|??_C@_1FM@CIIPHLJM@?$AA?$CF?$AAs?$AA?3?$AA?5?$AAC?$AAr?$AAe?$AAa?$AAt?$AAe?$AAE?$AAv?$AAe?$AAn?$AAt?$AA?$CI?$AA?$CJ?$AA?5?$AAf?$AAa?$AAi?$AAl?$AAe?$AAd?$AA?5?$AAf?$AAo?$AAr?$AA?5?$AAs?$AAh?$AAu@|
  00438	f000 f800	 bl          NKDbgPrintfW
  0043c	f8df 0444	 ldr         r0,|$LN109@PmInit|	; =|??_C@_1FM@CIIPHLJM@?$AA?$CF?$AAs?$AA?3?$AA?5?$AAC?$AAr?$AAe?$AAa?$AAt?$AAe?$AAE?$AAv?$AAe?$AAn?$AAt?$AA?$CI?$AA?$CJ?$AA?5?$AAf?$AAa?$AAi?$AAl?$AAe?$AAd?$AA?5?$AAf?$AAo?$AAr?$AA?5?$AAs?$AAh?$AAu@|

; 221  :         fOk = FALSE;
; 222  :     } 
; 223  : 
; 224  :     // validate the power management registry settings.  OEM code should use this
; 225  :     // routine to make sure that registry settings are present for all the power
; 226  :     // states they expect to support.  If the registry is not configured, the OEM
; 227  :     // code can treat it as a fatal error or perform its own initialization.
; 228  :     if(fOk) {

  00440	e0aa		 b           |$LN81@PmInit|
  00442		 |$LN79@PmInit|

; 229  : 		//RETAILMSG(1,(TEXT("DEBUG : PlatformValidatePMRegistry\r\n")));
; 230  :         DWORD dwStatus = PlatformValidatePMRegistry();

  00442	f000 f800	 bl          PlatformValidatePMRegistry
  00446	4605		 mov         r5,r0

; 231  :         if(dwStatus != ERROR_SUCCESS) {

  00448	b1a5		 cbz         r5,|$LN35@PmInit|

; 232  : 			//RETAILMSG(1,(TEXT("DEBUG : PlatformValidatePMRegistry error\r\n")));
; 233  :             PMLOGMSG(ZONE_ERROR, (_T("%s: PlatformValidatePMRegistry() failed %d\r\n"), 
; 234  :                 pszFname, dwStatus));

  0044a	f8d6 3440	 ldr         r3,[r6,#0x440]
  0044e	f013 0f01	 tst         r3,#1
  00452	f000 80a4	 beq         |$LN48@PmInit|
  00456	f8df 13e4	 ldr.w       r1,|$LN91@PmInit|	; =|??_C@_1O@NDNKNHPJ@?$AAP?$AAm?$AAI?$AAn?$AAi?$AAt?$AA?$AA@|
  0045a	4602		 mov         r2,r0
  0045c	f8df 0420	 ldr         r0,|$LN108@PmInit|	; =|??_C@_1FK@KDNBKLHB@?$AA?$CF?$AAs?$AA?3?$AA?5?$AAP?$AAl?$AAa?$AAt?$AAf?$AAo?$AAr?$AAm?$AAV?$AAa?$AAl?$AAi?$AAd?$AAa?$AAt?$AAe?$AAP?$AAM?$AAR?$AAe?$AAg?$AAi?$AAs?$AAt?$AAr?$AAy?$AA?$CI?$AA?$CJ@|
  00460	f000 f800	 bl          NKDbgPrintfW
  00464	f8df 13d4	 ldr.w       r1,|$LN91@PmInit|	; =|??_C@_1O@NDNKNHPJ@?$AAP?$AAm?$AAI?$AAn?$AAi?$AAt?$AA?$AA@|
  00468	f8df 0414	 ldr         r0,|$LN108@PmInit|	; =|??_C@_1FK@KDNBKLHB@?$AA?$CF?$AAs?$AA?3?$AA?5?$AAP?$AAl?$AAa?$AAt?$AAf?$AAo?$AAr?$AAm?$AAV?$AAa?$AAl?$AAi?$AAd?$AAa?$AAt?$AAe?$AAP?$AAM?$AAR?$AAe?$AAg?$AAi?$AAs?$AAt?$AAr?$AAy?$AA?$CI?$AA?$CJ@|
  0046c	462a		 mov         r2,r5
  0046e	f000 f800	 bl          CeLogMsg

; 235  :             fOk = FALSE;
; 236  :         } else {

  00472	e094		 b           |$LN48@PmInit|
  00474		 |$LN35@PmInit|

; 237  : 			//RETAILMSG(1,(TEXT("DEBUG : DeviceListsInit\r\n")));
; 238  :             // read the list of interface types we will monitor
; 239  :             fOk = DeviceListsInit();

  00474	f000 f800	 bl          |?DeviceListsInit@@YAHXZ|
  00478	4605		 mov         r5,r0

; 240  :         }
; 241  :     }
; 242  : 
; 243  :     // create events
; 244  :     if(fOk) {

  0047a	2d00		 cmp         r5,#0
  0047c	f000 8090	 beq         |$LN80@PmInit|

; 245  :         ghevPowerManagerReady = CreateEvent(NULL, TRUE, FALSE, _T("SYSTEM/PowerManagerReady"));

  00480	f8df 33f8	 ldr.w       r3,|$LN107@PmInit|	; =|??_C@_1DC@OOKIINAM@?$AAS?$AAY?$AAS?$AAT?$AAE?$AAM?$AA?1?$AAP?$AAo?$AAw?$AAe?$AAr?$AAM?$AAa?$AAn?$AAa?$AAg?$AAe?$AAr?$AAR?$AAe?$AAa?$AAd?$AAy?$AA?$AA@|
  00484	2200		 movs        r2,#0
  00486	2101		 movs        r1,#1
  00488	2000		 movs        r0,#0
  0048a	f000 f800	 bl          CreateEventW
  0048e	6220		 str         r0,[r4,#0x20]

; 246  :         ghevResume = CreateEvent(NULL, FALSE, FALSE, NULL);

  00490	2000		 movs        r0,#0
  00492	2300		 movs        r3,#0
  00494	2200		 movs        r2,#0
  00496	2100		 movs        r1,#0
  00498	f000 f800	 bl          CreateEventW
  0049c	6420		 str         r0,[r4,#0x40]

; 247  :         ghevTimerResume = CreateEvent(NULL, FALSE, FALSE, NULL);

  0049e	2000		 movs        r0,#0
  004a0	2300		 movs        r3,#0
  004a2	2200		 movs        r2,#0
  004a4	2100		 movs        r1,#0
  004a6	f000 f800	 bl          CreateEventW
  004aa	6020		 str         r0,[r4]

; 248  :         hevPnPReady = CreateEvent(NULL, FALSE, FALSE, NULL);

  004ac	2000		 movs        r0,#0
  004ae	2300		 movs        r3,#0
  004b0	2200		 movs        r2,#0
  004b2	2100		 movs        r1,#0
  004b4	f000 f800	 bl          CreateEventW
  004b8	4607		 mov         r7,r0

; 249  :         hevResumeReady = CreateEvent(NULL, FALSE, FALSE, NULL);

  004ba	2000		 movs        r0,#0
  004bc	2300		 movs        r3,#0
  004be	2200		 movs        r2,#0
  004c0	2100		 movs        r1,#0
  004c2	9703		 str         r7,[sp,#0xC]
  004c4	f000 f800	 bl          CreateEventW
  004c8	4682		 mov         r10,r0

; 250  :         hevSystemReady = CreateEvent(NULL, FALSE, FALSE, NULL);

  004ca	2000		 movs        r0,#0
  004cc	2300		 movs        r3,#0
  004ce	2200		 movs        r2,#0
  004d0	2100		 movs        r1,#0
  004d2	f000 f800	 bl          CreateEventW
  004d6	4680		 mov         r8,r0

; 251  :         hevActivityTimersReady = CreateEvent(NULL, FALSE, FALSE, NULL);

  004d8	2000		 movs        r0,#0
  004da	2300		 movs        r3,#0
  004dc	2200		 movs        r2,#0
  004de	2100		 movs        r1,#0
  004e0	f000 f800	 bl          CreateEventW
  004e4	4681		 mov         r9,r0

; 252  :         hevDummy = CreateEvent(NULL, FALSE, FALSE, NULL);

  004e6	2000		 movs        r0,#0
  004e8	2300		 movs        r3,#0
  004ea	2200		 movs        r2,#0
  004ec	2100		 movs        r1,#0
  004ee	f000 f800	 bl          CreateEventW
  004f2	4603		 mov         r3,r0
  004f4	9302		 str         r3,[sp,#8]

; 253  : 
; 254  :         // check everything
; 255  :         if(hevPnPReady == NULL
; 256  :         || hevResumeReady == NULL 
; 257  :         || hevSystemReady == NULL
; 258  :         || hevActivityTimersReady == NULL
; 259  :         || hevDummy == NULL
; 260  :         || ghevPowerManagerReady == NULL
; 261  :         || ghevTimerResume == NULL
; 262  :         || ghevResume == NULL) {

  004f6	b17f		 cbz         r7,|$LN31@PmInit|
  004f8	f1ba 0f00	 cmp         r10,#0
  004fc	d00c		 beq         |$LN31@PmInit|
  004fe	f1b8 0f00	 cmp         r8,#0
  00502	d009		 beq         |$LN31@PmInit|
  00504	f1b9 0f00	 cmp         r9,#0
  00508	d006		 beq         |$LN31@PmInit|
  0050a	b12b		 cbz         r3,|$LN31@PmInit|
  0050c	6a23		 ldr         r3,[r4,#0x20]
  0050e	b11b		 cbz         r3,|$LN31@PmInit|
  00510	6823		 ldr         r3,[r4]
  00512	b10b		 cbz         r3,|$LN31@PmInit|
  00514	6c23		 ldr         r3,[r4,#0x40]
  00516	b97b		 cbnz        r3,|$LN32@PmInit|
  00518		 |$LN31@PmInit|

; 263  :             PMLOGMSG(ZONE_ERROR, (_T("%s: event creation failure\r\n"), pszFname));

  00518	f8d6 3440	 ldr         r3,[r6,#0x440]
  0051c	f013 0f01	 tst         r3,#1
  00520	d009		 beq         |$LN46@PmInit|
  00522	49c6		 ldr         r1,|$LN91@PmInit|	; =|??_C@_1O@NDNKNHPJ@?$AAP?$AAm?$AAI?$AAn?$AAi?$AAt?$AA?$AA@|
  00524	f8df 0350	 ldr.w       r0,|$LN106@PmInit|	; =|??_C@_1DK@HMANBMPF@?$AA?$CF?$AAs?$AA?3?$AA?5?$AAe?$AAv?$AAe?$AAn?$AAt?$AA?5?$AAc?$AAr?$AAe?$AAa?$AAt?$AAi?$AAo?$AAn?$AA?5?$AAf?$AAa?$AAi?$AAl?$AAu?$AAr?$AAe?$AA?$AN?$AA?6?$AA?$AA@|
  00528	f000 f800	 bl          NKDbgPrintfW
  0052c	49c3		 ldr         r1,|$LN91@PmInit|	; =|??_C@_1O@NDNKNHPJ@?$AAP?$AAm?$AAI?$AAn?$AAi?$AAt?$AA?$AA@|
  0052e	f8df 0348	 ldr.w       r0,|$LN106@PmInit|	; =|??_C@_1DK@HMANBMPF@?$AA?$CF?$AAs?$AA?3?$AA?5?$AAe?$AAv?$AAe?$AAn?$AAt?$AA?5?$AAc?$AAr?$AAe?$AAa?$AAt?$AAi?$AAo?$AAn?$AA?5?$AAf?$AAa?$AAi?$AAl?$AAu?$AAr?$AAe?$AA?$AN?$AA?6?$AA?$AA@|
  00532	f000 f800	 bl          CeLogMsg
  00536		 |$LN46@PmInit|

; 264  :             fOk = FALSE;

  00536	2500		 movs        r5,#0
  00538		 |$LN32@PmInit|

; 265  :         }
; 266  :     }
; 267  : 
; 268  :     // start threads
; 269  :     if(fOk) {

  00538	b395		 cbz         r5,|$LN80@PmInit|

; 270  :         ghtPnP = CreateThread(NULL, 0, PnpThreadProc, (LPVOID) hevPnPReady, 0, NULL);

  0053a	f8df 2338	 ldr.w       r2,|$LN105@PmInit|	; =|PnpThreadProc|
  0053e	2300		 movs        r3,#0
  00540	9301		 str         r3,[sp,#4]
  00542	9300		 str         r3,[sp]
  00544	463b		 mov         r3,r7
  00546	2100		 movs        r1,#0
  00548	2000		 movs        r0,#0
  0054a	f000 f800	 bl          CreateThread

; 271  :         ghtResume = CreateThread(NULL, 0, ResumeThreadProc, (LPVOID) hevResumeReady, 0, NULL);

  0054e	4ac8		 ldr         r2,|$LN104@PmInit|	; =|ResumeThreadProc|
  00550	2300		 movs        r3,#0
  00552	9301		 str         r3,[sp,#4]
  00554	9300		 str         r3,[sp]
  00556	6120		 str         r0,[r4,#0x10]
  00558	4653		 mov         r3,r10
  0055a	2100		 movs        r1,#0
  0055c	2000		 movs        r0,#0
  0055e	f000 f800	 bl          CreateThread

; 272  :         ghtActivityTimers = CreateThread(NULL, 0, ActivityTimersThreadProc, 
; 273  :             (LPVOID) hevActivityTimersReady, 0, NULL);

  00562	4ac2		 ldr         r2,|$LN103@PmInit|	; =|ActivityTimersThreadProc|
  00564	2300		 movs        r3,#0
  00566	9301		 str         r3,[sp,#4]
  00568	9300		 str         r3,[sp]
  0056a	6660		 str         r0,[r4,#0x64]
  0056c	464b		 mov         r3,r9
  0056e	2100		 movs        r1,#0
  00570	2000		 movs        r0,#0
  00572	f000 f800	 bl          CreateThread
  00576	6923		 ldr         r3,[r4,#0x10]
  00578	65e0		 str         r0,[r4,#0x5C]

; 274  :         
; 275  :         // check everything
; 276  :         if(ghtPnP == NULL 
; 277  :         || ghtResume == NULL 
; 278  :         || ghtActivityTimers == NULL) {

  0057a	b11b		 cbz         r3,|$LN28@PmInit|
  0057c	6e63		 ldr         r3,[r4,#0x64]
  0057e	b10b		 cbz         r3,|$LN28@PmInit|
  00580	4603		 mov         r3,r0
  00582	b96b		 cbnz        r3,|$LN80@PmInit|
  00584		 |$LN28@PmInit|

; 279  :             PMLOGMSG(ZONE_ERROR, (_T("%s: thread creation failure\r\n"), pszFname));

  00584	f8d6 3440	 ldr         r3,[r6,#0x440]
  00588	f013 0f01	 tst         r3,#1
  0058c	d007		 beq         |$LN48@PmInit|
  0058e	49ab		 ldr         r1,|$LN91@PmInit|	; =|??_C@_1O@NDNKNHPJ@?$AAP?$AAm?$AAI?$AAn?$AAi?$AAt?$AA?$AA@|
  00590	48b5		 ldr         r0,|$LN102@PmInit|	; =|??_C@_1DM@GDOFDLJI@?$AA?$CF?$AAs?$AA?3?$AA?5?$AAt?$AAh?$AAr?$AAe?$AAa?$AAd?$AA?5?$AAc?$AAr?$AAe?$AAa?$AAt?$AAi?$AAo?$AAn?$AA?5?$AAf?$AAa?$AAi?$AAl?$AAu?$AAr?$AAe?$AA?$AN?$AA?6?$AA?$AA@|
  00592	f000 f800	 bl          NKDbgPrintfW
  00596	48b4		 ldr         r0,|$LN102@PmInit|	; =|??_C@_1DM@GDOFDLJI@?$AA?$CF?$AAs?$AA?3?$AA?5?$AAt?$AAh?$AAr?$AAe?$AAa?$AAd?$AA?5?$AAc?$AAr?$AAe?$AAa?$AAt?$AAi?$AAo?$AAn?$AA?5?$AAf?$AAa?$AAi?$AAl?$AAu?$AAr?$AAe?$AA?$AN?$AA?6?$AA?$AA@|
  00598		 |$LN81@PmInit|
  00598	49a8		 ldr         r1,|$LN91@PmInit|	; =|??_C@_1O@NDNKNHPJ@?$AAP?$AAm?$AAI?$AAn?$AAi?$AAt?$AA?$AA@|
  0059a	f000 f800	 bl          CeLogMsg
  0059e		 |$LN48@PmInit|

; 280  :             fOk = FALSE;

  0059e	2500		 movs        r5,#0
  005a0		 |$LN80@PmInit|

; 221  :         fOk = FALSE;
; 222  :     } 
; 223  : 
; 224  :     // validate the power management registry settings.  OEM code should use this
; 225  :     // routine to make sure that registry settings are present for all the power
; 226  :     // states they expect to support.  If the registry is not configured, the OEM
; 227  :     // code can treat it as a fatal error or perform its own initialization.
; 228  :     if(fOk) {

  005a0	6923		 ldr         r3,[r4,#0x10]

; 281  :         }
; 282  :     }
; 283  : 
; 284  :     // wait for threads to initialize (or fail to initialize)
; 285  :     #define NUM_OF_READY_EXIT_PAIR 3
; 286  :     HANDLE hEvents[] = { hevPnPReady, hevResumeReady, hevActivityTimersReady, 

  005a2	9706		 str         r7,[sp,#0x18]
  005a4	f8cd a01c	 str         r10,[sp,#0x1C]

; 287  :         ghtPnP, ghtResume, ghtActivityTimers };

  005a8	9309		 str         r3,[sp,#0x24]
  005aa	6e63		 ldr         r3,[r4,#0x64]
  005ac	f8cd 9020	 str         r9,[sp,#0x20]

; 288  :     int iReady = 0;

  005b0	2700		 movs        r7,#0
  005b2	930a		 str         r3,[sp,#0x28]
  005b4	6de3		 ldr         r3,[r4,#0x5C]
  005b6	930b		 str         r3,[sp,#0x2C]
  005b8		 |$LL27@PmInit|

; 289  :     while( iReady < NUM_OF_READY_EXIT_PAIR  && fOk) {

  005b8	2d00		 cmp         r5,#0
  005ba	d079		 beq         |$LN16@PmInit|

; 290  :         DWORD dwStatus = WaitForMultipleObjects(_countof(hEvents), hEvents, FALSE, INFINITE);

  005bc	f06f 0300	 mvn         r3,#0
  005c0	2200		 movs        r2,#0
  005c2	a906		 add         r1,sp,#0x18
  005c4	2006		 movs        r0,#6
  005c6	f000 f800	 bl          WaitForMultipleObjects

; 291  :         switch(dwStatus) {

  005ca	2802		 cmp         r0,#2
  005cc	d922		 bls         |$LN23@PmInit|

; 300  :             break;
; 301  : 
; 302  :         // thread exiting events
; 303  :         case (WAIT_OBJECT_0 + 3):   // pnp exited
; 304  :         case (WAIT_OBJECT_0 + 4):   // resume exited
; 305  :         case (WAIT_OBJECT_0 + 5):   // activity timers exited
; 306  :             PMLOGMSG(ZONE_ERROR, (_T("%s: thread initialization failure\r\n"), pszFname));

  005ce	f8d6 3440	 ldr         r3,[r6,#0x440]
  005d2	2805		 cmp         r0,#5
  005d4	d80c		 bhi         |$LN21@PmInit|
  005d6	f013 0f01	 tst         r3,#1
  005da	d007		 beq         |$LN50@PmInit|
  005dc	4997		 ldr         r1,|$LN91@PmInit|	; =|??_C@_1O@NDNKNHPJ@?$AAP?$AAm?$AAI?$AAn?$AAi?$AAt?$AA?$AA@|
  005de	48a1		 ldr         r0,|$LN101@PmInit|	; =|??_C@_1EI@OEHMKAOO@?$AA?$CF?$AAs?$AA?3?$AA?5?$AAt?$AAh?$AAr?$AAe?$AAa?$AAd?$AA?5?$AAi?$AAn?$AAi?$AAt?$AAi?$AAa?$AAl?$AAi?$AAz?$AAa?$AAt?$AAi?$AAo?$AAn?$AA?5?$AAf?$AAa?$AAi?$AAl?$AAu?$AAr@|
  005e0	f000 f800	 bl          NKDbgPrintfW
  005e4	4995		 ldr         r1,|$LN91@PmInit|	; =|??_C@_1O@NDNKNHPJ@?$AAP?$AAm?$AAI?$AAn?$AAi?$AAt?$AA?$AA@|
  005e6	489f		 ldr         r0,|$LN101@PmInit|	; =|??_C@_1EI@OEHMKAOO@?$AA?$CF?$AAs?$AA?3?$AA?5?$AAt?$AAh?$AAr?$AAe?$AAa?$AAd?$AA?5?$AAi?$AAn?$AAi?$AAt?$AAi?$AAa?$AAl?$AAi?$AAz?$AAa?$AAt?$AAi?$AAo?$AAn?$AA?5?$AAf?$AAa?$AAi?$AAl?$AAu?$AAr@|
  005e8	f000 f800	 bl          CeLogMsg
  005ec		 |$LN50@PmInit|

; 307  :             fOk = FALSE;

  005ec	2500		 movs        r5,#0

; 308  :             break;

  005ee	e017		 b           |$LN24@PmInit|
  005f0		 |$LN21@PmInit|

; 309  :         default:
; 310  :             PMLOGMSG(ZONE_ERROR, (_T("%s: WaitForMultipleObjects() returnd %d, status is %d\r\n"),
; 311  :                 pszFname, GetLastError()));

  005f0	f013 0f01	 tst         r3,#1
  005f4	d0fa		 beq         |$LN50@PmInit|
  005f6	f000 f800	 bl          GetLastError
  005fa	4990		 ldr         r1,|$LN91@PmInit|	; =|??_C@_1O@NDNKNHPJ@?$AAP?$AAm?$AAI?$AAn?$AAi?$AAt?$AA?$AA@|
  005fc	4602		 mov         r2,r0
  005fe	4898		 ldr         r0,|$LN100@PmInit|	; =|??_C@_1HA@PHFPGFKF@?$AA?$CF?$AAs?$AA?3?$AA?5?$AAW?$AAa?$AAi?$AAt?$AAF?$AAo?$AAr?$AAM?$AAu?$AAl?$AAt?$AAi?$AAp?$AAl?$AAe?$AAO?$AAb?$AAj?$AAe?$AAc?$AAt?$AAs?$AA?$CI?$AA?$CJ?$AA?5?$AAr?$AAe?$AAt@|
  00600	f000 f800	 bl          NKDbgPrintfW
  00604	f000 f800	 bl          GetLastError
  00608	498c		 ldr         r1,|$LN91@PmInit|	; =|??_C@_1O@NDNKNHPJ@?$AAP?$AAm?$AAI?$AAn?$AAi?$AAt?$AA?$AA@|
  0060a	4602		 mov         r2,r0
  0060c	4894		 ldr         r0,|$LN100@PmInit|	; =|??_C@_1HA@PHFPGFKF@?$AA?$CF?$AAs?$AA?3?$AA?5?$AAW?$AAa?$AAi?$AAt?$AAF?$AAo?$AAr?$AAM?$AAu?$AAl?$AAt?$AAi?$AAp?$AAl?$AAe?$AAO?$AAb?$AAj?$AAe?$AAc?$AAt?$AAs?$AA?$CI?$AA?$CJ?$AA?5?$AAr?$AAe?$AAt@|
  0060e	f000 f800	 bl          CeLogMsg

; 312  :             fOk = FALSE;

  00612	e7eb		 b           |$LN50@PmInit|
  00614		 |$LN23@PmInit|

; 292  :         // thread ready events
; 293  :         case (WAIT_OBJECT_0 + 0):   // pnp ready
; 294  :         case (WAIT_OBJECT_0 + 1):   // resume ready
; 295  :         case (WAIT_OBJECT_0 + 2):   // activity timers ready
; 296  :             // don't watch for the thread exiting now -- some may do
; 297  :             // so if they don't have work to do.
; 298  :             hEvents[dwStatus - WAIT_OBJECT_0 + NUM_OF_READY_EXIT_PAIR] = hevDummy;

  00614	9a02		 ldr         r2,[sp,#8]
  00616	ab06		 add         r3,sp,#0x18
  00618	eb03 0380	 add         r3,r3,r0,lsl #2
  0061c	60da		 str         r2,[r3,#0xC]

; 299  :             iReady++;

  0061e	3701		 adds        r7,#1
  00620		 |$LN24@PmInit|

; 289  :     while( iReady < NUM_OF_READY_EXIT_PAIR  && fOk) {

  00620	2f03		 cmp         r7,#3
  00622	dbc9		 blt         |$LL27@PmInit|

; 313  :             break;
; 314  :         }
; 315  :     }
; 316  : 
; 317  :     if (fOk) {

  00624	2d00		 cmp         r5,#0
  00626	d043		 beq         |$LN16@PmInit|

; 318  :         fOk = PMExt_Init();

  00628	f000 f800	 bl          |?PMExt_Init@@YAHXZ|
  0062c	4605		 mov         r5,r0

; 319  :     }
; 320  :     // if everything is initialized, we're ready start the system thread
; 321  :     if(fOk) {

  0062e	b3fd		 cbz         r5,|$LN16@PmInit|

; 322  :         // check that the thread started
; 323  :         ghtSystem = CreateThread(NULL, 0, SystemThreadProc, (LPVOID) hevSystemReady, 0, NULL);

  00630	4a8a		 ldr         r2,|$LN99@PmInit|	; =|SystemThreadProc|
  00632	2300		 movs        r3,#0
  00634	9301		 str         r3,[sp,#4]
  00636	9300		 str         r3,[sp]
  00638	4643		 mov         r3,r8
  0063a	2100		 movs        r1,#0
  0063c	2000		 movs        r0,#0
  0063e	f000 f800	 bl          CreateThread
  00642	6160		 str         r0,[r4,#0x14]

; 324  :         if(ghtSystem == NULL) {

  00644	b970		 cbnz        r0,|$LN18@PmInit|

; 325  :             PMLOGMSG(ZONE_ERROR, (_T("%s: system thread creation failure\r\n"), pszFname));

  00646	f8d6 3440	 ldr         r3,[r6,#0x440]
  0064a	f013 0f01	 tst         r3,#1
  0064e	d008		 beq         |$LN54@PmInit|
  00650	497a		 ldr         r1,|$LN91@PmInit|	; =|??_C@_1O@NDNKNHPJ@?$AAP?$AAm?$AAI?$AAn?$AAi?$AAt?$AA?$AA@|
  00652	4881		 ldr         r0,|$LN98@PmInit|	; =|??_C@_1EK@MHHINMNC@?$AA?$CF?$AAs?$AA?3?$AA?5?$AAs?$AAy?$AAs?$AAt?$AAe?$AAm?$AA?5?$AAt?$AAh?$AAr?$AAe?$AAa?$AAd?$AA?5?$AAc?$AAr?$AAe?$AAa?$AAt?$AAi?$AAo?$AAn?$AA?5?$AAf?$AAa?$AAi?$AAl?$AAu@|
  00654	f000 f800	 bl          NKDbgPrintfW
  00658	4978		 ldr         r1,|$LN91@PmInit|	; =|??_C@_1O@NDNKNHPJ@?$AAP?$AAm?$AAI?$AAn?$AAi?$AAt?$AA?$AA@|
  0065a	487f		 ldr         r0,|$LN98@PmInit|	; =|??_C@_1EK@MHHINMNC@?$AA?$CF?$AAs?$AA?3?$AA?5?$AAs?$AAy?$AAs?$AAt?$AAe?$AAm?$AA?5?$AAt?$AAh?$AAr?$AAe?$AAa?$AAd?$AA?5?$AAc?$AAr?$AAe?$AAa?$AAt?$AAi?$AAo?$AAn?$AA?5?$AAf?$AAa?$AAi?$AAl?$AAu@|
  0065c	f000 f800	 bl          CeLogMsg
  00660	6960		 ldr         r0,[r4,#0x14]
  00662		 |$LN54@PmInit|

; 326  :             fOk = FALSE;

  00662	2500		 movs        r5,#0
  00664		 |$LN18@PmInit|

; 327  :         }
; 328  :         
; 329  :         // wait for it to initialize or exit
; 330  :         HANDLE hSystemEvents[] = { hevSystemReady, ghtSystem };

  00664	9005		 str         r0,[sp,#0x14]

; 331  :         DWORD dwStatus = WaitForMultipleObjects(_countof(hSystemEvents), hSystemEvents, FALSE, INFINITE);

  00666	2002		 movs        r0,#2
  00668	a904		 add         r1,sp,#0x10
  0066a	f06f 0300	 mvn         r3,#0
  0066e	2200		 movs        r2,#0
  00670	f8cd 8010	 str         r8,[sp,#0x10]
  00674	f000 f800	 bl          WaitForMultipleObjects

; 332  :         if(dwStatus != WAIT_OBJECT_0) {

  00678	b168		 cbz         r0,|$LN17@PmInit|

; 333  :             PMLOGMSG(ZONE_ERROR, (_T("%s: system thread initialization failure\r\n"), pszFname));

  0067a	f8d6 3440	 ldr         r3,[r6,#0x440]
  0067e	f013 0f01	 tst         r3,#1
  00682	d007		 beq         |$LN56@PmInit|
  00684	496d		 ldr         r1,|$LN91@PmInit|	; =|??_C@_1O@NDNKNHPJ@?$AAP?$AAm?$AAI?$AAn?$AAi?$AAt?$AA?$AA@|
  00686	4873		 ldr         r0,|$LN97@PmInit|	; =|??_C@_1FG@LNDLJJOC@?$AA?$CF?$AAs?$AA?3?$AA?5?$AAs?$AAy?$AAs?$AAt?$AAe?$AAm?$AA?5?$AAt?$AAh?$AAr?$AAe?$AAa?$AAd?$AA?5?$AAi?$AAn?$AAi?$AAt?$AAi?$AAa?$AAl?$AAi?$AAz?$AAa?$AAt?$AAi?$AAo?$AAn@|
  00688	f000 f800	 bl          NKDbgPrintfW
  0068c	496b		 ldr         r1,|$LN91@PmInit|	; =|??_C@_1O@NDNKNHPJ@?$AAP?$AAm?$AAI?$AAn?$AAi?$AAt?$AA?$AA@|
  0068e	4871		 ldr         r0,|$LN97@PmInit|	; =|??_C@_1FG@LNDLJJOC@?$AA?$CF?$AAs?$AA?3?$AA?5?$AAs?$AAy?$AAs?$AAt?$AAe?$AAm?$AA?5?$AAt?$AAh?$AAr?$AAe?$AAa?$AAd?$AA?5?$AAi?$AAn?$AAi?$AAt?$AAi?$AAa?$AAl?$AAi?$AAz?$AAa?$AAt?$AAi?$AAo?$AAn@|
  00690	f000 f800	 bl          CeLogMsg
  00694		 |$LN56@PmInit|

; 334  :             fOk = FALSE;

  00694	2500		 movs        r5,#0
  00696		 |$LN17@PmInit|

; 335  :         }
; 336  :     } 
; 337  :     
; 338  :     // should we signal that our API is ready?
; 339  :     if(fOk) {

  00696	b15d		 cbz         r5,|$LN16@PmInit|

; 340  :         // yes, the PM is initialized
; 341  :         PmSetSystemPowerState(NULL, POWER_STATE_ON, POWER_FORCE);

  00698	f44f 5280	 mov         r2,#0x1000
  0069c	f44f 3180	 mov         r1,#0x10000
  006a0	2000		 movs        r0,#0
  006a2	f000 f800	 bl          PmSetSystemPowerState
; File c:\wince800\public\common\sdk\inc\kfuncs.h

; 244  :     return EventModify(h,EVENT_SET);

  006a6	6a20		 ldr         r0,[r4,#0x20]
  006a8	2103		 movs        r1,#3
  006aa	f000 f800	 bl          EventModify
; File c:\wince800\platform\rrm_ppc_windows\src\drivers\pm\mdd\pminit.cpp

; 343  :     } else {

  006ae	e07f		 b           |$LN6@PmInit|
  006b0		 |$LN16@PmInit|

; 344  :         // no, clean up
; 345  :         if(ghevPmShutdown != NULL) {

  006b0	6860		 ldr         r0,[r4,#4]
  006b2	b110		 cbz         r0,|$LN75@PmInit|
; File c:\wince800\public\common\sdk\inc\kfuncs.h

; 244  :     return EventModify(h,EVENT_SET);

  006b4	2103		 movs        r1,#3
  006b6	f000 f800	 bl          EventModify
  006ba		 |$LN75@PmInit|
; File c:\wince800\platform\rrm_ppc_windows\src\drivers\pm\mdd\pminit.cpp

; 349  :         PMExt_DeInit();

  006ba	f000 f800	 bl          |?PMExt_DeInit@@YAHXZ|

; 350  : 
; 351  :         // wait for threads to exit
; 352  :         if(ghtPnP != NULL) {

  006be	6920		 ldr         r0,[r4,#0x10]
  006c0	b1a0		 cbz         r0,|$LN13@PmInit|

; 353  :             PMLOGMSG(ZONE_ERROR, (_T("%s: shutting down PnP thread\r\n"), pszFname));

  006c2	f8d6 3440	 ldr         r3,[r6,#0x440]
  006c6	f013 0f01	 tst         r3,#1
  006ca	d008		 beq         |$LN58@PmInit|
  006cc	495b		 ldr         r1,|$LN91@PmInit|	; =|??_C@_1O@NDNKNHPJ@?$AAP?$AAm?$AAI?$AAn?$AAi?$AAt?$AA?$AA@|
  006ce	4860		 ldr         r0,|$LN96@PmInit|	; =|??_C@_1DO@JOHFJEDC@?$AA?$CF?$AAs?$AA?3?$AA?5?$AAs?$AAh?$AAu?$AAt?$AAt?$AAi?$AAn?$AAg?$AA?5?$AAd?$AAo?$AAw?$AAn?$AA?5?$AAP?$AAn?$AAP?$AA?5?$AAt?$AAh?$AAr?$AAe?$AAa?$AAd?$AA?$AN?$AA?6?$AA?$AA@|
  006d0	f000 f800	 bl          NKDbgPrintfW
  006d4	4959		 ldr         r1,|$LN91@PmInit|	; =|??_C@_1O@NDNKNHPJ@?$AAP?$AAm?$AAI?$AAn?$AAi?$AAt?$AA?$AA@|
  006d6	485e		 ldr         r0,|$LN96@PmInit|	; =|??_C@_1DO@JOHFJEDC@?$AA?$CF?$AAs?$AA?3?$AA?5?$AAs?$AAh?$AAu?$AAt?$AAt?$AAi?$AAn?$AAg?$AA?5?$AAd?$AAo?$AAw?$AAn?$AA?5?$AAP?$AAn?$AAP?$AA?5?$AAt?$AAh?$AAr?$AAe?$AAa?$AAd?$AA?$AN?$AA?6?$AA?$AA@|
  006d8	f000 f800	 bl          CeLogMsg
  006dc	6920		 ldr         r0,[r4,#0x10]
  006de		 |$LN58@PmInit|

; 354  :             WaitForSingleObject(ghtPnP, INFINITE);

  006de	f06f 0100	 mvn         r1,#0
  006e2	f000 f800	 bl          WaitForSingleObject

; 355  :             CloseHandle(ghtPnP);

  006e6	6920		 ldr         r0,[r4,#0x10]
  006e8	f000 f800	 bl          CloseHandle
  006ec		 |$LN13@PmInit|

; 356  :         }
; 357  :         if(ghtResume != NULL) {

  006ec	6e60		 ldr         r0,[r4,#0x64]
  006ee	b1a0		 cbz         r0,|$LN12@PmInit|

; 358  :             PMLOGMSG(ZONE_ERROR, (_T("%s: shutting down resume thread\r\n"), pszFname));

  006f0	f8d6 3440	 ldr         r3,[r6,#0x440]
  006f4	f013 0f01	 tst         r3,#1
  006f8	d008		 beq         |$LN60@PmInit|
  006fa	4950		 ldr         r1,|$LN91@PmInit|	; =|??_C@_1O@NDNKNHPJ@?$AAP?$AAm?$AAI?$AAn?$AAi?$AAt?$AA?$AA@|
  006fc	4853		 ldr         r0,|$LN95@PmInit|	; =|??_C@_1EE@OMMAAAMF@?$AA?$CF?$AAs?$AA?3?$AA?5?$AAs?$AAh?$AAu?$AAt?$AAt?$AAi?$AAn?$AAg?$AA?5?$AAd?$AAo?$AAw?$AAn?$AA?5?$AAr?$AAe?$AAs?$AAu?$AAm?$AAe?$AA?5?$AAt?$AAh?$AAr?$AAe?$AAa?$AAd?$AA?$AN@|
  006fe	f000 f800	 bl          NKDbgPrintfW
  00702	494e		 ldr         r1,|$LN91@PmInit|	; =|??_C@_1O@NDNKNHPJ@?$AAP?$AAm?$AAI?$AAn?$AAi?$AAt?$AA?$AA@|
  00704	4851		 ldr         r0,|$LN95@PmInit|	; =|??_C@_1EE@OMMAAAMF@?$AA?$CF?$AAs?$AA?3?$AA?5?$AAs?$AAh?$AAu?$AAt?$AAt?$AAi?$AAn?$AAg?$AA?5?$AAd?$AAo?$AAw?$AAn?$AA?5?$AAr?$AAe?$AAs?$AAu?$AAm?$AAe?$AA?5?$AAt?$AAh?$AAr?$AAe?$AAa?$AAd?$AA?$AN@|
  00706	f000 f800	 bl          CeLogMsg
  0070a	6e60		 ldr         r0,[r4,#0x64]
  0070c		 |$LN60@PmInit|

; 359  :             WaitForSingleObject(ghtResume, INFINITE);

  0070c	f06f 0100	 mvn         r1,#0
  00710	f000 f800	 bl          WaitForSingleObject

; 360  :             CloseHandle(ghtResume);

  00714	6e60		 ldr         r0,[r4,#0x64]
  00716	f000 f800	 bl          CloseHandle
  0071a		 |$LN12@PmInit|

; 361  :         }
; 362  :         if(ghtSystem != NULL) {

  0071a	6960		 ldr         r0,[r4,#0x14]
  0071c	b1a0		 cbz         r0,|$LN11@PmInit|

; 363  :             PMLOGMSG(ZONE_ERROR, (_T("%s: shutting down system thread\r\n"), pszFname));

  0071e	f8d6 3440	 ldr         r3,[r6,#0x440]
  00722	f013 0f01	 tst         r3,#1
  00726	d008		 beq         |$LN62@PmInit|
  00728	4944		 ldr         r1,|$LN91@PmInit|	; =|??_C@_1O@NDNKNHPJ@?$AAP?$AAm?$AAI?$AAn?$AAi?$AAt?$AA?$AA@|
  0072a	4847		 ldr         r0,|$LN94@PmInit|	; =|??_C@_1EE@CIFABHGF@?$AA?$CF?$AAs?$AA?3?$AA?5?$AAs?$AAh?$AAu?$AAt?$AAt?$AAi?$AAn?$AAg?$AA?5?$AAd?$AAo?$AAw?$AAn?$AA?5?$AAs?$AAy?$AAs?$AAt?$AAe?$AAm?$AA?5?$AAt?$AAh?$AAr?$AAe?$AAa?$AAd?$AA?$AN@|
  0072c	f000 f800	 bl          NKDbgPrintfW
  00730	4942		 ldr         r1,|$LN91@PmInit|	; =|??_C@_1O@NDNKNHPJ@?$AAP?$AAm?$AAI?$AAn?$AAi?$AAt?$AA?$AA@|
  00732	4845		 ldr         r0,|$LN94@PmInit|	; =|??_C@_1EE@CIFABHGF@?$AA?$CF?$AAs?$AA?3?$AA?5?$AAs?$AAh?$AAu?$AAt?$AAt?$AAi?$AAn?$AAg?$AA?5?$AAd?$AAo?$AAw?$AAn?$AA?5?$AAs?$AAy?$AAs?$AAt?$AAe?$AAm?$AA?5?$AAt?$AAh?$AAr?$AAe?$AAa?$AAd?$AA?$AN@|
  00734	f000 f800	 bl          CeLogMsg
  00738	6960		 ldr         r0,[r4,#0x14]
  0073a		 |$LN62@PmInit|

; 364  :             WaitForSingleObject(ghtSystem, INFINITE);

  0073a	f06f 0100	 mvn         r1,#0
  0073e	f000 f800	 bl          WaitForSingleObject

; 365  :             CloseHandle(ghtSystem);

  00742	6960		 ldr         r0,[r4,#0x14]
  00744	f000 f800	 bl          CloseHandle
  00748		 |$LN11@PmInit|

; 366  :         }
; 367  :         if(ghtActivityTimers != NULL) {

  00748	6de0		 ldr         r0,[r4,#0x5C]
  0074a	b1a0		 cbz         r0,|$LN10@PmInit|

; 368  :             PMLOGMSG(ZONE_ERROR, (_T("%s: shutting down activity timers thread\r\n"), pszFname));

  0074c	f8d6 3440	 ldr         r3,[r6,#0x440]
  00750	f013 0f01	 tst         r3,#1
  00754	d008		 beq         |$LN64@PmInit|
  00756	4939		 ldr         r1,|$LN91@PmInit|	; =|??_C@_1O@NDNKNHPJ@?$AAP?$AAm?$AAI?$AAn?$AAi?$AAt?$AA?$AA@|
  00758	483a		 ldr         r0,|$LN93@PmInit|	; =|??_C@_1FG@OCCOMIBI@?$AA?$CF?$AAs?$AA?3?$AA?5?$AAs?$AAh?$AAu?$AAt?$AAt?$AAi?$AAn?$AAg?$AA?5?$AAd?$AAo?$AAw?$AAn?$AA?5?$AAa?$AAc?$AAt?$AAi?$AAv?$AAi?$AAt?$AAy?$AA?5?$AAt?$AAi?$AAm?$AAe?$AAr@|
  0075a	f000 f800	 bl          NKDbgPrintfW
  0075e	4937		 ldr         r1,|$LN91@PmInit|	; =|??_C@_1O@NDNKNHPJ@?$AAP?$AAm?$AAI?$AAn?$AAi?$AAt?$AA?$AA@|
  00760	4838		 ldr         r0,|$LN93@PmInit|	; =|??_C@_1FG@OCCOMIBI@?$AA?$CF?$AAs?$AA?3?$AA?5?$AAs?$AAh?$AAu?$AAt?$AAt?$AAi?$AAn?$AAg?$AA?5?$AAd?$AAo?$AAw?$AAn?$AA?5?$AAa?$AAc?$AAt?$AAi?$AAv?$AAi?$AAt?$AAy?$AA?5?$AAt?$AAi?$AAm?$AAe?$AAr@|
  00762	f000 f800	 bl          CeLogMsg
  00766	6de0		 ldr         r0,[r4,#0x5C]
  00768		 |$LN64@PmInit|

; 369  :             WaitForSingleObject(ghtActivityTimers, INFINITE);

  00768	f06f 0100	 mvn         r1,#0
  0076c	f000 f800	 bl          WaitForSingleObject

; 370  :             CloseHandle(ghtActivityTimers);

  00770	6de0		 ldr         r0,[r4,#0x5C]
  00772	f000 f800	 bl          CloseHandle
  00776		 |$LN10@PmInit|

; 371  :         }
; 372  : 
; 373  :         PMLOGMSG(ZONE_ERROR, (_T("%s: closing handles\r\n"), pszFname));

  00776	f8d6 3440	 ldr         r3,[r6,#0x440]
  0077a	f013 0f01	 tst         r3,#1
  0077e	d007		 beq         |$LN66@PmInit|
  00780	492e		 ldr         r1,|$LN91@PmInit|	; =|??_C@_1O@NDNKNHPJ@?$AAP?$AAm?$AAI?$AAn?$AAi?$AAt?$AA?$AA@|
  00782	482f		 ldr         r0,|$LN92@PmInit|	; =|??_C@_1CM@JOGFCBGM@?$AA?$CF?$AAs?$AA?3?$AA?5?$AAc?$AAl?$AAo?$AAs?$AAi?$AAn?$AAg?$AA?5?$AAh?$AAa?$AAn?$AAd?$AAl?$AAe?$AAs?$AA?$AN?$AA?6?$AA?$AA@|
  00784	f000 f800	 bl          NKDbgPrintfW
  00788	492c		 ldr         r1,|$LN91@PmInit|	; =|??_C@_1O@NDNKNHPJ@?$AAP?$AAm?$AAI?$AAn?$AAi?$AAt?$AA?$AA@|
  0078a	482d		 ldr         r0,|$LN92@PmInit|	; =|??_C@_1CM@JOGFCBGM@?$AA?$CF?$AAs?$AA?3?$AA?5?$AAc?$AAl?$AAo?$AAs?$AAi?$AAn?$AAg?$AA?5?$AAh?$AAa?$AAn?$AAd?$AAl?$AAe?$AAs?$AA?$AN?$AA?6?$AA?$AA@|
  0078c	f000 f800	 bl          CeLogMsg
  00790		 |$LN66@PmInit|

; 374  :         if(ghevPmShutdown != NULL) CloseHandle(ghevPmShutdown);

  00790	6860		 ldr         r0,[r4,#4]
  00792	b108		 cbz         r0,|$LN9@PmInit|
  00794	f000 f800	 bl          CloseHandle
  00798		 |$LN9@PmInit|

; 375  :         if(ghevPowerManagerReady != NULL) CloseHandle(ghevPowerManagerReady);

  00798	6a20		 ldr         r0,[r4,#0x20]
  0079a	b108		 cbz         r0,|$LN8@PmInit|
  0079c	f000 f800	 bl          CloseHandle
  007a0		 |$LN8@PmInit|

; 376  :         if(ghevResume != NULL) CloseHandle(ghevResume);

  007a0	6c20		 ldr         r0,[r4,#0x40]
  007a2	b108		 cbz         r0,|$LN7@PmInit|
  007a4	f000 f800	 bl          CloseHandle
  007a8		 |$LN7@PmInit|

; 377  :         if(ghevTimerResume != NULL) CloseHandle(ghevTimerResume);

  007a8	6820		 ldr         r0,[r4]
  007aa	b108		 cbz         r0,|$LN6@PmInit|
  007ac	f000 f800	 bl          CloseHandle
  007b0		 |$LN6@PmInit|

; 378  :     }
; 379  : 
; 380  :     // clean up status handles
; 381  :     if(hevPnPReady != NULL) CloseHandle(hevPnPReady);

  007b0	9803		 ldr         r0,[sp,#0xC]
  007b2	b108		 cbz         r0,|$LN5@PmInit|
  007b4	f000 f800	 bl          CloseHandle
  007b8		 |$LN5@PmInit|

; 382  :     if(hevResumeReady != NULL) CloseHandle(hevResumeReady);

  007b8	f1ba 0f00	 cmp         r10,#0
  007bc	d002		 beq         |$LN4@PmInit|
  007be	4650		 mov         r0,r10
  007c0	f000 f800	 bl          CloseHandle
  007c4		 |$LN4@PmInit|

; 383  :     if(hevSystemReady != NULL) CloseHandle(hevSystemReady);

  007c4	f1b8 0f00	 cmp         r8,#0
  007c8	d002		 beq         |$LN3@PmInit|
  007ca	4640		 mov         r0,r8
  007cc	f000 f800	 bl          CloseHandle
  007d0		 |$LN3@PmInit|

; 384  :     if(hevActivityTimersReady != NULL) CloseHandle(hevActivityTimersReady);

  007d0	f1b9 0f00	 cmp         r9,#0
  007d4	d002		 beq         |$LN2@PmInit|
  007d6	4648		 mov         r0,r9
  007d8	f000 f800	 bl          CloseHandle
  007dc		 |$LN2@PmInit|

; 385  :     if(hevDummy != NULL) CloseHandle(hevDummy);

  007dc	9b02		 ldr         r3,[sp,#8]
  007de	b113		 cbz         r3,|$LN1@PmInit|
  007e0	4618		 mov         r0,r3
  007e2	f000 f800	 bl          CloseHandle
  007e6		 |$LN1@PmInit|

; 386  : 
; 387  :     PMLOGMSG((!fOk && ZONE_ERROR) || ZONE_INIT || ZONE_API, 
; 388  :         (_T("-%s: returning %d\r\n"), pszFname, fOk));

  007e6	b925		 cbnz        r5,|$LN68@PmInit|
  007e8	f8d6 3440	 ldr         r3,[r6,#0x440]
  007ec	f013 0f01	 tst         r3,#1
  007f0	d107		 bne         |$LN69@PmInit|
  007f2		 |$LN68@PmInit|

; 343  :     } else {

  007f2	f8d6 3440	 ldr         r3,[r6,#0x440]

; 386  : 
; 387  :     PMLOGMSG((!fOk && ZONE_ERROR) || ZONE_INIT || ZONE_API, 
; 388  :         (_T("-%s: returning %d\r\n"), pszFname, fOk));

  007f6	f013 0f04	 tst         r3,#4
  007fa	d102		 bne         |$LN69@PmInit|
  007fc	f413 6f00	 tst         r3,#0x800
  00800	d009		 beq         |$LN70@PmInit|
  00802		 |$LN69@PmInit|
  00802	490e		 ldr         r1,|$LN91@PmInit|	; =|??_C@_1O@NDNKNHPJ@?$AAP?$AAm?$AAI?$AAn?$AAi?$AAt?$AA?$AA@|
  00804	480c		 ldr         r0,|$LN90@PmInit|	; =|??_C@_1CI@JMHLNJN@?$AA?9?$AA?$CF?$AAs?$AA?3?$AA?5?$AAr?$AAe?$AAt?$AAu?$AAr?$AAn?$AAi?$AAn?$AAg?$AA?5?$AA?$CF?$AAd?$AA?$AN?$AA?6?$AA?$AA@|
  00806	462a		 mov         r2,r5
  00808	f000 f800	 bl          NKDbgPrintfW
  0080c	490b		 ldr         r1,|$LN91@PmInit|	; =|??_C@_1O@NDNKNHPJ@?$AAP?$AAm?$AAI?$AAn?$AAi?$AAt?$AA?$AA@|
  0080e	480a		 ldr         r0,|$LN90@PmInit|	; =|??_C@_1CI@JMHLNJN@?$AA?9?$AA?$CF?$AAs?$AA?3?$AA?5?$AAr?$AAe?$AAt?$AAu?$AAr?$AAn?$AAi?$AAn?$AAg?$AA?5?$AA?$CF?$AAd?$AA?$AN?$AA?6?$AA?$AA@|
  00810	462a		 mov         r2,r5
  00812	f000 f800	 bl          CeLogMsg
  00816		 |$LN70@PmInit|

; 389  : 
; 390  :     DEBUGCHK(fOk);      // make sure we raise a red flag if the init fails

  00816	b93d		 cbnz        r5,|$LN72@PmInit|
  00818	4a06		 ldr         r2,|$LN89@PmInit|	; =|??_C@_1IG@GFJFBGDJ@?$AAc?$AA?3?$AA?2?$AAw?$AAi?$AAn?$AAc?$AAe?$AA8?$AA0?$AA0?$AA?2?$AAp?$AAl?$AAa?$AAt?$AAf?$AAo?$AAr?$AAm?$AA?2?$AAr?$AAr?$AAm?$AA_?$AAp?$AAp?$AAc?$AA_?$AAw?$AAi?$AAn@|
  0081a	4805		 ldr         r0,|$LN88@PmInit|	; =|??_C@_1FK@FNONLNGN@?$AA?$CF?$AAs?$AA?3?$AA?5?$AAD?$AAE?$AAB?$AAU?$AAG?$AAC?$AAH?$AAK?$AA?5?$AAf?$AAa?$AAi?$AAl?$AAe?$AAd?$AA?5?$AAi?$AAn?$AA?5?$AAf?$AAi?$AAl?$AAe?$AA?5?$AA?$CF?$AAs?$AA?5?$AAa@|
  0081c	f44f 73c3	 mov         r3,#0x186
  00820	4631		 mov         r1,r6
  00822	f000 f800	 bl          NKDbgPrintfW
  00826	defe		 __debugbreak
  00828		 |$LN72@PmInit|

; 391  : 
; 392  :     return fOk;
; 393  : }

  00828	4628		 mov         r0,r5
  0082a		 |$M86|
  0082a	b00d		 add         sp,sp,#0x34
  0082c	e8bd 8ff0	 pop         {r4-r11,pc}
  00830		 |$LN87@PmInit|
  00830		 |$LN88@PmInit|
  00830	0000 0000	 DCD         |??_C@_1FK@FNONLNGN@?$AA?$CF?$AAs?$AA?3?$AA?5?$AAD?$AAE?$AAB?$AAU?$AAG?$AAC?$AAH?$AAK?$AA?5?$AAf?$AAa?$AAi?$AAl?$AAe?$AAd?$AA?5?$AAi?$AAn?$AA?5?$AAf?$AAi?$AAl?$AAe?$AA?5?$AA?$CF?$AAs?$AA?5?$AAa@|
  00834		 |$LN89@PmInit|
  00834	0000 0000	 DCD         |??_C@_1IG@GFJFBGDJ@?$AAc?$AA?3?$AA?2?$AAw?$AAi?$AAn?$AAc?$AAe?$AA8?$AA0?$AA0?$AA?2?$AAp?$AAl?$AAa?$AAt?$AAf?$AAo?$AAr?$AAm?$AA?2?$AAr?$AAr?$AAm?$AA_?$AAp?$AAp?$AAc?$AA_?$AAw?$AAi?$AAn@|
  00838		 |$LN90@PmInit|
  00838	0000 0000	 DCD         |??_C@_1CI@JMHLNJN@?$AA?9?$AA?$CF?$AAs?$AA?3?$AA?5?$AAr?$AAe?$AAt?$AAu?$AAr?$AAn?$AAi?$AAn?$AAg?$AA?5?$AA?$CF?$AAd?$AA?$AN?$AA?6?$AA?$AA@|
  0083c		 |$LN91@PmInit|
  0083c	0000 0000	 DCD         |??_C@_1O@NDNKNHPJ@?$AAP?$AAm?$AAI?$AAn?$AAi?$AAt?$AA?$AA@|
  00840		 |$LN92@PmInit|
  00840	0000 0000	 DCD         |??_C@_1CM@JOGFCBGM@?$AA?$CF?$AAs?$AA?3?$AA?5?$AAc?$AAl?$AAo?$AAs?$AAi?$AAn?$AAg?$AA?5?$AAh?$AAa?$AAn?$AAd?$AAl?$AAe?$AAs?$AA?$AN?$AA?6?$AA?$AA@|
  00844		 |$LN93@PmInit|
  00844	0000 0000	 DCD         |??_C@_1FG@OCCOMIBI@?$AA?$CF?$AAs?$AA?3?$AA?5?$AAs?$AAh?$AAu?$AAt?$AAt?$AAi?$AAn?$AAg?$AA?5?$AAd?$AAo?$AAw?$AAn?$AA?5?$AAa?$AAc?$AAt?$AAi?$AAv?$AAi?$AAt?$AAy?$AA?5?$AAt?$AAi?$AAm?$AAe?$AAr@|
  00848		 |$LN94@PmInit|
  00848	0000 0000	 DCD         |??_C@_1EE@CIFABHGF@?$AA?$CF?$AAs?$AA?3?$AA?5?$AAs?$AAh?$AAu?$AAt?$AAt?$AAi?$AAn?$AAg?$AA?5?$AAd?$AAo?$AAw?$AAn?$AA?5?$AAs?$AAy?$AAs?$AAt?$AAe?$AAm?$AA?5?$AAt?$AAh?$AAr?$AAe?$AAa?$AAd?$AA?$AN@|
  0084c		 |$LN95@PmInit|
  0084c	0000 0000	 DCD         |??_C@_1EE@OMMAAAMF@?$AA?$CF?$AAs?$AA?3?$AA?5?$AAs?$AAh?$AAu?$AAt?$AAt?$AAi?$AAn?$AAg?$AA?5?$AAd?$AAo?$AAw?$AAn?$AA?5?$AAr?$AAe?$AAs?$AAu?$AAm?$AAe?$AA?5?$AAt?$AAh?$AAr?$AAe?$AAa?$AAd?$AA?$AN@|
  00850		 |$LN96@PmInit|
  00850	0000 0000	 DCD         |??_C@_1DO@JOHFJEDC@?$AA?$CF?$AAs?$AA?3?$AA?5?$AAs?$AAh?$AAu?$AAt?$AAt?$AAi?$AAn?$AAg?$AA?5?$AAd?$AAo?$AAw?$AAn?$AA?5?$AAP?$AAn?$AAP?$AA?5?$AAt?$AAh?$AAr?$AAe?$AAa?$AAd?$AA?$AN?$AA?6?$AA?$AA@|
  00854		 |$LN97@PmInit|
  00854	0000 0000	 DCD         |??_C@_1FG@LNDLJJOC@?$AA?$CF?$AAs?$AA?3?$AA?5?$AAs?$AAy?$AAs?$AAt?$AAe?$AAm?$AA?5?$AAt?$AAh?$AAr?$AAe?$AAa?$AAd?$AA?5?$AAi?$AAn?$AAi?$AAt?$AAi?$AAa?$AAl?$AAi?$AAz?$AAa?$AAt?$AAi?$AAo?$AAn@|
  00858		 |$LN98@PmInit|
  00858	0000 0000	 DCD         |??_C@_1EK@MHHINMNC@?$AA?$CF?$AAs?$AA?3?$AA?5?$AAs?$AAy?$AAs?$AAt?$AAe?$AAm?$AA?5?$AAt?$AAh?$AAr?$AAe?$AAa?$AAd?$AA?5?$AAc?$AAr?$AAe?$AAa?$AAt?$AAi?$AAo?$AAn?$AA?5?$AAf?$AAa?$AAi?$AAl?$AAu@|
  0085c		 |$LN99@PmInit|
  0085c	0000 0000	 DCD         |SystemThreadProc|
  00860		 |$LN100@PmInit|
  00860	0000 0000	 DCD         |??_C@_1HA@PHFPGFKF@?$AA?$CF?$AAs?$AA?3?$AA?5?$AAW?$AAa?$AAi?$AAt?$AAF?$AAo?$AAr?$AAM?$AAu?$AAl?$AAt?$AAi?$AAp?$AAl?$AAe?$AAO?$AAb?$AAj?$AAe?$AAc?$AAt?$AAs?$AA?$CI?$AA?$CJ?$AA?5?$AAr?$AAe?$AAt@|
  00864		 |$LN101@PmInit|
  00864	0000 0000	 DCD         |??_C@_1EI@OEHMKAOO@?$AA?$CF?$AAs?$AA?3?$AA?5?$AAt?$AAh?$AAr?$AAe?$AAa?$AAd?$AA?5?$AAi?$AAn?$AAi?$AAt?$AAi?$AAa?$AAl?$AAi?$AAz?$AAa?$AAt?$AAi?$AAo?$AAn?$AA?5?$AAf?$AAa?$AAi?$AAl?$AAu?$AAr@|
  00868		 |$LN102@PmInit|
  00868	0000 0000	 DCD         |??_C@_1DM@GDOFDLJI@?$AA?$CF?$AAs?$AA?3?$AA?5?$AAt?$AAh?$AAr?$AAe?$AAa?$AAd?$AA?5?$AAc?$AAr?$AAe?$AAa?$AAt?$AAi?$AAo?$AAn?$AA?5?$AAf?$AAa?$AAi?$AAl?$AAu?$AAr?$AAe?$AA?$AN?$AA?6?$AA?$AA@|
  0086c		 |$LN103@PmInit|
  0086c	0000 0000	 DCD         |ActivityTimersThreadProc|
  00870		 |$LN104@PmInit|
  00870	0000 0000	 DCD         |ResumeThreadProc|
  00874		 |$LN105@PmInit|
  00874	0000 0000	 DCD         |PnpThreadProc|
  00878		 |$LN106@PmInit|
  00878	0000 0000	 DCD         |??_C@_1DK@HMANBMPF@?$AA?$CF?$AAs?$AA?3?$AA?5?$AAe?$AAv?$AAe?$AAn?$AAt?$AA?5?$AAc?$AAr?$AAe?$AAa?$AAt?$AAi?$AAo?$AAn?$AA?5?$AAf?$AAa?$AAi?$AAl?$AAu?$AAr?$AAe?$AA?$AN?$AA?6?$AA?$AA@|
  0087c		 |$LN107@PmInit|
  0087c	0000 0000	 DCD         |??_C@_1DC@OOKIINAM@?$AAS?$AAY?$AAS?$AAT?$AAE?$AAM?$AA?1?$AAP?$AAo?$AAw?$AAe?$AAr?$AAM?$AAa?$AAn?$AAa?$AAg?$AAe?$AAr?$AAR?$AAe?$AAa?$AAd?$AAy?$AA?$AA@|
  00880		 |$LN108@PmInit|
  00880	0000 0000	 DCD         |??_C@_1FK@KDNBKLHB@?$AA?$CF?$AAs?$AA?3?$AA?5?$AAP?$AAl?$AAa?$AAt?$AAf?$AAo?$AAr?$AAm?$AAV?$AAa?$AAl?$AAi?$AAd?$AAa?$AAt?$AAe?$AAP?$AAM?$AAR?$AAe?$AAg?$AAi?$AAs?$AAt?$AAr?$AAy?$AA?$CI?$AA?$CJ@|
  00884		 |$LN109@PmInit|
  00884	0000 0000	 DCD         |??_C@_1FM@CIIPHLJM@?$AA?$CF?$AAs?$AA?3?$AA?5?$AAC?$AAr?$AAe?$AAa?$AAt?$AAe?$AAE?$AAv?$AAe?$AAn?$AAt?$AA?$CI?$AA?$CJ?$AA?5?$AAf?$AAa?$AAi?$AAl?$AAe?$AAd?$AA?5?$AAf?$AAo?$AAr?$AA?5?$AAs?$AAh?$AAu@|
  00888		 |$LN110@PmInit|
  00888	0000 0000	 DCD         |ghevTimerResume|
  0088c		 |$LN111@PmInit|
  0088c	0000 0000	 DCD         |??_C@_1M@LFABOLDL@?$AA?$CL?$AA?$CF?$AAs?$AA?$AN?$AA?6?$AA?$AA@|
  00890		 |$LN112@PmInit|
  00890	0000 0000	 DCD         |dpCurSettings|
  00894		 |$M84|

			 ENDP  ; |PmInit|

	END
