; Listing generated by Microsoft (R) Optimizing Compiler Version 17.00.50727.114 

	TTL	C:\wince800\platform\rrm_ppc_windows\src\drivers\pm\mdd\pmsqm.cpp
	THUMB

  00000			 AREA	 |.drectve|, DRECTVE
	DCB	"-defaultlib:LIBCMT "
	DCB	"-defaultlib:OLDNAMES "

	EXPORT	|??_C@_11LOCGONAA@?$AA?$AA@| [ DATA ]	; `string'
	EXPORT	|??_C@_1CG@POPBNBLK@?$AAP?$AAO?$AA_?$AAN?$AAU?$AAM?$AAB?$AAE?$AAR?$AA_?$AAC?$AAO?$AAN?$AAT?$AAA?$AAC?$AAT?$AAS?$AA?$AA@| [ DATA ] ; `string'
	EXPORT	|??_C@_1BM@PGMCHBIH@?$AAS?$AAY?$AAN?$AAC?$AA_?$AAS?$AAY?$AAN?$AAC?$AAT?$AAI?$AAM?$AAE?$AA?$AA@| [ DATA ] ; `string'
	EXPORT	|??_C@_1BM@KMNFINN@?$AAS?$AAY?$AAN?$AAC?$AA_?$AAS?$AAY?$AAN?$AAC?$AAS?$AAI?$AAZ?$AAE?$AA?$AA@| [ DATA ] ; `string'
	EXPORT	|??_C@_1CA@MEOLKKF@?$AAS?$AAY?$AAN?$AAC?$AA_?$AAS?$AAY?$AAN?$AAC?$AAR?$AAE?$AAS?$AAU?$AAL?$AAT?$AA?$AA@| [ DATA ] ; `string'
	EXPORT	|??_C@_1BG@MLGGPMHF@?$AAO?$AAS?$AAV?$AAE?$AAR?$AAM?$AAA?$AAJ?$AAO?$AAR?$AA?$AA@| [ DATA ] ; `string'
	EXPORT	|??_C@_1BG@FMPLLCHL@?$AAO?$AAS?$AAV?$AAE?$AAR?$AAM?$AAI?$AAN?$AAO?$AAR?$AA?$AA@| [ DATA ] ; `string'
	EXPORT	|??_C@_1BG@HCDBKBJB@?$AAO?$AAS?$AAB?$AAU?$AAI?$AAL?$AAD?$AAN?$AAU?$AAM?$AA?$AA@| [ DATA ] ; `string'
	EXPORT	|??_C@_1CC@HGENBCG@?$AAP?$AAL?$AAA?$AAT?$AAF?$AAO?$AAR?$AAM?$AAB?$AAU?$AAI?$AAL?$AAD?$AAN?$AAU?$AAM?$AA?$AA@| [ DATA ] ; `string'
	EXPORT	|??_C@_1CI@JMDPFIPD@?$AAP?$AAH?$AAY?$AAS?$AAM?$AAE?$AAM?$AAO?$AAR?$AAY?$AAA?$AAV?$AAA?$AAI?$AAL?$AAA?$AAB?$AAL?$AAE?$AA?$AA@| [ DATA ] ; `string'
	EXPORT	|??_C@_1BM@FFEPMCOP@?$AAS?$AAE?$AAC?$AAS?$AAS?$AAI?$AAN?$AAC?$AAE?$AAB?$AAO?$AAO?$AAT?$AA?$AA@| [ DATA ] ; `string'
	EXPORT	|??_C@_1BI@LDIAJACF@?$AAN?$AAU?$AAM?$AAA?$AAC?$AAC?$AAO?$AAU?$AAN?$AAT?$AAS?$AA?$AA@| [ DATA ] ; `string'
	EXPORT	|??_C@_1M@FPCJHGLF@?$AAD?$AAU?$AAM?$AAM?$AAY?$AA?$AA@| [ DATA ] ; `string'
	EXPORT	|??_C@_1CA@HDHKPKDC@?$AAB?$AAA?$AAT?$AAT?$AAE?$AAR?$AAY?$AAS?$AAT?$AAR?$AAE?$AAN?$AAG?$AAT?$AAH?$AA?$AA@| [ DATA ] ; `string'
	EXPORT	|??_C@_1CM@EIAGNDIN@?$AAM?$AAE?$AAS?$AAS?$AAA?$AAG?$AAI?$AAN?$AAG?$AA_?$AAA?$AAC?$AAC?$AAO?$AAU?$AAN?$AAT?$AAI?$AAN?$AAF?$AAO?$AA?$AA@| [ DATA ] ; `string'
	EXPORT	|??_C@_1DG@LGLJNM@?$AAM?$AAE?$AAS?$AAS?$AAA?$AAG?$AAI?$AAN?$AAG?$AA_?$AAD?$AAU?$AAM?$AAM?$AAY?$AAA?$AAC?$AAC?$AAO?$AAU?$AAN?$AAT?$AAT?$AAY?$AAP?$AAE?$AA?$AA@| [ DATA ] ; `string'
	EXPORT	|??_C@_1DG@OJKBOLMI@?$AAM?$AAE?$AAS?$AAS?$AAA?$AAG?$AAI?$AAN?$AAG?$AA_?$AAD?$AAU?$AAM?$AAM?$AAY?$AAN?$AAU?$AAM?$AAM?$AAE?$AAS?$AAS?$AAA?$AAG?$AAE?$AAS?$AA?$AA@| [ DATA ] ; `string'
	EXPORT	|??_C@_1DE@JJKFCDIA@?$AAM?$AAE?$AAS?$AAS?$AAA?$AAG?$AAI?$AAN?$AAG?$AA_?$AAD?$AAU?$AAM?$AAM?$AAY?$AAN?$AAU?$AAM?$AAF?$AAO?$AAL?$AAD?$AAE?$AAR?$AAS?$AA?$AA@| [ DATA ] ; `string'
	EXPORT	|??_C@_1CI@JDNKLELB@?$AAP?$AAH?$AAO?$AAN?$AAE?$AA_?$AAI?$AAN?$AAC?$AAO?$AAM?$AAI?$AAN?$AAG?$AAC?$AAA?$AAL?$AAL?$AAS?$AA?$AA@| [ DATA ] ; `string'
	EXPORT	|??_C@_1CI@KGLEDJAF@?$AAP?$AAH?$AAO?$AAN?$AAE?$AA_?$AAO?$AAU?$AAT?$AAG?$AAO?$AAI?$AAN?$AAG?$AAC?$AAA?$AAL?$AAL?$AAS?$AA?$AA@| [ DATA ] ; `string'
	EXPORT	|??_C@_1CE@BGIIKBMA@?$AAD?$AAU?$AAM?$AAM?$AAY?$AA_?$AAN?$AAU?$AAM?$AAA?$AAC?$AAC?$AAO?$AAU?$AAN?$AAT?$AAS?$AA?$AA@| [ DATA ] ; `string'
	EXPORT	|??_C@_1CC@CLDPIDMP@?$AAS?$AAY?$AAN?$AAC?$AA_?$AAM?$AAA?$AAN?$AAU?$AAA?$AAL?$AAS?$AAY?$AAN?$AAC?$AAS?$AA?$AA@| [ DATA ] ; `string'
	EXPORT	|??_C@_1CI@JGEPNJBH@?$AAS?$AAY?$AAN?$AAC?$AA_?$AAA?$AAU?$AAT?$AAO?$AAM?$AAA?$AAT?$AAE?$AAD?$AAS?$AAY?$AAN?$AAC?$AAS?$AA?$AA@| [ DATA ] ; `string'
	EXPORT	|??_C@_1CI@GHOKBMJI@?$AAS?$AAY?$AAN?$AAC?$AA_?$AAS?$AAC?$AAH?$AAE?$AAD?$AAU?$AAL?$AAE?$AAD?$AAS?$AAY?$AAN?$AAC?$AAS?$AA?$AA@| [ DATA ] ; `string'
	EXPORT	|??_C@_1CO@NPBEDFEP@?$AAM?$AAE?$AAS?$AAS?$AAA?$AAG?$AAI?$AAN?$AAG?$AA_?$AAS?$AAE?$AAN?$AAT?$AAE?$AAX?$AAC?$AAH?$AAA?$AAN?$AAG?$AAE?$AA?$AA@| [ DATA ] ; `string'
	EXPORT	|??_C@_1CE@JIBFIKJM@?$AAM?$AAE?$AAS?$AAS?$AAA?$AAG?$AAI?$AAN?$AAG?$AA_?$AAS?$AAE?$AAN?$AAT?$AAS?$AAM?$AAS?$AA?$AA@| [ DATA ] ; `string'
	EXPORT	|??_C@_1CG@BNIBKOKC@?$AAM?$AAE?$AAS?$AAS?$AAA?$AAG?$AAI?$AAN?$AAG?$AA_?$AAS?$AAE?$AAN?$AAT?$AAP?$AAO?$AAP?$AA3?$AA?$AA@| [ DATA ] ; `string'
	EXPORT	|??_C@_1CG@GFAGIKCO@?$AAM?$AAE?$AAS?$AAS?$AAA?$AAG?$AAI?$AAN?$AAG?$AA_?$AAS?$AAE?$AAN?$AAT?$AAI?$AAM?$AAA?$AAP?$AA?$AA@| [ DATA ] ; `string'
	EXPORT	|??_C@_1DG@CEFGGMJH@?$AAM?$AAE?$AAS?$AAS?$AAA?$AAG?$AAI?$AAN?$AAG?$AA_?$AAR?$AAE?$AAC?$AAE?$AAI?$AAV?$AAE?$AAD?$AAE?$AAX?$AAC?$AAH?$AAA?$AAN?$AAG?$AAE?$AA?$AA@| [ DATA ] ; `string'
	EXPORT	|??_C@_1CM@OOBMEDKG@?$AAM?$AAE?$AAS?$AAS?$AAA?$AAG?$AAI?$AAN?$AAG?$AA_?$AAR?$AAE?$AAC?$AAE?$AAI?$AAV?$AAE?$AAD?$AAS?$AAM?$AAS?$AA?$AA@| [ DATA ] ; `string'
	EXPORT	|??_C@_1CO@KCBHFIEK@?$AAM?$AAE?$AAS?$AAS?$AAA?$AAG?$AAI?$AAN?$AAG?$AA_?$AAR?$AAE?$AAC?$AAE?$AAI?$AAV?$AAE?$AAD?$AAI?$AAM?$AAA?$AAP?$AA?$AA@| [ DATA ] ; `string'
	EXPORT	|??_C@_1CO@NKJAHMMG@?$AAM?$AAE?$AAS?$AAS?$AAA?$AAG?$AAI?$AAN?$AAG?$AA_?$AAR?$AAE?$AAC?$AAE?$AAI?$AAV?$AAE?$AAD?$AAP?$AAO?$AAP?$AA3?$AA?$AA@| [ DATA ] ; `string'
	EXPORT	|??_C@_1DA@HGPAJMLG@?$AAM?$AAE?$AAS?$AAS?$AAA?$AAG?$AAI?$AAN?$AAG?$AA_?$AAR?$AAE?$AAC?$AAE?$AAI?$AAV?$AAE?$AAD?$AAO?$AAT?$AAH?$AAE?$AAR?$AA?$AA@| [ DATA ] ; `string'
	EXPORT	|??_C@_1CI@BPLMEGPM@?$AAM?$AAE?$AAS?$AAS?$AAA?$AAG?$AAI?$AAN?$AAG?$AA_?$AAS?$AAE?$AAN?$AAT?$AAO?$AAT?$AAH?$AAE?$AAR?$AA?$AA@| [ DATA ] ; `string'
	EXPORT	|??_C@_1DG@CHAOOFKN@?$AAP?$AAH?$AAO?$AAN?$AAE?$AA_?$AAI?$AAN?$AAC?$AAO?$AAM?$AAI?$AAN?$AAG?$AAC?$AAA?$AAL?$AAL?$AAS?$AA_?$AAF?$AAA?$AAI?$AAL?$AAE?$AAD?$AA?$AA@| [ DATA ] ; `string'
	EXPORT	|??_C@_1DG@GJBPNMMB@?$AAP?$AAH?$AAO?$AAN?$AAE?$AA_?$AAO?$AAU?$AAT?$AAG?$AAO?$AAI?$AAN?$AAG?$AAC?$AAA?$AAL?$AAL?$AAS?$AA_?$AAF?$AAA?$AAI?$AAL?$AAE?$AAD?$AA?$AA@| [ DATA ] ; `string'
	EXPORT	|??_C@_1DA@OLOBMAIN@?$AAR?$AAE?$AAL?$AAI?$AAA?$AAB?$AAI?$AAL?$AAI?$AAT?$AAY?$AA_?$AAC?$AAP?$AAU?$AA_?$AAC?$AAU?$AAR?$AAR?$AAE?$AAN?$AAT?$AA?$AA@| [ DATA ] ; `string'
	EXPORT	|??_C@_1CM@CBAEBIHP@?$AAR?$AAE?$AAL?$AAI?$AAA?$AAB?$AAI?$AAL?$AAI?$AAT?$AAY?$AA_?$AAC?$AAP?$AAU?$AA_?$AAT?$AAO?$AAT?$AAA?$AAL?$AA?$AA@| [ DATA ] ; `string'
	EXPORT	|??_C@_1DO@JKLJGHH@?$AAR?$AAE?$AAL?$AAI?$AAA?$AAB?$AAI?$AAL?$AAI?$AAT?$AAY?$AA_?$AAA?$AAC?$AAT?$AAI?$AAV?$AAE?$AA_?$AAU?$AAS?$AAE?$AA_?$AAC?$AAU?$AAR?$AAR?$AAE?$AAN?$AAT?$AA?$AA@| [ DATA ] ; `string'
	EXPORT	|??_C@_1DK@PAEEMDPL@?$AAR?$AAE?$AAL?$AAI?$AAA?$AAB?$AAI?$AAL?$AAI?$AAT?$AAY?$AA_?$AAA?$AAC?$AAT?$AAI?$AAV?$AAE?$AA_?$AAU?$AAS?$AAE?$AA_?$AAT?$AAO?$AAT?$AAA?$AAL?$AA?$AA@| [ DATA ] ; `string'
	EXPORT	|??_C@_1DA@CNOLHPGH@?$AAR?$AAE?$AAL?$AAI?$AAA?$AAB?$AAI?$AAL?$AAI?$AAT?$AAY?$AA_?$AAR?$AAT?$AAC?$AA_?$AAC?$AAU?$AAR?$AAR?$AAE?$AAN?$AAT?$AA?$AA@| [ DATA ] ; `string'
	EXPORT	|??_C@_1CM@BKLLAIGA@?$AAR?$AAE?$AAL?$AAI?$AAA?$AAB?$AAI?$AAL?$AAI?$AAT?$AAY?$AA_?$AAR?$AAT?$AAC?$AA_?$AAT?$AAO?$AAT?$AAA?$AAL?$AA?$AA@| [ DATA ] ; `string'
	EXPORT	|??_C@_1CK@DMJFFDPC@?$AAR?$AAE?$AAL?$AAI?$AAA?$AAB?$AAI?$AAL?$AAI?$AAT?$AAY?$AA_?$AAL?$AAI?$AAF?$AAE?$AAT?$AAI?$AAM?$AAE?$AA?$AA@| [ DATA ] ; `string'
	EXPORT	|??_C@_1DA@LPGLOFME@?$AAR?$AAE?$AAL?$AAI?$AAA?$AAB?$AAI?$AAL?$AAI?$AAT?$AAY?$AA_?$AAR?$AAE?$AAS?$AAE?$AAT?$AA_?$AAC?$AAO?$AAU?$AAN?$AAT?$AA?$AA@| [ DATA ] ; `string'
	EXPORT	|??_C@_1EA@HAAFGGPC@?$AAR?$AAE?$AAL?$AAI?$AAA?$AAB?$AAI?$AAL?$AAI?$AAT?$AAY?$AA_?$AAU?$AAS?$AAE?$AAR?$AA_?$AAS?$AAH?$AAU?$AAT?$AAD?$AAO?$AAW?$AAN?$AA_?$AAC?$AAO?$AAU?$AAN?$AAT?$AA?$AA@| [ DATA ] ; `string'
	EXPORT	|??_C@_1DO@DJAFOIEB@?$AAR?$AAE?$AAL?$AAI?$AAA?$AAB?$AAI?$AAL?$AAI?$AAT?$AAY?$AA_?$AAB?$AAA?$AAT?$AAT?$AAE?$AAR?$AAY?$AA_?$AAD?$AAE?$AAA?$AAD?$AA_?$AAC?$AAO?$AAU?$AAN?$AAT?$AA?$AA@| [ DATA ] ; `string'
	EXPORT	|??_C@_1DE@CPLBEIHM@?$AAR?$AAE?$AAL?$AAI?$AAA?$AAB?$AAI?$AAL?$AAI?$AAT?$AAY?$AA_?$AAR?$AAE?$AAB?$AAO?$AAO?$AAT?$AA_?$AAR?$AAE?$AAA?$AAS?$AAO?$AAN?$AA?$AA@| [ DATA ] ; `string'
	EXPORT	|??_C@_1BK@FOGAODPK@?$AAS?$AAE?$AAS?$AAS?$AAI?$AAO?$AAN?$AA_?$AAT?$AAY?$AAP?$AAE?$AA?$AA@| [ DATA ] ; `string'
	EXPORT	|??_C@_1O@EDBFNEKN@?$AAL?$AAO?$AAC?$AAA?$AAL?$AAE?$AA?$AA@| [ DATA ] ; `string'
	EXPORT	|??_C@_1BC@HEMCLPBJ@?$AAL?$AAA?$AAN?$AAG?$AAU?$AAA?$AAG?$AAE?$AA?$AA@| [ DATA ] ; `string'
	EXPORT	|??_C@_17NIDINBIM@?$AAS?$AAK?$AAU?$AA?$AA@| [ DATA ] ; `string'
	EXPORT	|??_C@_1DE@FOJBBCM@?$AAP?$AAH?$AAO?$AAN?$AAE?$AA_?$AAR?$AAA?$AAD?$AAI?$AAO?$AA_?$AAS?$AAT?$AAA?$AAC?$AAK?$AA_?$AAR?$AAE?$AAB?$AAO?$AAO?$AAT?$AAS?$AA?$AA@| [ DATA ] ; `string'
	EXPORT	|??_C@_1CE@KFCKMAGK@?$AAP?$AAH?$AAO?$AAN?$AAE?$AA_?$AAT?$AAI?$AAM?$AAE?$AAR?$AAS?$AA_?$AAO?$AAR?$AAI?$AAG?$AA?$AA@| [ DATA ] ; `string'
	EXPORT	|??_C@_1CM@DGBHADKJ@?$AAC?$AAA?$AAL?$AAL?$AAE?$AAR?$AA_?$AAI?$AAD?$AA_?$AAL?$AAO?$AAO?$AAK?$AAU?$AAP?$AA_?$AAO?$AAR?$AAI?$AAG?$AA?$AA@| [ DATA ] ; `string'
	EXPORT	|??_C@_1CE@PMHEAFPK@?$AAP?$AAH?$AAO?$AAN?$AAE?$AA_?$AAE?$AAR?$AAR?$AAO?$AAR?$AAS?$AA_?$AAO?$AAR?$AAI?$AAG?$AA?$AA@| [ DATA ] ; `string'
	EXPORT	|??_C@_1BK@PFBAAGKK@?$AAS?$AAI?$AAM?$AA_?$AAC?$AAO?$AAN?$AAT?$AAA?$AAC?$AAT?$AAS?$AA?$AA@| [ DATA ] ; `string'
	EXPORT	|??_C@_1BM@MJHOOLKL@?$AAP?$AAO?$AAO?$AAM?$AA_?$AAC?$AAO?$AAN?$AAT?$AAA?$AAC?$AAT?$AAS?$AA?$AA@| [ DATA ] ; `string'
	EXPORT	|??_C@_1DC@OKEALHMI@?$AAM?$AAE?$AAS?$AAS?$AAA?$AAG?$AAI?$AAN?$AAG?$AA_?$AAA?$AAC?$AAC?$AAO?$AAU?$AAN?$AAT?$AA_?$AAC?$AAO?$AAU?$AAN?$AAT?$AAS?$AA?$AA@| [ DATA ] ; `string'
	EXPORT	|??_C@_1DE@PEOKINCP@?$AAM?$AAE?$AAS?$AAS?$AAA?$AAG?$AAI?$AAN?$AAG?$AA_?$AAA?$AAV?$AAG?$AAO?$AAP?$AAE?$AAN?$AAT?$AAI?$AAM?$AAE?$AA_?$AAS?$AAM?$AAS?$AA?$AA@| [ DATA ] ; `string'
	EXPORT	|??_C@_1DE@CFBIIECJ@?$AAM?$AAE?$AAS?$AAS?$AAA?$AAG?$AAI?$AAN?$AAG?$AA_?$AAA?$AAV?$AAG?$AAO?$AAP?$AAE?$AAN?$AAT?$AAI?$AAM?$AAE?$AA_?$AAP?$AAO?$AAP?$AA?$AA@| [ DATA ] ; `string'
	EXPORT	|??_C@_1DG@DEIKIOAJ@?$AAM?$AAE?$AAS?$AAS?$AAA?$AAG?$AAI?$AAN?$AAG?$AA_?$AAA?$AAV?$AAG?$AAO?$AAP?$AAE?$AAN?$AAT?$AAI?$AAM?$AAE?$AA_?$AAI?$AAM?$AAA?$AAP?$AA?$AA@| [ DATA ] ; `string'
	EXPORT	|??_C@_1DI@MCBEGBAM@?$AAM?$AAE?$AAS?$AAS?$AAA?$AAG?$AAI?$AAN?$AAG?$AA_?$AAA?$AAV?$AAG?$AAO?$AAP?$AAE?$AAN?$AAT?$AAI?$AAM?$AAE?$AA_?$AAO?$AAT?$AAH?$AAE?$AAR?$AA?$AA@| [ DATA ] ; `string'
	EXPORT	|??_C@_1EA@NIPIIEFG@?$AAM?$AAE?$AAS?$AAS?$AAA?$AAG?$AAI?$AAN?$AAG?$AA_?$AAN?$AAU?$AAM?$AAB?$AAE?$AAR?$AA_?$AAE?$AAM?$AAA?$AAI?$AAL?$AA_?$AAA?$AAC?$AAC?$AAO?$AAU?$AAN?$AAT?$AAS?$AA?$AA@| [ DATA ] ; `string'
	EXPORT	|??_C@_1CO@BPJPPMCN@?$AAM?$AAE?$AAS?$AAS?$AAA?$AAG?$AAI?$AAN?$AAG?$AA_?$AAA?$AAC?$AAC?$AAO?$AAU?$AAN?$AAT?$AAS?$AA_?$AAS?$AAM?$AAS?$AA?$AA@| [ DATA ] ; `string'
	EXPORT	|??_C@_1CO@MOGNPFCL@?$AAM?$AAE?$AAS?$AAS?$AAA?$AAG?$AAI?$AAN?$AAG?$AA_?$AAA?$AAC?$AAC?$AAO?$AAU?$AAN?$AAT?$AAS?$AA_?$AAP?$AAO?$AAP?$AA?$AA@| [ DATA ] ; `string'
	EXPORT	|??_C@_1DC@BLEKGNGB@?$AAM?$AAE?$AAS?$AAS?$AAA?$AAG?$AAI?$AAN?$AAG?$AA_?$AAA?$AAC?$AAC?$AAO?$AAU?$AAN?$AAT?$AAS?$AA_?$AAI?$AAM?$AAA?$AAP?$AA2?$AA?$AA@| [ DATA ] ; `string'
	EXPORT	|??_C@_1DC@FILOBNKD@?$AAM?$AAE?$AAS?$AAS?$AAA?$AAG?$AAI?$AAN?$AAG?$AA_?$AAA?$AAC?$AAC?$AAO?$AAU?$AAN?$AAT?$AAS?$AA_?$AAO?$AAT?$AAH?$AAE?$AAR?$AA?$AA@| [ DATA ] ; `string'
	EXPORT	|??_C@_1EE@FDGPIIFO@?$AAM?$AAE?$AAS?$AAS?$AAA?$AAG?$AAI?$AAN?$AAG?$AA_?$AAC?$AAO?$AAU?$AAN?$AAT?$AA_?$AAT?$AAO?$AAT?$AAA?$AAL?$AAM?$AAS?$AAG?$AA_?$AAE?$AAX?$AAC?$AAH?$AAA?$AAN?$AAG@| [ DATA ] ; `string'
	EXPORT	|??_C@_1DK@EGBIIFPL@?$AAM?$AAE?$AAS?$AAS?$AAA?$AAG?$AAI?$AAN?$AAG?$AA_?$AAC?$AAO?$AAU?$AAN?$AAT?$AA_?$AAT?$AAO?$AAT?$AAA?$AAL?$AAM?$AAS?$AAG?$AA_?$AAS?$AAM?$AAS?$AA?$AA@| [ DATA ] ; `string'
	EXPORT	|??_C@_1DK@JHOKIMPN@?$AAM?$AAE?$AAS?$AAS?$AAA?$AAG?$AAI?$AAN?$AAG?$AA_?$AAC?$AAO?$AAU?$AAN?$AAT?$AA_?$AAT?$AAO?$AAT?$AAA?$AAL?$AAM?$AAS?$AAG?$AA_?$AAP?$AAO?$AAP?$AA?$AA@| [ DATA ] ; `string'
	EXPORT	|??_C@_1DM@NPAFLENC@?$AAM?$AAE?$AAS?$AAS?$AAA?$AAG?$AAI?$AAN?$AAG?$AA_?$AAC?$AAO?$AAU?$AAN?$AAT?$AA_?$AAT?$AAO?$AAT?$AAA?$AAL?$AAM?$AAS?$AAG?$AA_?$AAI?$AAM?$AAA?$AAP?$AA?$AA@| [ DATA ] ; `string'
	EXPORT	|??_C@_1DO@GGNEEPOF@?$AAM?$AAE?$AAS?$AAS?$AAA?$AAG?$AAI?$AAN?$AAG?$AA_?$AAC?$AAO?$AAU?$AAN?$AAT?$AA_?$AAT?$AAO?$AAT?$AAA?$AAL?$AAM?$AAS?$AAG?$AA_?$AAO?$AAT?$AAH?$AAE?$AAR?$AA?$AA@| [ DATA ] ; `string'
	EXPORT	|??_C@_1EC@BDBAHCHJ@?$AAM?$AAE?$AAS?$AAS?$AAA?$AAG?$AAI?$AAN?$AAG?$AA_?$AAC?$AAO?$AAU?$AAN?$AAT?$AA_?$AAF?$AAO?$AAL?$AAD?$AAE?$AAR?$AAS?$AA_?$AAE?$AAX?$AAC?$AAH?$AAA?$AAN?$AAG?$AAE@| [ DATA ] ; `string'
	EXPORT	|??_C@_1DI@CDLHJGMB@?$AAM?$AAE?$AAS?$AAS?$AAA?$AAG?$AAI?$AAN?$AAG?$AA_?$AAC?$AAO?$AAU?$AAN?$AAT?$AA_?$AAF?$AAO?$AAL?$AAD?$AAE?$AAR?$AAS?$AA_?$AAS?$AAM?$AAS?$AA?$AA@| [ DATA ] ; `string'
	EXPORT	|??_C@_1DI@PCEFJPMH@?$AAM?$AAE?$AAS?$AAS?$AAA?$AAG?$AAI?$AAN?$AAG?$AA_?$AAC?$AAO?$AAU?$AAN?$AAT?$AA_?$AAF?$AAO?$AAL?$AAD?$AAE?$AAR?$AAS?$AA_?$AAP?$AAO?$AAP?$AA?$AA@| [ DATA ] ; `string'
	EXPORT	|??_C@_1DK@HOBCEONK@?$AAM?$AAE?$AAS?$AAS?$AAA?$AAG?$AAI?$AAN?$AAG?$AA_?$AAC?$AAO?$AAU?$AAN?$AAT?$AA_?$AAF?$AAO?$AAL?$AAD?$AAE?$AAR?$AAS?$AA_?$AAI?$AAM?$AAA?$AAP?$AA?$AA@| [ DATA ] ; `string'
	EXPORT	|??_C@_1DM@PDGFHPPI@?$AAM?$AAE?$AAS?$AAS?$AAA?$AAG?$AAI?$AAN?$AAG?$AA_?$AAC?$AAO?$AAU?$AAN?$AAT?$AA_?$AAF?$AAO?$AAL?$AAD?$AAE?$AAR?$AAS?$AA_?$AAO?$AAT?$AAH?$AAE?$AAR?$AA?$AA@| [ DATA ] ; `string'
	EXPORT	|??_C@_1EG@HMJAHILC@?$AAM?$AAE?$AAS?$AAS?$AAA?$AAG?$AAI?$AAN?$AAG?$AA_?$AAF?$AAO?$AAL?$AAD?$AAE?$AAR?$AAS?$AA_?$AAD?$AAE?$AAL?$AAE?$AAT?$AAE?$AAD?$AA_?$AAE?$AAX?$AAC?$AAH?$AAA?$AAN@| [ DATA ] ; `string'
	EXPORT	|??_C@_1DM@NGALHHEJ@?$AAM?$AAE?$AAS?$AAS?$AAA?$AAG?$AAI?$AAN?$AAG?$AA_?$AAF?$AAO?$AAL?$AAD?$AAE?$AAR?$AAS?$AA_?$AAD?$AAE?$AAL?$AAE?$AAT?$AAE?$AAD?$AA_?$AAS?$AAM?$AAS?$AA?$AA@| [ DATA ] ; `string'
	EXPORT	|??_C@_1DM@HPJHOEP@?$AAM?$AAE?$AAS?$AAS?$AAA?$AAG?$AAI?$AAN?$AAG?$AA_?$AAF?$AAO?$AAL?$AAD?$AAE?$AAR?$AAS?$AA_?$AAD?$AAE?$AAL?$AAE?$AAT?$AAE?$AAD?$AA_?$AAP?$AAO?$AAP?$AA?$AA@| [ DATA ] ; `string'
	EXPORT	|??_C@_1DO@FKEFHLML@?$AAM?$AAE?$AAS?$AAS?$AAA?$AAG?$AAI?$AAN?$AAG?$AA_?$AAF?$AAO?$AAL?$AAD?$AAE?$AAR?$AAS?$AA_?$AAD?$AAE?$AAL?$AAE?$AAT?$AAE?$AAD?$AA_?$AAI?$AAM?$AAA?$AAP?$AA?$AA@| [ DATA ] ; `string'
	EXPORT	|??_C@_1EA@PGAPLMJM@?$AAM?$AAE?$AAS?$AAS?$AAA?$AAG?$AAI?$AAN?$AAG?$AA_?$AAF?$AAO?$AAL?$AAD?$AAE?$AAR?$AAS?$AA_?$AAD?$AAE?$AAL?$AAE?$AAT?$AAE?$AAD?$AA_?$AAO?$AAT?$AAH?$AAE?$AAR?$AA?$AA@| [ DATA ] ; `string'
	EXPORT	|??_C@_1EE@GEJNHEEE@?$AAM?$AAE?$AAS?$AAS?$AAA?$AAG?$AAI?$AAN?$AAG?$AA_?$AAF?$AAO?$AAL?$AAD?$AAE?$AAR?$AAS?$AA_?$AAD?$AAR?$AAA?$AAF?$AAT?$AAS?$AA_?$AAE?$AAX?$AAC?$AAH?$AAA?$AAN?$AAG@| [ DATA ] ; `string'
	EXPORT	|??_C@_1DK@HBHEHFFM@?$AAM?$AAE?$AAS?$AAS?$AAA?$AAG?$AAI?$AAN?$AAG?$AA_?$AAF?$AAO?$AAL?$AAD?$AAE?$AAR?$AAS?$AA_?$AAD?$AAR?$AAA?$AAF?$AAT?$AAS?$AA_?$AAS?$AAM?$AAS?$AA?$AA@| [ DATA ] ; `string'
	EXPORT	|??_C@_1DK@KAIGHMFK@?$AAM?$AAE?$AAS?$AAS?$AAA?$AAG?$AAI?$AAN?$AAG?$AA_?$AAF?$AAO?$AAL?$AAD?$AAE?$AAR?$AAS?$AA_?$AAD?$AAR?$AAA?$AAF?$AAT?$AAS?$AA_?$AAP?$AAO?$AAP?$AA?$AA@| [ DATA ] ; `string'
	EXPORT	|??_C@_1DM@IDPOFLIM@?$AAM?$AAE?$AAS?$AAS?$AAA?$AAG?$AAI?$AAN?$AAG?$AA_?$AAF?$AAO?$AAL?$AAD?$AAE?$AAR?$AAS?$AA_?$AAD?$AAR?$AAA?$AAF?$AAT?$AAS?$AA_?$AAI?$AAM?$AAA?$AAP?$AA?$AA@| [ DATA ] ; `string'
	EXPORT	|??_C@_1DO@HCFJJMCN@?$AAM?$AAE?$AAS?$AAS?$AAA?$AAG?$AAI?$AAN?$AAG?$AA_?$AAF?$AAO?$AAL?$AAD?$AAE?$AAR?$AAS?$AA_?$AAD?$AAR?$AAA?$AAF?$AAT?$AAS?$AA_?$AAO?$AAT?$AAH?$AAE?$AAR?$AA?$AA@| [ DATA ] ; `string'
	EXPORT	|??_C@_1EC@LJNFJPIA@?$AAM?$AAE?$AAS?$AAS?$AAA?$AAG?$AAI?$AAN?$AAG?$AA_?$AAF?$AAO?$AAL?$AAD?$AAE?$AAR?$AAS?$AA_?$AAI?$AAN?$AAB?$AAO?$AAX?$AA_?$AAE?$AAX?$AAC?$AAH?$AAA?$AAN?$AAG?$AAE@| [ DATA ] ; `string'
	EXPORT	|??_C@_1DI@BJGOGHCF@?$AAM?$AAE?$AAS?$AAS?$AAA?$AAG?$AAI?$AAN?$AAG?$AA_?$AAF?$AAO?$AAL?$AAD?$AAE?$AAR?$AAS?$AA_?$AAI?$AAN?$AAB?$AAO?$AAX?$AA_?$AAS?$AAM?$AAS?$AA?$AA@| [ DATA ] ; `string'
	EXPORT	|??_C@_1DI@MIJMGOCD@?$AAM?$AAE?$AAS?$AAS?$AAA?$AAG?$AAI?$AAN?$AAG?$AA_?$AAF?$AAO?$AAL?$AAD?$AAE?$AAR?$AAS?$AA_?$AAI?$AAN?$AAB?$AAO?$AAX?$AA_?$AAP?$AAO?$AAP?$AA?$AA@| [ DATA ] ; `string'
	EXPORT	|??_C@_1DK@IOLKIAGB@?$AAM?$AAE?$AAS?$AAS?$AAA?$AAG?$AAI?$AAN?$AAG?$AA_?$AAF?$AAO?$AAL?$AAD?$AAE?$AAR?$AAS?$AA_?$AAI?$AAN?$AAB?$AAO?$AAX?$AA_?$AAI?$AAM?$AAA?$AAP?$AA?$AA@| [ DATA ] ; `string'
	EXPORT	|??_C@_1DM@IIIIBHJE@?$AAM?$AAE?$AAS?$AAS?$AAA?$AAG?$AAI?$AAN?$AAG?$AA_?$AAF?$AAO?$AAL?$AAD?$AAE?$AAR?$AAS?$AA_?$AAI?$AAN?$AAB?$AAO?$AAX?$AA_?$AAO?$AAT?$AAH?$AAE?$AAR?$AA?$AA@| [ DATA ] ; `string'
	EXPORT	|??_C@_1EE@LIFOMOBL@?$AAM?$AAE?$AAS?$AAS?$AAA?$AAG?$AAI?$AAN?$AAG?$AA_?$AAF?$AAO?$AAL?$AAD?$AAE?$AAR?$AAS?$AA_?$AAO?$AAU?$AAT?$AAB?$AAO?$AAX?$AA_?$AAE?$AAX?$AAC?$AAH?$AAA?$AAN?$AAG@| [ DATA ] ; `string'
	EXPORT	|??_C@_1DK@FGHLIKHI@?$AAM?$AAE?$AAS?$AAS?$AAA?$AAG?$AAI?$AAN?$AAG?$AA_?$AAF?$AAO?$AAL?$AAD?$AAE?$AAR?$AAS?$AA_?$AAO?$AAU?$AAT?$AAB?$AAO?$AAX?$AA_?$AAS?$AAM?$AAS?$AA?$AA@| [ DATA ] ; `string'
	EXPORT	|??_C@_1DK@IHIJIDHO@?$AAM?$AAE?$AAS?$AAS?$AAA?$AAG?$AAI?$AAN?$AAG?$AA_?$AAF?$AAO?$AAL?$AAD?$AAE?$AAR?$AAS?$AA_?$AAO?$AAU?$AAT?$AAB?$AAO?$AAX?$AA_?$AAP?$AAO?$AAP?$AA?$AA@| [ DATA ] ; `string'
	EXPORT	|??_C@_1DM@FPBEHCKI@?$AAM?$AAE?$AAS?$AAS?$AAA?$AAG?$AAI?$AAN?$AAG?$AA_?$AAF?$AAO?$AAL?$AAD?$AAE?$AAR?$AAS?$AA_?$AAO?$AAU?$AAT?$AAB?$AAO?$AAX?$AA_?$AAI?$AAM?$AAA?$AAP?$AA?$AA@| [ DATA ] ; `string'
	EXPORT	|??_C@_1DO@MBADDJAN@?$AAM?$AAE?$AAS?$AAS?$AAA?$AAG?$AAI?$AAN?$AAG?$AA_?$AAF?$AAO?$AAL?$AAD?$AAE?$AAR?$AAS?$AA_?$AAO?$AAU?$AAT?$AAB?$AAO?$AAX?$AA_?$AAO?$AAT?$AAH?$AAE?$AAR?$AA?$AA@| [ DATA ] ; `string'
	EXPORT	|??_C@_1EA@ECPLMDHH@?$AAM?$AAE?$AAS?$AAS?$AAA?$AAG?$AAI?$AAN?$AAG?$AA_?$AAF?$AAO?$AAL?$AAD?$AAE?$AAR?$AAS?$AA_?$AAS?$AAE?$AAN?$AAT?$AA_?$AAE?$AAX?$AAC?$AAH?$AAA?$AAN?$AAG?$AAE?$AA?$AA@| [ DATA ] ; `string'
	EXPORT	|??_C@_1DG@KALKLFNA@?$AAM?$AAE?$AAS?$AAS?$AAA?$AAG?$AAI?$AAN?$AAG?$AA_?$AAF?$AAO?$AAL?$AAD?$AAE?$AAR?$AAS?$AA_?$AAS?$AAE?$AAN?$AAT?$AA_?$AAS?$AAM?$AAS?$AA?$AA@| [ DATA ] ; `string'
	EXPORT	|??_C@_1DG@HBEILMNG@?$AAM?$AAE?$AAS?$AAS?$AAA?$AAG?$AAI?$AAN?$AAG?$AA_?$AAF?$AAO?$AAL?$AAD?$AAE?$AAR?$AAS?$AA_?$AAS?$AAE?$AAN?$AAT?$AA_?$AAP?$AAO?$AAP?$AA?$AA@| [ DATA ] ; `string'
	EXPORT	|??_C@_1DI@IPKMJPLF@?$AAM?$AAE?$AAS?$AAS?$AAA?$AAG?$AAI?$AAN?$AAG?$AA_?$AAF?$AAO?$AAL?$AAD?$AAE?$AAR?$AAS?$AA_?$AAS?$AAE?$AAN?$AAT?$AA_?$AAI?$AAM?$AAA?$AAP?$AA?$AA@| [ DATA ] ; `string'
	EXPORT	|??_C@_1DK@OANEBLGM@?$AAM?$AAE?$AAS?$AAS?$AAA?$AAG?$AAI?$AAN?$AAG?$AA_?$AAF?$AAO?$AAL?$AAD?$AAE?$AAR?$AAS?$AA_?$AAS?$AAE?$AAN?$AAT?$AA_?$AAO?$AAT?$AAH?$AAE?$AAR?$AA?$AA@| [ DATA ] ; `string'
	EXPORT	|??_C@_1DM@IAHNBAKO@?$AAM?$AAE?$AAS?$AAS?$AAA?$AAG?$AAI?$AAN?$AAG?$AA_?$AAS?$AAE?$AAT?$AAU?$AAP?$AA_?$AAS?$AAI?$AAG?$AAN?$AA_?$AAE?$AAX?$AAC?$AAH?$AAA?$AAN?$AAG?$AAE?$AA?$AA@| [ DATA ] ; `string'
	EXPORT	|??_C@_1DC@CNOBPCOP@?$AAM?$AAE?$AAS?$AAS?$AAA?$AAG?$AAI?$AAN?$AAG?$AA_?$AAS?$AAE?$AAT?$AAU?$AAP?$AA_?$AAS?$AAI?$AAG?$AAN?$AA_?$AAS?$AAM?$AAS?$AA?$AA@| [ DATA ] ; `string'
	EXPORT	|??_C@_1DC@PMBDPLOJ@?$AAM?$AAE?$AAS?$AAS?$AAA?$AAG?$AAI?$AAN?$AAG?$AA_?$AAS?$AAE?$AAT?$AAU?$AAP?$AA_?$AAS?$AAI?$AAG?$AAN?$AA_?$AAP?$AAO?$AAP?$AA?$AA@| [ DATA ] ; `string'
	EXPORT	|??_C@_1DE@DPMKOMOB@?$AAM?$AAE?$AAS?$AAS?$AAA?$AAG?$AAI?$AAN?$AAG?$AA_?$AAS?$AAE?$AAT?$AAU?$AAP?$AA_?$AAS?$AAI?$AAG?$AAN?$AA_?$AAI?$AAM?$AAA?$AAP?$AA?$AA@| [ DATA ] ; `string'
	EXPORT	|??_C@_1DG@PHAPBDNM@?$AAM?$AAE?$AAS?$AAS?$AAA?$AAG?$AAI?$AAN?$AAG?$AA_?$AAS?$AAE?$AAT?$AAU?$AAP?$AA_?$AAS?$AAI?$AAG?$AAN?$AA_?$AAO?$AAT?$AAH?$AAE?$AAR?$AA?$AA@| [ DATA ] ; `string'
	EXPORT	|??_C@_1EG@PAMGFNMG@?$AAM?$AAE?$AAS?$AAS?$AAA?$AAG?$AAI?$AAN?$AAG?$AA_?$AAS?$AAE?$AAT?$AAU?$AAP?$AA_?$AAE?$AAM?$AAA?$AAI?$AAL?$AAD?$AAA?$AAY?$AAS?$AA_?$AAE?$AAX?$AAC?$AAH?$AAA?$AAN@| [ DATA ] ; `string'
	EXPORT	|??_C@_1DM@DJLAEEDB@?$AAM?$AAE?$AAS?$AAS?$AAA?$AAG?$AAI?$AAN?$AAG?$AA_?$AAS?$AAE?$AAT?$AAU?$AAP?$AA_?$AAE?$AAM?$AAA?$AAI?$AAL?$AAD?$AAA?$AAY?$AAS?$AA_?$AAS?$AAM?$AAS?$AA?$AA@| [ DATA ] ; `string'
	EXPORT	|??_C@_1DM@OIECENDH@?$AAM?$AAE?$AAS?$AAS?$AAA?$AAG?$AAI?$AAN?$AAG?$AA_?$AAS?$AAE?$AAT?$AAU?$AAP?$AA_?$AAE?$AAM?$AAA?$AAI?$AAL?$AAD?$AAA?$AAY?$AAS?$AA_?$AAP?$AAO?$AAP?$AA?$AA@| [ DATA ] ; `string'
	EXPORT	|??_C@_1DO@CHDAGJI@?$AAM?$AAE?$AAS?$AAS?$AAA?$AAG?$AAI?$AAN?$AAG?$AA_?$AAS?$AAE?$AAT?$AAU?$AAP?$AA_?$AAE?$AAM?$AAA?$AAI?$AAL?$AAD?$AAA?$AAY?$AAS?$AA_?$AAI?$AAM?$AAA?$AAP?$AA?$AA@| [ DATA ] ; `string'
	EXPORT	|??_C@_1EA@EJCNOHLM@?$AAM?$AAE?$AAS?$AAS?$AAA?$AAG?$AAI?$AAN?$AAG?$AA_?$AAS?$AAE?$AAT?$AAU?$AAP?$AA_?$AAE?$AAM?$AAA?$AAI?$AAL?$AAD?$AAA?$AAY?$AAS?$AA_?$AAO?$AAT?$AAH?$AAE?$AAR?$AA?$AA@| [ DATA ] ; `string'
	EXPORT	|??_C@_1EK@MCCHALFO@?$AAM?$AAE?$AAS?$AAS?$AAA?$AAG?$AAI?$AAN?$AAG?$AA_?$AAS?$AAE?$AAT?$AAU?$AAP?$AA_?$AAB?$AAY?$AAT?$AAE?$AAS?$AAP?$AAE?$AAR?$AAM?$AAS?$AAG?$AA_?$AAE?$AAX?$AAC?$AAH@| [ DATA ] ; `string'
	EXPORT	|??_C@_1EA@KOMHAPDG@?$AAM?$AAE?$AAS?$AAS?$AAA?$AAG?$AAI?$AAN?$AAG?$AA_?$AAS?$AAE?$AAT?$AAU?$AAP?$AA_?$AAB?$AAY?$AAT?$AAE?$AAS?$AAP?$AAE?$AAR?$AAM?$AAS?$AAG?$AA_?$AAS?$AAM?$AAS?$AA?$AA@| [ DATA ] ; `string'
	EXPORT	|??_C@_1EA@HPDFAGDA@?$AAM?$AAE?$AAS?$AAS?$AAA?$AAG?$AAI?$AAN?$AAG?$AA_?$AAS?$AAE?$AAT?$AAU?$AAP?$AA_?$AAB?$AAY?$AAT?$AAE?$AAS?$AAP?$AAE?$AAR?$AAM?$AAS?$AAG?$AA_?$AAP?$AAO?$AAP?$AA?$AA@| [ DATA ] ; `string'
	EXPORT	|??_C@_1EC@KMDMJPDA@?$AAM?$AAE?$AAS?$AAS?$AAA?$AAG?$AAI?$AAN?$AAG?$AA_?$AAS?$AAE?$AAT?$AAU?$AAP?$AA_?$AAB?$AAY?$AAT?$AAE?$AAS?$AAP?$AAE?$AAR?$AAM?$AAS?$AAG?$AA_?$AAI?$AAM?$AAA?$AAP@| [ DATA ] ; `string'
	EXPORT	|??_C@_1EE@KGCAFEPC@?$AAM?$AAE?$AAS?$AAS?$AAA?$AAG?$AAI?$AAN?$AAG?$AA_?$AAS?$AAE?$AAT?$AAU?$AAP?$AA_?$AAB?$AAY?$AAT?$AAE?$AAS?$AAP?$AAE?$AAR?$AAM?$AAS?$AAG?$AA_?$AAO?$AAT?$AAH?$AAE@| [ DATA ] ; `string'
	EXPORT	|??_C@_1EG@BMEAAAIH@?$AAM?$AAE?$AAS?$AAS?$AAA?$AAG?$AAI?$AAN?$AAG?$AA_?$AAS?$AAE?$AAT?$AAU?$AAP?$AA_?$AAM?$AAA?$AAX?$AAA?$AAT?$AAT?$AAA?$AAC?$AAH?$AA_?$AAE?$AAX?$AAC?$AAH?$AAA?$AAN@| [ DATA ] ; `string'
	EXPORT	|??_C@_1DM@EEBDJJJF@?$AAM?$AAE?$AAS?$AAS?$AAA?$AAG?$AAI?$AAN?$AAG?$AA_?$AAS?$AAE?$AAT?$AAU?$AAP?$AA_?$AAM?$AAA?$AAX?$AAA?$AAT?$AAT?$AAA?$AAC?$AAH?$AA_?$AAS?$AAM?$AAS?$AA?$AA@| [ DATA ] ; `string'
	EXPORT	|??_C@_1DM@JFOBJAJD@?$AAM?$AAE?$AAS?$AAS?$AAA?$AAG?$AAI?$AAN?$AAG?$AA_?$AAS?$AAE?$AAT?$AAU?$AAP?$AA_?$AAM?$AAA?$AAX?$AAA?$AAT?$AAT?$AAA?$AAC?$AAH?$AA_?$AAP?$AAO?$AAP?$AA?$AA@| [ DATA ] ; `string'
	EXPORT	|??_C@_1DO@DAHKKMLP@?$AAM?$AAE?$AAS?$AAS?$AAA?$AAG?$AAI?$AAN?$AAG?$AA_?$AAS?$AAE?$AAT?$AAU?$AAP?$AA_?$AAM?$AAA?$AAX?$AAA?$AAT?$AAT?$AAA?$AAC?$AAH?$AA_?$AAI?$AAM?$AAA?$AAP?$AA?$AA@| [ DATA ] ; `string'
	EXPORT	|??_C@_1EA@KFOLCNCG@?$AAM?$AAE?$AAS?$AAS?$AAA?$AAG?$AAI?$AAN?$AAG?$AA_?$AAS?$AAE?$AAT?$AAU?$AAP?$AA_?$AAM?$AAA?$AAX?$AAA?$AAT?$AAT?$AAA?$AAC?$AAH?$AA_?$AAO?$AAT?$AAH?$AAE?$AAR?$AA?$AA@| [ DATA ] ; `string'
	EXPORT	|??_C@_1FC@MGKLDAEK@?$AAM?$AAE?$AAS?$AAS?$AAA?$AAG?$AAI?$AAN?$AAG?$AA_?$AAS?$AAE?$AAN?$AAD?$AAR?$AAE?$AAC?$AAV?$AAO?$AAP?$AAT?$AA_?$AAC?$AAH?$AAE?$AAC?$AAK?$AAT?$AAI?$AAM?$AAE?$AA_@| [ DATA ] ; `string'
	EXPORT	|??_C@_1EI@IAHFIHCL@?$AAM?$AAE?$AAS?$AAS?$AAA?$AAG?$AAI?$AAN?$AAG?$AA_?$AAS?$AAE?$AAN?$AAD?$AAR?$AAE?$AAC?$AAV?$AAO?$AAP?$AAT?$AA_?$AAC?$AAH?$AAE?$AAC?$AAK?$AAT?$AAI?$AAM?$AAE?$AA_@| [ DATA ] ; `string'
	EXPORT	|??_C@_1EI@FBIHIOCN@?$AAM?$AAE?$AAS?$AAS?$AAA?$AAG?$AAI?$AAN?$AAG?$AA_?$AAS?$AAE?$AAN?$AAD?$AAR?$AAE?$AAC?$AAV?$AAO?$AAP?$AAT?$AA_?$AAC?$AAH?$AAE?$AAC?$AAK?$AAT?$AAI?$AAM?$AAE?$AA_@| [ DATA ] ; `string'
	EXPORT	|??_C@_1EK@LADDNGIM@?$AAM?$AAE?$AAS?$AAS?$AAA?$AAG?$AAI?$AAN?$AAG?$AA_?$AAS?$AAE?$AAN?$AAD?$AAR?$AAE?$AAC?$AAV?$AAO?$AAP?$AAT?$AA_?$AAC?$AAH?$AAE?$AAC?$AAK?$AAT?$AAI?$AAM?$AAE?$AA_@| [ DATA ] ; `string'
	EXPORT	|??_C@_1EM@OBFAFAHN@?$AAM?$AAE?$AAS?$AAS?$AAA?$AAG?$AAI?$AAN?$AAG?$AA_?$AAS?$AAE?$AAN?$AAD?$AAR?$AAE?$AAC?$AAV?$AAO?$AAP?$AAT?$AA_?$AAC?$AAH?$AAE?$AAC?$AAK?$AAT?$AAI?$AAM?$AAE?$AA_@| [ DATA ] ; `string'
	EXPORT	|??_C@_1FE@BPGMAAGH@?$AAM?$AAE?$AAS?$AAS?$AAA?$AAG?$AAI?$AAN?$AAG?$AA_?$AAS?$AAE?$AAN?$AAD?$AAR?$AAE?$AAC?$AAV?$AAO?$AAP?$AAT?$AA_?$AAR?$AAE?$AAQ?$AAU?$AAI?$AAR?$AAE?$AAS?$AAS?$AAL@| [ DATA ] ; `string'
	EXPORT	|??_C@_1EK@KMNBIFD@?$AAM?$AAE?$AAS?$AAS?$AAA?$AAG?$AAI?$AAN?$AAG?$AA_?$AAS?$AAE?$AAN?$AAD?$AAR?$AAE?$AAC?$AAV?$AAO?$AAP?$AAT?$AA_?$AAR?$AAE?$AAQ?$AAU?$AAI?$AAR?$AAE?$AAS?$AAS?$AAL@| [ DATA ] ; `string'
	EXPORT	|??_C@_1EK@NLDPBBFF@?$AAM?$AAE?$AAS?$AAS?$AAA?$AAG?$AAI?$AAN?$AAG?$AA_?$AAS?$AAE?$AAN?$AAD?$AAR?$AAE?$AAC?$AAV?$AAO?$AAP?$AAT?$AA_?$AAR?$AAE?$AAQ?$AAU?$AAI?$AAR?$AAE?$AAS?$AAS?$AAL@| [ DATA ] ; `string'
	EXPORT	|??_C@_1EM@DHGFCBBP@?$AAM?$AAE?$AAS?$AAS?$AAA?$AAG?$AAI?$AAN?$AAG?$AA_?$AAS?$AAE?$AAN?$AAD?$AAR?$AAE?$AAC?$AAV?$AAO?$AAP?$AAT?$AA_?$AAR?$AAE?$AAQ?$AAU?$AAI?$AAR?$AAE?$AAS?$AAS?$AAL@| [ DATA ] ; `string'
	EXPORT	|??_C@_1EO@JIOFGJEN@?$AAM?$AAE?$AAS?$AAS?$AAA?$AAG?$AAI?$AAN?$AAG?$AA_?$AAS?$AAE?$AAN?$AAD?$AAR?$AAE?$AAC?$AAV?$AAO?$AAP?$AAT?$AA_?$AAR?$AAE?$AAQ?$AAU?$AAI?$AAR?$AAE?$AAS?$AAS?$AAL@| [ DATA ] ; `string'
	EXPORT	|??_C@_1FM@DMEIHHMF@?$AAM?$AAE?$AAS?$AAS?$AAA?$AAG?$AAI?$AAN?$AAG?$AA_?$AAS?$AAE?$AAN?$AAD?$AAR?$AAE?$AAC?$AAV?$AAO?$AAP?$AAT?$AA_?$AAO?$AAU?$AAT?$AAR?$AAE?$AAQ?$AAU?$AAI?$AAR?$AAE@| [ DATA ] ; `string'
	EXPORT	|??_C@_1FC@IBODKKEB@?$AAM?$AAE?$AAS?$AAS?$AAA?$AAG?$AAI?$AAN?$AAG?$AA_?$AAS?$AAE?$AAN?$AAD?$AAR?$AAE?$AAC?$AAV?$AAO?$AAP?$AAT?$AA_?$AAO?$AAU?$AAT?$AAR?$AAE?$AAQ?$AAU?$AAI?$AAR?$AAE@| [ DATA ] ; `string'
	EXPORT	|??_C@_1FC@FABBKDEH@?$AAM?$AAE?$AAS?$AAS?$AAA?$AAG?$AAI?$AAN?$AAG?$AA_?$AAS?$AAE?$AAN?$AAD?$AAR?$AAE?$AAC?$AAV?$AAO?$AAP?$AAT?$AA_?$AAO?$AAU?$AAT?$AAR?$AAE?$AAQ?$AAU?$AAI?$AAR?$AAE@| [ DATA ] ; `string'
	EXPORT	|??_C@_1FE@GKPOAIEC@?$AAM?$AAE?$AAS?$AAS?$AAA?$AAG?$AAI?$AAN?$AAG?$AA_?$AAS?$AAE?$AAN?$AAD?$AAR?$AAE?$AAC?$AAV?$AAO?$AAP?$AAT?$AA_?$AAO?$AAU?$AAT?$AAR?$AAE?$AAQ?$AAU?$AAI?$AAR?$AAE@| [ DATA ] ; `string'
	EXPORT	|??_C@_1FG@NFECIPKD@?$AAM?$AAE?$AAS?$AAS?$AAA?$AAG?$AAI?$AAN?$AAG?$AA_?$AAS?$AAE?$AAN?$AAD?$AAR?$AAE?$AAC?$AAV?$AAO?$AAP?$AAT?$AA_?$AAO?$AAU?$AAT?$AAR?$AAE?$AAQ?$AAU?$AAI?$AAR?$AAE@| [ DATA ] ; `string'
	EXPORT	|??_C@_1FA@JFHECEBO@?$AAM?$AAE?$AAS?$AAS?$AAA?$AAG?$AAI?$AAN?$AAG?$AA_?$AAS?$AAE?$AAN?$AAD?$AAR?$AAE?$AAC?$AAV?$AAO?$AAP?$AAT?$AA_?$AAO?$AAU?$AAT?$AAN?$AAO?$AAT?$AAI?$AAN?$AA_?$AAE@| [ DATA ] ; `string'
	EXPORT	|??_C@_1EG@LHFKIGH@?$AAM?$AAE?$AAS?$AAS?$AAA?$AAG?$AAI?$AAN?$AAG?$AA_?$AAS?$AAE?$AAN?$AAD?$AAR?$AAE?$AAC?$AAV?$AAO?$AAP?$AAT?$AA_?$AAO?$AAU?$AAT?$AAN?$AAO?$AAT?$AAI?$AAN?$AA_?$AAS@| [ DATA ] ; `string'
	EXPORT	|??_C@_1EG@NKIHKBGB@?$AAM?$AAE?$AAS?$AAS?$AAA?$AAG?$AAI?$AAN?$AAG?$AA_?$AAS?$AAE?$AAN?$AAD?$AAR?$AAE?$AAC?$AAV?$AAO?$AAP?$AAT?$AA_?$AAO?$AAU?$AAT?$AAN?$AAO?$AAT?$AAI?$AAN?$AA_?$AAP@| [ DATA ] ; `string'
	EXPORT	|??_C@_1EI@EHCOGANM@?$AAM?$AAE?$AAS?$AAS?$AAA?$AAG?$AAI?$AAN?$AAG?$AA_?$AAS?$AAE?$AAN?$AAD?$AAR?$AAE?$AAC?$AAV?$AAO?$AAP?$AAT?$AA_?$AAO?$AAU?$AAT?$AAN?$AAO?$AAT?$AAI?$AAN?$AA_?$AAI@| [ DATA ] ; `string'
	EXPORT	|??_C@_1EK@HJOJOMIN@?$AAM?$AAE?$AAS?$AAS?$AAA?$AAG?$AAI?$AAN?$AAG?$AA_?$AAS?$AAE?$AAN?$AAD?$AAR?$AAE?$AAC?$AAV?$AAO?$AAP?$AAT?$AA_?$AAO?$AAU?$AAT?$AAN?$AAO?$AAT?$AAI?$AAN?$AA_?$AAO@| [ DATA ] ; `string'
	EXPORT	|??_C@_1DA@GBPFDBHN@?$AAM?$AAE?$AAS?$AAS?$AAA?$AAG?$AAI?$AAN?$AAG?$AA_?$AAR?$AAE?$AAA?$AAD?$AA_?$AAE?$AAX?$AAC?$AAH?$AAA?$AAN?$AAG?$AAE?$AA?$AA@| [ DATA ] ; `string'
	EXPORT	|??_C@_1CG@PGCONIOG@?$AAM?$AAE?$AAS?$AAS?$AAA?$AAG?$AAI?$AAN?$AAG?$AA_?$AAR?$AAE?$AAA?$AAD?$AA_?$AAS?$AAM?$AAS?$AA?$AA@| [ DATA ] ; `string'
	EXPORT	|??_C@_1CG@CHNMNBOA@?$AAM?$AAE?$AAS?$AAS?$AAA?$AAG?$AAI?$AAN?$AAG?$AA_?$AAR?$AAE?$AAA?$AAD?$AA_?$AAP?$AAO?$AAP?$AA?$AA@| [ DATA ] ; `string'
	EXPORT	|??_C@_1CI@DFLDEFLB@?$AAM?$AAE?$AAS?$AAS?$AAA?$AAG?$AAI?$AAN?$AAG?$AA_?$AAR?$AAE?$AAA?$AAD?$AA_?$AAI?$AAM?$AAA?$AAP?$AA?$AA@| [ DATA ] ; `string'
	EXPORT	|??_C@_1CK@OCLOFPLN@?$AAM?$AAE?$AAS?$AAS?$AAA?$AAG?$AAI?$AAN?$AAG?$AA_?$AAR?$AAE?$AAA?$AAD?$AA_?$AAO?$AAT?$AAH?$AAE?$AAR?$AA?$AA@| [ DATA ] ; `string'
	EXPORT	|??_C@_1DG@GALELNGG@?$AAM?$AAE?$AAS?$AAS?$AAA?$AAG?$AAI?$AAN?$AAG?$AA_?$AAN?$AAU?$AAM?$AAS?$AAE?$AAN?$AAT?$AA_?$AAE?$AAX?$AAC?$AAH?$AAA?$AAN?$AAG?$AAE?$AA?$AA@| [ DATA ] ; `string'
	EXPORT	|??_C@_1CM@JGFFNP@?$AAM?$AAE?$AAS?$AAS?$AAA?$AAG?$AAI?$AAN?$AAG?$AA_?$AAN?$AAU?$AAM?$AAS?$AAE?$AAN?$AAT?$AA_?$AAS?$AAM?$AAS?$AA?$AA@| [ DATA ] ; `string'
	EXPORT	|??_C@_1CM@NBGEFMNJ@?$AAM?$AAE?$AAS?$AAS?$AAA?$AAG?$AAI?$AAN?$AAG?$AA_?$AAN?$AAU?$AAM?$AAS?$AAE?$AAN?$AAT?$AA_?$AAP?$AAO?$AAP?$AA?$AA@| [ DATA ] ; `string'
	EXPORT	|??_C@_1CO@KIDOMBCO@?$AAM?$AAE?$AAS?$AAS?$AAA?$AAG?$AAI?$AAN?$AAG?$AA_?$AAN?$AAU?$AAM?$AAS?$AAE?$AAN?$AAT?$AA_?$AAI?$AAM?$AAA?$AAP?$AA?$AA@| [ DATA ] ; `string'
	EXPORT	|??_C@_1DA@POLCBDNM@?$AAM?$AAE?$AAS?$AAS?$AAA?$AAG?$AAI?$AAN?$AAG?$AA_?$AAN?$AAU?$AAM?$AAS?$AAE?$AAN?$AAT?$AA_?$AAO?$AAT?$AAH?$AAE?$AAR?$AA?$AA@| [ DATA ] ; `string'
	EXPORT	|??_C@_1CC@NPMBPHGF@?$AAC?$AAA?$AAL?$AAL?$AAE?$AAR?$AA_?$AAI?$AAD?$AA_?$AAL?$AAO?$AAO?$AAK?$AAU?$AAP?$AA?$AA@| [ DATA ] ; `string'
	EXPORT	|??_C@_1BK@OJPAFFHM@?$AAP?$AAH?$AAO?$AAN?$AAE?$AA_?$AAT?$AAI?$AAM?$AAE?$AAR?$AAS?$AA?$AA@| [ DATA ] ; `string'
	EXPORT	|??_C@_1BK@CIKCAHDJ@?$AAP?$AAH?$AAO?$AAN?$AAE?$AA_?$AAE?$AAR?$AAR?$AAO?$AAR?$AAS?$AA?$AA@| [ DATA ] ; `string'
	EXPORT	|??_C@_1CO@KIOMMDEN@?$AAM?$AAE?$AAS?$AAS?$AAA?$AAG?$AAI?$AAN?$AAG?$AA_?$AAU?$AAS?$AAE?$AAR?$AA_?$AAA?$AAC?$AAT?$AAI?$AAO?$AAN?$AAS?$AA?$AA@| [ DATA ] ; `string'
	EXPORT	|??_C@_1EK@DGNIFIDO@?$AAM?$AAE?$AAS?$AAS?$AAA?$AAG?$AAI?$AAN?$AAG?$AA_?$AAC?$AAO?$AAU?$AAN?$AAT?$AA_?$AAF?$AAO?$AAL?$AAD?$AAE?$AAR?$AAS?$AAS?$AAY?$AAN?$AAC?$AA_?$AAE?$AAX?$AAC?$AAH@| [ DATA ] ; `string'
	EXPORT	|??_C@_1EA@NKEBOJKJ@?$AAM?$AAE?$AAS?$AAS?$AAA?$AAG?$AAI?$AAN?$AAG?$AA_?$AAC?$AAO?$AAU?$AAN?$AAT?$AA_?$AAF?$AAO?$AAL?$AAD?$AAE?$AAR?$AAS?$AAS?$AAY?$AAN?$AAC?$AA_?$AAS?$AAM?$AAS?$AA?$AA@| [ DATA ] ; `string'
	EXPORT	|??_C@_1EA@LLDOAKP@?$AAM?$AAE?$AAS?$AAS?$AAA?$AAG?$AAI?$AAN?$AAG?$AA_?$AAC?$AAO?$AAU?$AAN?$AAT?$AA_?$AAF?$AAO?$AAL?$AAD?$AAE?$AAR?$AAS?$AAS?$AAY?$AAN?$AAC?$AA_?$AAP?$AAO?$AAP?$AA?$AA@| [ DATA ] ; `string'
	EXPORT	|??_C@_1EC@BDIMDKCO@?$AAM?$AAE?$AAS?$AAS?$AAA?$AAG?$AAI?$AAN?$AAG?$AA_?$AAC?$AAO?$AAU?$AAN?$AAT?$AA_?$AAF?$AAO?$AAL?$AAD?$AAE?$AAR?$AAS?$AAS?$AAY?$AAN?$AAC?$AA_?$AAI?$AAM?$AAA?$AAP@| [ DATA ] ; `string'
	EXPORT	|??_C@_1EE@NENNIDPK@?$AAM?$AAE?$AAS?$AAS?$AAA?$AAG?$AAI?$AAN?$AAG?$AA_?$AAC?$AAO?$AAU?$AAN?$AAT?$AA_?$AAF?$AAO?$AAL?$AAD?$AAE?$AAR?$AAS?$AAS?$AAY?$AAN?$AAC?$AA_?$AAO?$AAT?$AAH?$AAE@| [ DATA ] ; `string'
	EXPORT	|??_C@_1CM@EFFABNBM@?$AAP?$AAH?$AAO?$AAN?$AAE?$AA_?$AAC?$AAP?$AAR?$AAO?$AAG?$AA_?$AAM?$AAE?$AAM?$AA_?$AAU?$AAS?$AAA?$AAG?$AAE?$AA?$AA@| [ DATA ] ; `string'
	EXPORT	|??_C@_1CM@DAPFPGLK@?$AAP?$AAH?$AAO?$AAN?$AAE?$AA_?$AAC?$AAD?$AAI?$AAA?$AAL?$AA_?$AAM?$AAE?$AAM?$AA_?$AAU?$AAS?$AAA?$AAG?$AAE?$AA?$AA@| [ DATA ] ; `string'
	EXPORT	|??_C@_1CK@OENKFNNP@?$AAD?$AAE?$AAV?$AAI?$AAC?$AAE?$AA_?$AAT?$AAI?$AAM?$AAE?$AAS?$AAI?$AAN?$AAC?$AAE?$AAB?$AAO?$AAO?$AAT?$AA?$AA@| [ DATA ] ; `string'
	EXPORT	|??_C@_1DC@BOJFHDHH@?$AAK?$AAE?$AAR?$AAN?$AAE?$AAL?$AA_?$AAM?$AAE?$AAM?$AAO?$AAR?$AAY?$AA_?$AAV?$AAM?$AAO?$AAO?$AAM?$AAC?$AAO?$AAU?$AAN?$AAT?$AA?$AA@| [ DATA ] ; `string'
	EXPORT	|??_C@_1DG@JLIFABGF@?$AAK?$AAE?$AAR?$AAN?$AAE?$AAL?$AA_?$AAM?$AAE?$AAM?$AAO?$AAR?$AAY?$AA_?$AAP?$AAH?$AAY?$AAS?$AAO?$AAO?$AAM?$AAC?$AAO?$AAU?$AAN?$AAT?$AA?$AA@| [ DATA ] ; `string'
	EXPORT	|??_C@_1DG@OBIIBIAL@?$AAK?$AAE?$AAR?$AAN?$AAE?$AAL?$AA_?$AAM?$AAE?$AAM?$AAO?$AAR?$AAY?$AA_?$AAV?$AAM?$AAA?$AAL?$AAL?$AAO?$AAC?$AAC?$AAO?$AAU?$AAN?$AAT?$AA?$AA@| [ DATA ] ; `string'
	EXPORT	|??_C@_1DM@GDBGBPFD@?$AAK?$AAE?$AAR?$AAN?$AAE?$AAL?$AA_?$AAM?$AAE?$AAM?$AAO?$AAR?$AAY?$AA_?$AAD?$AAL?$AAL?$AA_?$AAL?$AAO?$AAW?$AA_?$AAA?$AAD?$AAD?$AAR?$AAE?$AAS?$AAS?$AA?$AA@| [ DATA ] ; `string'
	EXPORT	|??_C@_1DM@NMMDGPHC@?$AAK?$AAE?$AAR?$AAN?$AAE?$AAL?$AA_?$AAM?$AAE?$AAM?$AAO?$AAR?$AAY?$AA_?$AAV?$AAM?$AA_?$AAH?$AAI?$AAG?$AAH?$AA_?$AAA?$AAD?$AAD?$AAR?$AAE?$AAS?$AAS?$AA?$AA@| [ DATA ] ; `string'
	EXPORT	|??_C@_1EC@GFDOHKPH@?$AAK?$AAE?$AAR?$AAN?$AAE?$AAL?$AA_?$AAM?$AAE?$AAM?$AAO?$AAR?$AAY?$AA_?$AAP?$AAH?$AAY?$AAS?$AAI?$AAC?$AAA?$AAL?$AA_?$AAL?$AAO?$AAW?$AA_?$AAC?$AAO?$AAU?$AAN?$AAT@| [ DATA ] ; `string'
	EXPORT	|??_C@_1EC@MDPDIDGD@?$AAK?$AAE?$AAR?$AAN?$AAE?$AAL?$AA_?$AAM?$AAE?$AAM?$AAO?$AAR?$AAY?$AA_?$AAR?$AAA?$AAM?$AA_?$AAB?$AAA?$AAS?$AAE?$AAL?$AAI?$AAN?$AAE?$AA_?$AAC?$AAO?$AAU?$AAN?$AAT@| [ DATA ] ; `string'
	EXPORT	|??_C@_1CK@FOGMGJKL@?$AAK?$AAE?$AAR?$AAN?$AAE?$AAL?$AA_?$AAM?$AAE?$AAM?$AAO?$AAR?$AAY?$AA_?$AAV?$AAM?$AA_?$AAG?$AAA?$AAP?$AA?$AA@| [ DATA ] ; `string'
	EXPORT	|??_C@_1CO@JNDFJJIK@?$AAM?$AAS?$AAG?$AA_?$AAN?$AAU?$AAM?$AAB?$AAE?$AAR?$AA_?$AAO?$AAF?$AA_?$AAA?$AAC?$AAC?$AAO?$AAU?$AAN?$AAT?$AAS?$AA?$AA@| [ DATA ] ; `string'
	EXPORT	|??_C@_1EK@FLIFMJHL@?$AAM?$AAS?$AAG?$AA_?$AAN?$AAU?$AAM?$AAB?$AAE?$AAR?$AA_?$AAO?$AAF?$AA_?$AAA?$AAC?$AAC?$AAO?$AAU?$AAN?$AAT?$AAS?$AA_?$AAM?$AAA?$AAP?$AAP?$AAI?$AAN?$AAG?$AA_?$AAD@| [ DATA ] ; `string'
	EXPORT	|??_C@_1EK@PJLDCDFP@?$AAM?$AAS?$AAG?$AA_?$AAA?$AAC?$AAC?$AAO?$AAU?$AAN?$AAT?$AA_?$AAU?$AAS?$AAA?$AAG?$AAE?$AA_?$AAT?$AAY?$AAP?$AAE?$AA_?$AAM?$AAA?$AAP?$AAP?$AAI?$AAN?$AAG?$AA_?$AAD@| [ DATA ] ; `string'
	EXPORT	|??_C@_1EI@OOKNOJJA@?$AAM?$AAS?$AAG?$AA_?$AAE?$AAX?$AAC?$AAH?$AAA?$AAN?$AAG?$AAE?$AA_?$AAE?$AAM?$AAA?$AAI?$AAL?$AA_?$AAP?$AAA?$AAR?$AAT?$AAN?$AAE?$AAR?$AAS?$AAH?$AAI?$AAP?$AA_?$AAT@| [ DATA ] ; `string'
	EXPORT	|??_C@_1EI@MPCFNPJI@?$AAM?$AAS?$AAG?$AA_?$AAN?$AAU?$AAM?$AAB?$AAE?$AAR?$AA_?$AAO?$AAF?$AA_?$AAT?$AAI?$AAM?$AAE?$AAS?$AA_?$AAM?$AAE?$AAS?$AAS?$AAA?$AAG?$AAE?$AAS?$AA_?$AAO?$AAP?$AAE@| [ DATA ] ; `string'
	EXPORT	|??_C@_1DE@HPIAADCN@?$AAM?$AAS?$AAG?$AA_?$AAL?$AAE?$AAF?$AAT?$AA_?$AAR?$AAI?$AAG?$AAH?$AAT?$AA_?$AAU?$AAS?$AAE?$AAD?$AA_?$AAI?$AAN?$AA_?$AAR?$AAF?$AA?$AA@| [ DATA ] ; `string'
	EXPORT	|??_C@_1EI@EECKEEHN@?$AAM?$AAS?$AAG?$AA_?$AAE?$AAV?$AAE?$AAR?$AAY?$AA_?$AAT?$AAE?$AAN?$AA_?$AAP?$AAE?$AAR?$AAC?$AAE?$AAN?$AAT?$AA_?$AAM?$AAA?$AAP?$AAP?$AAI?$AAN?$AAG?$AA_?$AAD?$AAU@| [ DATA ] ; `string'
	EXPORT	|??_C@_1CA@EHKLBLFK@?$AAM?$AAS?$AAG?$AA_?$AAL?$AAV?$AA_?$AAN?$AAE?$AAW?$AA_?$AAU?$AAS?$AAE?$AAD?$AA?$AA@| [ DATA ] ; `string'
	EXPORT	|??_C@_1CE@EGJAFMMM@?$AAM?$AAS?$AAG?$AA_?$AAL?$AAV?$AA_?$AAR?$AAE?$AAP?$AAL?$AAY?$AA_?$AAU?$AAS?$AAE?$AAD?$AA?$AA@| [ DATA ] ; `string'
	EXPORT	|??_C@_1CM@FCMEODIF@?$AAM?$AAS?$AAG?$AA_?$AAL?$AAV?$AA_?$AAR?$AAE?$AAP?$AAL?$AAY?$AA_?$AAA?$AAL?$AAL?$AA_?$AAU?$AAS?$AAE?$AAD?$AA?$AA@| [ DATA ] ; `string'
	EXPORT	|??_C@_1CI@BEOLOBKG@?$AAM?$AAS?$AAG?$AA_?$AAL?$AAV?$AA_?$AAF?$AAO?$AAR?$AAW?$AAA?$AAR?$AAD?$AA_?$AAU?$AAS?$AAE?$AAD?$AA?$AA@| [ DATA ] ; `string'
	EXPORT	|??_C@_1CG@DOCPHIKI@?$AAM?$AAS?$AAG?$AA_?$AAL?$AAV?$AA_?$AAD?$AAE?$AAL?$AAE?$AAT?$AAE?$AA_?$AAU?$AAS?$AAE?$AAD?$AA?$AA@| [ DATA ] ; `string'
	EXPORT	|??_C@_1DA@LIKGHMPF@?$AAM?$AAS?$AAG?$AA_?$AAL?$AAV?$AA_?$AAM?$AAA?$AAR?$AAK?$AA_?$AAU?$AAN?$AAR?$AAE?$AAA?$AAD?$AA_?$AAU?$AAS?$AAE?$AAD?$AA?$AA@| [ DATA ] ; `string'
	EXPORT	|??_C@_1CC@MNGDDMKD@?$AAM?$AAS?$AAG?$AA_?$AAL?$AAV?$AA_?$AAF?$AAL?$AAA?$AAG?$AA_?$AAU?$AAS?$AAE?$AAD?$AA?$AA@| [ DATA ] ; `string'
	EXPORT	|??_C@_1CC@OPCHHIPP@?$AAM?$AAS?$AAG?$AA_?$AAL?$AAV?$AA_?$AAM?$AAO?$AAV?$AAE?$AA_?$AAU?$AAS?$AAE?$AAD?$AA?$AA@| [ DATA ] ; `string'
	EXPORT	|??_C@_1CI@DBBGHACC@?$AAM?$AAS?$AAG?$AA_?$AAL?$AAV?$AA_?$AAF?$AAO?$AAL?$AAD?$AAE?$AAR?$AAS?$AA_?$AAU?$AAS?$AAE?$AAD?$AA?$AA@| [ DATA ] ; `string'
	EXPORT	|??_C@_1DI@GKJIGBDM@?$AAM?$AAS?$AAG?$AA_?$AAL?$AAV?$AA_?$AAS?$AAW?$AAI?$AAT?$AAC?$AAH?$AA_?$AAA?$AAC?$AAC?$AAO?$AAU?$AAN?$AAT?$AAS?$AA_?$AAU?$AAS?$AAE?$AAD?$AA?$AA@| [ DATA ] ; `string'
	EXPORT	|??_C@_1CE@GJJPIEJJ@?$AAM?$AAS?$AAG?$AA_?$AAL?$AAV?$AA_?$AAT?$AAO?$AAO?$AAL?$AAS?$AA_?$AAU?$AAS?$AAE?$AAD?$AA?$AA@| [ DATA ] ; `string'
	EXPORT	|??_C@_1DK@GBJOAFBB@?$AAM?$AAS?$AAG?$AA_?$AAL?$AAV?$AA_?$AAD?$AAO?$AAW?$AAN?$AAL?$AAO?$AAA?$AAD?$AA_?$AAM?$AAE?$AAS?$AAS?$AAA?$AAG?$AAE?$AA_?$AAU?$AAS?$AAE?$AAD?$AA?$AA@| [ DATA ] ; `string'
	EXPORT	|??_C@_1DC@FEEICIMD@?$AAM?$AAS?$AAG?$AA_?$AAL?$AAV?$AA_?$AAS?$AAE?$AAN?$AAD?$AA_?$AAR?$AAE?$AAC?$AAE?$AAI?$AAV?$AAE?$AA_?$AAU?$AAS?$AAE?$AAD?$AA?$AA@| [ DATA ] ; `string'
	EXPORT	|??_C@_1CE@PPIODAMC@?$AAM?$AAS?$AAG?$AA_?$AAR?$AAF?$AA_?$AAR?$AAE?$AAP?$AAL?$AAY?$AA_?$AAU?$AAS?$AAE?$AAD?$AA?$AA@| [ DATA ] ; `string'
	EXPORT	|??_C@_1CM@CPFDNOKI@?$AAM?$AAS?$AAG?$AA_?$AAR?$AAF?$AA_?$AAR?$AAE?$AAP?$AAL?$AAY?$AA_?$AAA?$AAL?$AAL?$AA_?$AAU?$AAS?$AAE?$AAD?$AA?$AA@| [ DATA ] ; `string'
	EXPORT	|??_C@_1CI@NDAFJACG@?$AAM?$AAS?$AAG?$AA_?$AAR?$AAF?$AA_?$AAF?$AAO?$AAR?$AAW?$AAA?$AAR?$AAD?$AA_?$AAU?$AAS?$AAE?$AAD?$AA?$AA@| [ DATA ] ; `string'
	EXPORT	|??_C@_1CG@OEKIMBEL@?$AAM?$AAS?$AAG?$AA_?$AAR?$AAF?$AA_?$AAD?$AAE?$AAL?$AAE?$AAT?$AAE?$AA_?$AAU?$AAS?$AAE?$AAD?$AA?$AA@| [ DATA ] ; `string'
	EXPORT	|??_C@_1DA@NGPJGMIJ@?$AAM?$AAS?$AAG?$AA_?$AAR?$AAF?$AA_?$AAM?$AAA?$AAR?$AAK?$AA_?$AAU?$AAN?$AAR?$AAE?$AAA?$AAD?$AA_?$AAU?$AAS?$AAE?$AAD?$AA?$AA@| [ DATA ] ; `string'
	EXPORT	|??_C@_1CC@HCKNOIOL@?$AAM?$AAS?$AAG?$AA_?$AAR?$AAF?$AA_?$AAF?$AAL?$AAA?$AAG?$AA_?$AAU?$AAS?$AAE?$AAD?$AA?$AA@| [ DATA ] ; `string'
	EXPORT	|??_C@_1CC@FAOJKMLH@?$AAM?$AAS?$AAG?$AA_?$AAR?$AAF?$AA_?$AAM?$AAO?$AAV?$AAE?$AA_?$AAU?$AAS?$AAE?$AAD?$AA?$AA@| [ DATA ] ; `string'
	EXPORT	|??_C@_1CC@MEBCFCMC@?$AAM?$AAS?$AAG?$AA_?$AAR?$AAF?$AA_?$AAV?$AAI?$AAE?$AAW?$AA_?$AAU?$AAS?$AAE?$AAD?$AA?$AA@| [ DATA ] ; `string'
	EXPORT	|??_C@_1DK@HGKEPEKE@?$AAM?$AAS?$AAG?$AA_?$AAR?$AAF?$AA_?$AAD?$AAO?$AAW?$AAN?$AAL?$AAO?$AAA?$AAD?$AA_?$AAM?$AAE?$AAS?$AAS?$AAA?$AAG?$AAE?$AA_?$AAU?$AAS?$AAE?$AAD?$AA?$AA@| [ DATA ] ; `string'
	EXPORT	|??_C@_1DC@MKHFGAAC@?$AAM?$AAS?$AAG?$AA_?$AAR?$AAF?$AA_?$AAS?$AAE?$AAN?$AAD?$AA_?$AAR?$AAE?$AAC?$AAE?$AAI?$AAV?$AAE?$AA_?$AAU?$AAS?$AAE?$AAD?$AA?$AA@| [ DATA ] ; `string'
	EXPORT	|??_C@_1EK@ONEGIGNI@?$AAM?$AAS?$AAG?$AA_?$AAE?$AAV?$AAE?$AAR?$AAY?$AA_?$AAF?$AAI?$AAV?$AAE?$AA_?$AAP?$AAE?$AAR?$AAC?$AAE?$AAN?$AAT?$AA_?$AAM?$AAA?$AAP?$AAP?$AAI?$AAN?$AAG?$AA_?$AAD@| [ DATA ] ; `string'
	EXPORT	|??_C@_1FA@BDOHGECC@?$AAM?$AAS?$AAG?$AA_?$AAL?$AAE?$AAF?$AAT?$AA_?$AAR?$AAI?$AAG?$AAH?$AAT?$AA_?$AAU?$AAS?$AAA?$AAG?$AAE?$AA_?$AAT?$AAY?$AAP?$AAE?$AA_?$AAM?$AAA?$AAP?$AAP?$AAI?$AAN@| [ DATA ] ; `string'
	EXPORT	|??_C@_1CO@CDBKKPFE@?$AAM?$AAS?$AAG?$AA_?$AAL?$AAV?$AA_?$AAM?$AAE?$AAN?$AAU?$AA_?$AAU?$AAS?$AAE?$AAD?$AA_?$AAT?$AAO?$AAT?$AAA?$AAL?$AA?$AA@| [ DATA ] ; `string'
	EXPORT	|??_C@_1CO@FLFIMEDN@?$AAM?$AAS?$AAG?$AA_?$AAR?$AAF?$AA_?$AAM?$AAE?$AAN?$AAU?$AA_?$AAU?$AAS?$AAE?$AAD?$AA_?$AAT?$AAO?$AAT?$AAA?$AAL?$AA?$AA@| [ DATA ] ; `string'
	EXPORT	|??_C@_1CI@LLHJDIJF@?$AAM?$AAS?$AAG?$AA_?$AAL?$AAV?$AA_?$AAS?$AAO?$AAR?$AAT?$AA_?$AAO?$AAP?$AAT?$AAI?$AAO?$AAN?$AAS?$AA?$AA@| [ DATA ] ; `string'
	EXPORT	|??_C@_1CM@NFKMKFJJ@?$AAM?$AAS?$AAG?$AA_?$AAF?$AAU?$AAN?$AAC?$AAT?$AAI?$AAO?$AAN?$AAS?$AA_?$AAE?$AAN?$AAA?$AAB?$AAL?$AAE?$AAD?$AA?$AA@| [ DATA ] ; `string'
	EXPORT	|??_C@_1EO@FDFBIBNG@?$AAD?$AAE?$AAV?$AAE?$AAX?$AA_?$AAA?$AAP?$AAP?$AAC?$AAO?$AAM?$AAP?$AAA?$AAT?$AA_?$AAI?$AAN?$AAS?$AAT?$AAA?$AAL?$AAL?$AAE?$AAD?$AA_?$AAA?$AAP?$AAP?$AAS?$AA_?$AAC@| [ DATA ] ; `string'
	EXPORT	|??_C@_1CA@KPFGFGJB@?$AAC?$AAA?$AAL?$AA_?$AAT?$AAO?$AAT?$AAA?$AAL?$AA_?$AAC?$AAO?$AAU?$AAN?$AAT?$AA?$AA@| [ DATA ] ; `string'
	EXPORT	|??_C@_1DO@CAGJGBNC@?$AAC?$AAA?$AAL?$AA_?$AAA?$AAP?$AAP?$AAT?$AA_?$AAS?$AAI?$AAN?$AAG?$AAL?$AAE?$AA_?$AAI?$AAN?$AAS?$AAT?$AAA?$AAN?$AAC?$AAE?$AA_?$AAC?$AAO?$AAU?$AAN?$AAT?$AA?$AA@| [ DATA ] ; `string'
	EXPORT	|??_C@_1DK@OBAGEICH@?$AAC?$AAA?$AAL?$AA_?$AAA?$AAP?$AAP?$AAT?$AA_?$AAR?$AAE?$AAC?$AAU?$AAR?$AAR?$AAS?$AA_?$AAD?$AAA?$AAI?$AAL?$AAY?$AA_?$AAC?$AAO?$AAU?$AAN?$AAT?$AA?$AA@| [ DATA ] ; `string'
	EXPORT	|??_C@_1DK@JEHNBKKE@?$AAC?$AAA?$AAL?$AA_?$AAA?$AAP?$AAP?$AAT?$AA_?$AAR?$AAE?$AAC?$AAU?$AAR?$AAS?$AA_?$AAW?$AAE?$AAE?$AAK?$AAL?$AAY?$AA_?$AAC?$AAO?$AAU?$AAN?$AAT?$AA?$AA@| [ DATA ] ; `string'
	EXPORT	|??_C@_1DM@PEJIKMHK@?$AAC?$AAA?$AAL?$AA_?$AAA?$AAP?$AAP?$AAT?$AA_?$AAR?$AAE?$AAC?$AAU?$AAR?$AAS?$AA_?$AAM?$AAO?$AAN?$AAT?$AAH?$AAL?$AAY?$AA_?$AAC?$AAO?$AAU?$AAN?$AAT?$AA?$AA@| [ DATA ] ; `string'
	EXPORT	|??_C@_1DK@LKFBDPHI@?$AAC?$AAA?$AAL?$AA_?$AAA?$AAP?$AAP?$AAT?$AA_?$AAR?$AAE?$AAC?$AAU?$AAR?$AAS?$AA_?$AAY?$AAE?$AAA?$AAR?$AAL?$AAY?$AA_?$AAC?$AAO?$AAU?$AAN?$AAT?$AA?$AA@| [ DATA ] ; `string'
	EXPORT	|??_C@_1DK@PEBPMMIB@?$AAC?$AAA?$AAL?$AA_?$AAA?$AAP?$AAP?$AAT?$AA_?$AAR?$AAE?$AAC?$AAU?$AAR?$AAS?$AA_?$AAC?$AAU?$AAS?$AAT?$AAO?$AAM?$AA_?$AAC?$AAO?$AAU?$AAN?$AAT?$AA?$AA@| [ DATA ] ; `string'
	EXPORT	|??_C@_1CE@MLFBEFPJ@?$AAT?$AAA?$AAS?$AAK?$AAS?$AA_?$AAT?$AAO?$AAT?$AAA?$AAL?$AA_?$AAC?$AAO?$AAU?$AAN?$AAT?$AA?$AA@| [ DATA ] ; `string'
	EXPORT	|??_C@_1DK@NILNLI@?$AAC?$AAA?$AAL?$AA_?$AAT?$AAA?$AAS?$AAK?$AA_?$AAR?$AAE?$AAC?$AAU?$AAR?$AAS?$AA_?$AAW?$AAE?$AAE?$AAK?$AAL?$AAY?$AA_?$AAC?$AAO?$AAU?$AAN?$AAT?$AA?$AA@| [ DATA ] ; `string'
	EXPORT	|??_C@_1DM@FKFNFDMJ@?$AAC?$AAA?$AAL?$AA_?$AAT?$AAA?$AAS?$AAK?$AA_?$AAR?$AAE?$AAC?$AAU?$AAR?$AAS?$AA_?$AAM?$AAO?$AAN?$AAT?$AAH?$AAL?$AAY?$AA_?$AAC?$AAO?$AAU?$AAN?$AAT?$AA?$AA@| [ DATA ] ; `string'
	EXPORT	|??_C@_1DK@COPEJIGE@?$AAC?$AAA?$AAL?$AA_?$AAT?$AAA?$AAS?$AAK?$AA_?$AAR?$AAE?$AAC?$AAU?$AAR?$AAS?$AA_?$AAY?$AAE?$AAA?$AAR?$AAL?$AAY?$AA_?$AAC?$AAO?$AAU?$AAN?$AAT?$AA?$AA@| [ DATA ] ; `string'
	EXPORT	|??_C@_1DO@MCIDNNOB@?$AAC?$AAA?$AAL?$AA_?$AAT?$AAA?$AAS?$AAK?$AA_?$AAS?$AAI?$AAN?$AAG?$AAL?$AAE?$AA_?$AAI?$AAN?$AAS?$AAT?$AAA?$AAN?$AAC?$AAE?$AA_?$AAC?$AAO?$AAU?$AAN?$AAT?$AA?$AA@| [ DATA ] ; `string'
	EXPORT	|??_C@_1CA@HCECKEBM@?$AAC?$AAA?$AAL?$AA_?$AAS?$AAY?$AAN?$AAC?$AA_?$AAF?$AAI?$AAL?$AAT?$AAE?$AAR?$AA?$AA@| [ DATA ] ; `string'
	EXPORT	|??_C@_1CI@COGLFKMJ@?$AAC?$AAA?$AAL?$AA_?$AAV?$AAI?$AAE?$AAW?$AA_?$AAM?$AAE?$AAN?$AAU?$AA_?$AAT?$AAO?$AAT?$AAA?$AAL?$AA?$AA@| [ DATA ] ; `string'
	EXPORT	|??_C@_1DA@MAAJKFKP@?$AAC?$AAA?$AAL?$AA_?$AAV?$AAI?$AAE?$AAW?$AA_?$AAM?$AAE?$AAN?$AAU?$AA_?$AAG?$AAO?$AAT?$AAO?$AAT?$AAO?$AAD?$AAA?$AAY?$AA?$AA@| [ DATA ] ; `string'
	EXPORT	|??_C@_1CK@OOHPMJJE@?$AAC?$AAA?$AAL?$AA_?$AAV?$AAI?$AAE?$AAW?$AA_?$AAM?$AAE?$AAN?$AAU?$AA_?$AAD?$AAE?$AAL?$AAE?$AAT?$AAE?$AA?$AA@| [ DATA ] ; `string'
	EXPORT	|??_C@_1CI@IJGHNFGJ@?$AAC?$AAA?$AAL?$AA_?$AAV?$AAI?$AAE?$AAW?$AA_?$AAM?$AAE?$AAN?$AAU?$AA_?$AAR?$AAE?$AAP?$AAL?$AAY?$AA?$AA@| [ DATA ] ; `string'
	EXPORT	|??_C@_1CO@GKJEKOOP@?$AAC?$AAA?$AAL?$AA_?$AAV?$AAI?$AAE?$AAW?$AA_?$AAM?$AAE?$AAN?$AAU?$AA_?$AAR?$AAE?$AAP?$AAL?$AAY?$AAA?$AAL?$AAL?$AA?$AA@| [ DATA ] ; `string'
	EXPORT	|??_C@_1CM@FKIOIJLM@?$AAC?$AAA?$AAL?$AA_?$AAV?$AAI?$AAE?$AAW?$AA_?$AAM?$AAE?$AAN?$AAU?$AA_?$AAF?$AAO?$AAR?$AAW?$AAA?$AAR?$AAD?$AA?$AA@| [ DATA ] ; `string'
	EXPORT	|??_C@_1CO@HKJBLBPD@?$AAC?$AAA?$AAL?$AA_?$AAV?$AAI?$AAE?$AAW?$AA_?$AAM?$AAE?$AAN?$AAU?$AA_?$AAG?$AAO?$AAT?$AAO?$AAD?$AAA?$AAT?$AAE?$AA?$AA@| [ DATA ] ; `string'
	EXPORT	|??_C@_1CM@MNNJKELH@?$AAC?$AAA?$AAL?$AA_?$AAV?$AAI?$AAE?$AAW?$AA_?$AAM?$AAE?$AAN?$AAU?$AA_?$AAO?$AAP?$AAT?$AAI?$AAO?$AAN?$AAS?$AA?$AA@| [ DATA ] ; `string'
	EXPORT	|??_C@_1CE@FIGGIPCP@?$AAC?$AAA?$AAL?$AA_?$AAV?$AAI?$AAE?$AAW?$AA_?$AAM?$AAE?$AAN?$AAU?$AA_?$AAN?$AAE?$AAW?$AA?$AA@| [ DATA ] ; `string'
	EXPORT	|??_C@_1CO@FJJJCLLO@?$AAC?$AAA?$AAL?$AA_?$AAS?$AAU?$AAM?$AAM?$AAA?$AAR?$AAY?$AA_?$AAM?$AAE?$AAN?$AAU?$AA_?$AAT?$AAO?$AAT?$AAA?$AAL?$AA?$AA@| [ DATA ] ; `string'
	EXPORT	|??_C@_1DA@LINAMGEM@?$AAC?$AAA?$AAL?$AA_?$AAS?$AAU?$AAM?$AAM?$AAA?$AAR?$AAY?$AA_?$AAM?$AAE?$AAN?$AAU?$AA_?$AAC?$AAA?$AAN?$AAC?$AAE?$AAL?$AA?$AA@| [ DATA ] ; `string'
	EXPORT	|??_C@_1DA@KJADBAPN@?$AAC?$AAA?$AAL?$AA_?$AAS?$AAU?$AAM?$AAM?$AAA?$AAR?$AAY?$AA_?$AAM?$AAE?$AAN?$AAU?$AA_?$AAD?$AAE?$AAL?$AAE?$AAT?$AAE?$AA?$AA@| [ DATA ] ; `string'
	EXPORT	|??_C@_1CO@POJFKEBO@?$AAC?$AAA?$AAL?$AA_?$AAS?$AAU?$AAM?$AAM?$AAA?$AAR?$AAY?$AA_?$AAM?$AAE?$AAN?$AAU?$AA_?$AAR?$AAE?$AAP?$AAL?$AAY?$AA?$AA@| [ DATA ] ; `string'
	EXPORT	|??_C@_1DE@MFNAPKBA@?$AAC?$AAA?$AAL?$AA_?$AAS?$AAU?$AAM?$AAM?$AAA?$AAR?$AAY?$AA_?$AAM?$AAE?$AAN?$AAU?$AA_?$AAR?$AAE?$AAP?$AAL?$AAY?$AAA?$AAL?$AAL?$AA?$AA@| [ DATA ] ; `string'
	EXPORT	|??_C@_1DC@BBLOHEFO@?$AAC?$AAA?$AAL?$AA_?$AAS?$AAU?$AAM?$AAM?$AAA?$AAR?$AAY?$AA_?$AAM?$AAE?$AAN?$AAU?$AA_?$AAF?$AAO?$AAR?$AAW?$AAA?$AAR?$AAD?$AA?$AA@| [ DATA ] ; `string'
	EXPORT	|??_C@_1CM@IHPDCJAF@?$AAC?$AAA?$AAL?$AA_?$AAS?$AAU?$AAM?$AAM?$AAA?$AAR?$AAY?$AA_?$AAM?$AAE?$AAN?$AAU?$AA_?$AAB?$AAE?$AAA?$AAM?$AA?$AA@| [ DATA ] ; `string'
	EXPORT	|??_C@_1CM@GIMHKIJK@?$AAC?$AAA?$AAL?$AA_?$AAS?$AAU?$AAM?$AAM?$AAA?$AAR?$AAY?$AA_?$AAM?$AAE?$AAN?$AAU?$AA_?$AAE?$AAD?$AAI?$AAT?$AA?$AA@| [ DATA ] ; `string'
	EXPORT	|??_C@_1DG@NIIELIMI@?$AAD?$AAA?$AAT?$AAA?$AAI?$AAD?$AA_?$AAC?$AAA?$AAL?$AA_?$AAP?$AAA?$AAI?$AAN?$AAT?$AA_?$AAA?$AAP?$AAP?$AAT?$AA_?$AAL?$AAI?$AAS?$AAT?$AA?$AA@| [ DATA ] ; `string'
	EXPORT	|??_C@_1DK@FHPBGMCN@?$AAC?$AAA?$AAL?$AA_?$AAP?$AAE?$AAR?$AAF?$AA_?$AAM?$AAE?$AAE?$AAT?$AAI?$AAN?$AAG?$AAR?$AAE?$AAQ?$AAU?$AAE?$AAS?$AAT?$AA_?$AAO?$AAP?$AAE?$AAN?$AA?$AA@| [ DATA ] ; `string'
	EXPORT	|??_C@_1DM@NPJFNCMG@?$AAO?$AAf?$AAf?$AAi?$AAc?$AAe?$AAM?$AAo?$AAb?$AAi?$AAl?$AAe?$AA_?$AAW?$AAo?$AAr?$AAd?$AA_?$AAA?$AAp?$AAp?$AA_?$AAV?$AAe?$AAr?$AAs?$AAi?$AAo?$AAn?$AA?$AA@| [ DATA ] ; `string'
	EXPORT	|??_C@_1EG@FDPEMNIM@?$AAO?$AAf?$AAf?$AAi?$AAc?$AAe?$AAM?$AAo?$AAb?$AAi?$AAl?$AAe?$AA_?$AAW?$AAo?$AAr?$AAd?$AA_?$AAF?$AAi?$AAl?$AAe?$AA_?$AAI?$AAn?$AAf?$AAo?$AAr?$AAm?$AAa?$AAt?$AAi@| [ DATA ] ; `string'
	EXPORT	|??_C@_1DI@KCKLLAGM@?$AAO?$AAf?$AAf?$AAi?$AAc?$AAe?$AAM?$AAo?$AAb?$AAi?$AAl?$AAe?$AA_?$AAW?$AAo?$AAr?$AAd?$AA_?$AAF?$AAi?$AAl?$AAe?$AA_?$AAS?$AAi?$AAz?$AAe?$AA?$AA@| [ DATA ] ; `string'
	EXPORT	|??_C@_1EC@MNCDJDNO@?$AAO?$AAf?$AAf?$AAi?$AAc?$AAe?$AAM?$AAo?$AAb?$AAi?$AAl?$AAe?$AA_?$AAW?$AAo?$AAr?$AAd?$AA_?$AAP?$AAa?$AAg?$AAe?$AA_?$AAL?$AAo?$AAa?$AAd?$AA_?$AAT?$AAi?$AAm?$AAe@| [ DATA ] ; `string'
	EXPORT	|??_C@_1EC@JOFMMNEA@?$AAO?$AAf?$AAf?$AAi?$AAc?$AAe?$AAM?$AAo?$AAb?$AAi?$AAl?$AAe?$AA_?$AAW?$AAo?$AAr?$AAd?$AA_?$AAF?$AAi?$AAl?$AAe?$AA_?$AAL?$AAo?$AAa?$AAd?$AA_?$AAT?$AAi?$AAm?$AAe@| [ DATA ] ; `string'
	EXPORT	|??_C@_1DI@JACNMILC@?$AAO?$AAf?$AAf?$AAi?$AAc?$AAe?$AAM?$AAo?$AAb?$AAi?$AAl?$AAe?$AA_?$AAW?$AAo?$AAr?$AAd?$AA_?$AAS?$AAa?$AAv?$AAe?$AA_?$AAT?$AAi?$AAm?$AAe?$AA?$AA@| [ DATA ] ; `string'
	EXPORT	|??_C@_1EG@DKJLFFOL@?$AAO?$AAf?$AAf?$AAi?$AAc?$AAe?$AAM?$AAo?$AAb?$AAi?$AAl?$AAe?$AA_?$AAW?$AAo?$AAr?$AAd?$AA_?$AAC?$AAa?$AAn?$AAc?$AAe?$AAl?$AA_?$AAL?$AAo?$AAa?$AAd?$AA_?$AAT?$AAi@| [ DATA ] ; `string'
	EXPORT	|??_C@_1DK@MOGDPBPJ@?$AAO?$AAf?$AAf?$AAi?$AAc?$AAe?$AAM?$AAo?$AAb?$AAi?$AAl?$AAe?$AA_?$AAW?$AAo?$AAr?$AAd?$AA_?$AAC?$AAl?$AAo?$AAs?$AAe?$AA_?$AAT?$AAi?$AAm?$AAe?$AA?$AA@| [ DATA ] ; `string'
	EXPORT	|??_C@_1DI@OEMFMEAM@?$AAO?$AAf?$AAf?$AAi?$AAc?$AAe?$AAM?$AAo?$AAb?$AAi?$AAl?$AAe?$AA_?$AAW?$AAo?$AAr?$AAd?$AA_?$AAV?$AAi?$AAe?$AAw?$AA_?$AAT?$AAi?$AAm?$AAe?$AA?$AA@| [ DATA ] ; `string'
	EXPORT	|??_C@_1DI@IDECBLBL@?$AAO?$AAf?$AAf?$AAi?$AAc?$AAe?$AAM?$AAo?$AAb?$AAi?$AAl?$AAe?$AA_?$AAW?$AAo?$AAr?$AAd?$AA_?$AAE?$AAd?$AAi?$AAt?$AA_?$AAT?$AAi?$AAm?$AAe?$AA?$AA@| [ DATA ] ; `string'
	EXPORT	|??_C@_1CM@FABOALCI@?$AAM?$AAS?$AAG?$AA_?$AAS?$AAM?$AAS?$AA_?$AAR?$AAE?$AAC?$AAE?$AAI?$AAV?$AAE?$AAD?$AA_?$AAS?$AAE?$AAN?$AAT?$AA?$AA@| [ DATA ] ; `string'
	EXPORT	|??_C@_1EI@OFGEEACA@?$AAM?$AAS?$AAG?$AA_?$AAS?$AAM?$AAS?$AA_?$AAR?$AAE?$AAC?$AAE?$AAI?$AAV?$AAE?$AAD?$AA_?$AAS?$AAE?$AAN?$AAT?$AA_?$AAM?$AAA?$AAP?$AAP?$AAI?$AAN?$AAG?$AA_?$AAD?$AAU@| [ DATA ] ; `string'
	EXPORT	|??_C@_1BM@ILELMCFO@?$AAM?$AAS?$AAG?$AA_?$AAI?$AAR?$AAM?$AA_?$AAU?$AAS?$AAA?$AAG?$AAE?$AA?$AA@| [ DATA ] ; `string'
	EXPORT	|??_C@_1EE@HLLPLDOK@?$AAM?$AAS?$AAG?$AA_?$AAE?$AAX?$AAC?$AAH?$AAA?$AAN?$AAG?$AAE?$AA_?$AAM?$AAE?$AAS?$AAS?$AAA?$AAG?$AAE?$AAS?$AA_?$AAO?$AAP?$AAE?$AAN?$AAE?$AAD?$AA_?$AAS?$AAE?$AAN@| [ DATA ] ; `string'
	EXPORT	|??_C@_1DK@NMKLFPFE@?$AAM?$AAS?$AAG?$AA_?$AAS?$AAE?$AAA?$AAR?$AAC?$AAH?$AA_?$AAS?$AAM?$AAA?$AAR?$AAT?$AAF?$AAI?$AAL?$AAT?$AAE?$AAR?$AA_?$AAU?$AAS?$AAA?$AAG?$AAE?$AA?$AA@| [ DATA ] ; `string'
	EXPORT	|??_C@_1DI@MECLOJDJ@?$AAM?$AAS?$AAG?$AA_?$AAI?$AAR?$AAM?$AA_?$AAU?$AAS?$AAA?$AAG?$AAE?$AA_?$AAM?$AAA?$AAP?$AAP?$AAI?$AAN?$AAG?$AA_?$AAD?$AAU?$AAM?$AAM?$AAY?$AA?$AA@| [ DATA ] ; `string'
	EXPORT	|??_C@_1EE@JJHOLKLD@?$AAM?$AAS?$AAG?$AA_?$AAS?$AAE?$AAA?$AAR?$AAC?$AAH?$AA_?$AAE?$AAX?$AAC?$AAH?$AAA?$AAN?$AAG?$AAE?$AA_?$AAM?$AAA?$AAP?$AAP?$AAI?$AAN?$AAG?$AA_?$AAD?$AAU?$AAM?$AAM@| [ DATA ] ; `string'
	EXPORT	|??_C@_1DM@BJHGCPGD@?$AAM?$AAS?$AAG?$AA_?$AAS?$AAM?$AAA?$AAR?$AAT?$AAF?$AAI?$AAL?$AAT?$AAE?$AAR?$AA_?$AAM?$AAA?$AAP?$AAP?$AAI?$AAN?$AAG?$AA_?$AAD?$AAU?$AAM?$AAM?$AAY?$AA?$AA@| [ DATA ] ; `string'
	EXPORT	|??_C@_1DG@GNDFPHAJ@?$AAC?$AAO?$AAN?$AAT?$AAA?$AAC?$AAT?$AAS?$AA_?$AAT?$AAO?$AAT?$AAA?$AAL?$AAO?$AAF?$AA_?$AAS?$AAO?$AAU?$AAR?$AAC?$AAE?$AAI?$AAD?$AAS?$AA?$AA@| [ DATA ] ; `string'
	EXPORT	|??_C@_1EG@MFOMLDCM@?$AAC?$AAO?$AAN?$AAT?$AAA?$AAC?$AAT?$AAS?$AA_?$AAT?$AAO?$AAT?$AAA?$AAL?$AA_?$AAR?$AAE?$AAG?$AAI?$AAS?$AAT?$AAE?$AAR?$AAE?$AAD?$AA_?$AAS?$AAO?$AAU?$AAR?$AAC?$AAE@| [ DATA ] ; `string'
	EXPORT	|??_C@_1EK@PBNIPCMD@?$AAC?$AAO?$AAN?$AAT?$AAA?$AAC?$AAT?$AAS?$AA_?$AAT?$AAO?$AAT?$AAA?$AAL?$AA_?$AAU?$AAN?$AAR?$AAE?$AAG?$AAI?$AAS?$AAT?$AAE?$AAR?$AAE?$AAD?$AA_?$AAS?$AAO?$AAU?$AAR@| [ DATA ] ; `string'
	EXPORT	|??_C@_1CK@OCIFHOAB@?$AAC?$AAO?$AAN?$AAT?$AAA?$AAC?$AAT?$AAS?$AA_?$AAA?$AAC?$AAC?$AAO?$AAU?$AAN?$AAT?$AA_?$AAM?$AAM?$AAS?$AA?$AA@| [ DATA ] ; `string'
	EXPORT	|??_C@_1DE@EKHGIIIA@?$AAC?$AAO?$AAN?$AAT?$AAA?$AAC?$AAT?$AAS?$AA_?$AAB?$AAD?$AAA?$AAY?$AA_?$AAA?$AAN?$AAN?$AAI?$AAV?$AAE?$AAR?$AAS?$AAA?$AAR?$AAY?$AA?$AA@| [ DATA ] ; `string'
	EXPORT	|??_C@_1DA@PMJKBNJN@?$AAC?$AAO?$AAN?$AAT?$AAA?$AAC?$AAT?$AAS?$AA_?$AAM?$AAN?$AAG?$AAR?$AA_?$AAA?$AAS?$AAS?$AAT?$AA_?$AAN?$AAA?$AAM?$AAE?$AA?$AA@| [ DATA ] ; `string'
	EXPORT	|??_C@_1DG@KMOGBIFB@?$AAC?$AAO?$AAN?$AAT?$AAA?$AAC?$AAT?$AAS?$AA_?$AAA?$AAS?$AAS?$AAT?$AA_?$AAP?$AAA?$AAG?$AAE?$AAR?$AA_?$AAN?$AAU?$AAM?$AAB?$AAE?$AAR?$AA?$AA@| [ DATA ] ; `string'
	EXPORT	|??_C@_1DI@IDLMJJN@?$AAC?$AAO?$AAN?$AAT?$AAA?$AAC?$AAT?$AAS?$AA_?$AAC?$AAO?$AAM?$AAP?$AAA?$AAN?$AAY?$AA_?$AAC?$AAA?$AAR?$AA_?$AAN?$AAU?$AAM?$AAB?$AAE?$AAR?$AA?$AA@| [ DATA ] ; `string'
	EXPORT	|??_C@_1DC@MNIJDPOD@?$AAC?$AAO?$AAN?$AAT?$AAA?$AAC?$AAT?$AAS?$AA_?$AAC?$AAH?$AAI?$AAL?$AAD?$AAR?$AAE?$AAN?$AA_?$AAS?$AAP?$AAO?$AAU?$AAS?$AAE?$AA?$AA@| [ DATA ] ; `string'
	EXPORT	|??_C@_1CC@KJMOCFKC@?$AAC?$AAO?$AAN?$AAT?$AAA?$AAC?$AAT?$AAS?$AA_?$AAC?$AAO?$AAM?$AAP?$AAA?$AAN?$AAY?$AA?$AA@| [ DATA ] ; `string'
	EXPORT	|??_C@_1DE@KMLHGALA@?$AAC?$AAO?$AAN?$AAT?$AAA?$AAC?$AAT?$AAS?$AA_?$AAP?$AAI?$AAC?$AAT?$AAU?$AAR?$AAE?$AA_?$AAR?$AAI?$AAN?$AAG?$AAT?$AAO?$AAN?$AAE?$AA?$AA@| [ DATA ] ; `string'
	EXPORT	|??_C@_1CM@PLHMLFKL@?$AAC?$AAO?$AAN?$AAT?$AAA?$AAC?$AAT?$AAS?$AA_?$AAI?$AAD?$AA_?$AAC?$AAU?$AAS?$AAT?$AA_?$AAG?$AAO?$AAV?$AAT?$AA?$AA@| [ DATA ] ; `string'
	EXPORT	|??_C@_1CI@EPKPNMPM@?$AAC?$AAO?$AAN?$AAT?$AAA?$AAC?$AAT?$AAS?$AA_?$AAD?$AAE?$AAP?$AAT?$AA_?$AAT?$AAI?$AAT?$AAL?$AAE?$AA?$AA@| [ DATA ] ; `string'
	EXPORT	|??_C@_1CI@ICGKCIPH@?$AAC?$AAO?$AAN?$AAT?$AAA?$AAC?$AAT?$AAS?$AA_?$AAE?$AAM?$AAA?$AAI?$AAL?$AA_?$AAI?$AAM?$AA_?$AA1?$AA?$AA@| [ DATA ] ; `string'
	EXPORT	|??_C@_1CI@JANPIHBJ@?$AAC?$AAO?$AAN?$AAT?$AAA?$AAC?$AAT?$AAS?$AA_?$AAE?$AAM?$AAA?$AAI?$AAL?$AA_?$AAI?$AAM?$AA_?$AA2?$AA?$AA@| [ DATA ] ; `string'
	EXPORT	|??_C@_1CI@CIGDOAHM@?$AAC?$AAO?$AAN?$AAT?$AAA?$AAC?$AAT?$AAS?$AA_?$AAE?$AAM?$AAA?$AAI?$AAL?$AA_?$AAI?$AAM?$AA_?$AA3?$AA?$AA@| [ DATA ] ; `string'
	EXPORT	|??_C@_1CA@PFJLJPGF@?$AAC?$AAO?$AAN?$AAT?$AAA?$AAC?$AAT?$AAS?$AA_?$AAF?$AAI?$AAL?$AAE?$AAA?$AAS?$AA?$AA@| [ DATA ] ; `string'
	EXPORT	|??_C@_1CG@DGCEKFCD@?$AAC?$AAO?$AAN?$AAT?$AAA?$AAC?$AAT?$AAS?$AA_?$AAF?$AAI?$AAR?$AAS?$AAT?$AAN?$AAA?$AAM?$AAE?$AA?$AA@| [ DATA ] ; `string'
	EXPORT	|??_C@_1CE@LDEBACBB@?$AAC?$AAO?$AAN?$AAT?$AAA?$AAC?$AAT?$AAS?$AA_?$AAL?$AAA?$AAS?$AAT?$AAN?$AAA?$AAM?$AAE?$AA?$AA@| [ DATA ] ; `string'
	EXPORT	|??_C@_1CG@EFHMODDA@?$AAC?$AAO?$AAN?$AAT?$AAA?$AAC?$AAT?$AAS?$AA_?$AAS?$AAM?$AAA?$AAR?$AAT?$AAP?$AAR?$AAO?$AAP?$AA?$AA@| [ DATA ] ; `string'
	EXPORT	|??_C@_1CM@EBKEHNBD@?$AAC?$AAO?$AAN?$AAT?$AAA?$AAC?$AAT?$AAS?$AA_?$AAT?$AAI?$AAT?$AAL?$AAE?$AA_?$AAS?$AAU?$AAF?$AAF?$AAI?$AAX?$AA?$AA@| [ DATA ] ; `string'
	EXPORT	|??_C@_1CO@GFBBAAPJ@?$AAC?$AAO?$AAN?$AAT?$AAA?$AAC?$AAT?$AAS?$AA_?$AAO?$AAT?$AAH?$AAE?$AAR?$AA_?$AAZ?$AAI?$AAP?$AA_?$AAW?$AAW?$AAW?$AA?$AA@| [ DATA ] ; `string'
	EXPORT	|??_C@_1DA@LACBDLEN@?$AAC?$AAO?$AAN?$AAT?$AAA?$AAC?$AAT?$AAS?$AA_?$AAC?$AAI?$AAT?$AAY?$AA_?$AAH?$AAO?$AAM?$AAE?$AA_?$AAW?$AAO?$AAR?$AAK?$AA?$AA@| [ DATA ] ; `string'
	EXPORT	|??_C@_1DE@PPKKPFAE@?$AAC?$AAO?$AAN?$AAT?$AAA?$AAC?$AAT?$AAS?$AA_?$AAS?$AAT?$AAR?$AAE?$AAE?$AAT?$AA_?$AAH?$AAO?$AAM?$AAE?$AA_?$AAW?$AAO?$AAR?$AAK?$AA?$AA@| [ DATA ] ; `string'
	EXPORT	|??_C@_1DG@PMMNGOBH@?$AAC?$AAO?$AAN?$AAT?$AAA?$AAC?$AAT?$AAS?$AA_?$AAC?$AAO?$AAU?$AAN?$AAT?$AAR?$AAY?$AA_?$AAH?$AAO?$AAM?$AAE?$AA_?$AAW?$AAO?$AAR?$AAK?$AA?$AA@| [ DATA ] ; `string'
	EXPORT	|??_C@_1DK@NIPIPDFK@?$AAC?$AAO?$AAN?$AAT?$AAA?$AAC?$AAT?$AAS?$AA_?$AAM?$AAO?$AAB?$AAI?$AAL?$AAE?$AA_?$AAR?$AAA?$AAD?$AAI?$AAO?$AA_?$AAN?$AAU?$AAM?$AAB?$AAE?$AAR?$AA?$AA@| [ DATA ] ; `string'
	EXPORT	|??_C@_1DC@CNMHGFPJ@?$AAC?$AAO?$AAN?$AAT?$AAA?$AAC?$AAT?$AAS?$AA_?$AAM?$AAI?$AAD?$AAD?$AAL?$AAE?$AA_?$AAN?$AAI?$AAC?$AAK?$AAN?$AAA?$AAM?$AAE?$AA?$AA@| [ DATA ] ; `string'
	EXPORT	|??_C@_1DC@JFECFPID@?$AAC?$AAO?$AAN?$AAT?$AAA?$AAC?$AAT?$AAS?$AA_?$AAN?$AAO?$AAT?$AAE?$AAS?$AA_?$AAO?$AAF?$AAF?$AAI?$AAC?$AAE?$AAL?$AAO?$AAC?$AA?$AA@| [ DATA ] ; `string'
	EXPORT	|??_C@_1DE@HJHDKNFN@?$AAC?$AAO?$AAN?$AAT?$AAA?$AAC?$AAT?$AAS?$AA_?$AAH?$AAO?$AAM?$AAE?$AA_?$AAW?$AAO?$AAR?$AAK?$AA_?$AAN?$AAU?$AAM?$AAB?$AAE?$AAR?$AA?$AA@| [ DATA ] ; `string'
	EXPORT	|??_C@_1DG@POCOCMBF@?$AAC?$AAO?$AAN?$AAT?$AAA?$AAC?$AAT?$AAS?$AA_?$AAO?$AAT?$AAH?$AAE?$AAR?$AA_?$AAS?$AAT?$AAR?$AAE?$AAE?$AAT?$AA_?$AAC?$AAI?$AAT?$AAY?$AA?$AA@| [ DATA ] ; `string'
	EXPORT	|??_C@_1CK@JMMNJJCD@?$AAC?$AAO?$AAN?$AAT?$AAA?$AAC?$AAT?$AAS?$AA_?$AAL?$AAV?$AA_?$AAM?$AAE?$AAN?$AAU?$AA_?$AAN?$AAE?$AAW?$AA?$AA@| [ DATA ] ; `string'
	EXPORT	|??_C@_1DE@LEPNMAAF@?$AAC?$AAO?$AAN?$AAT?$AAA?$AAC?$AAT?$AAS?$AA_?$AAL?$AAV?$AA_?$AAM?$AAE?$AAN?$AAU?$AA_?$AAE?$AAD?$AAI?$AAT?$AA_?$AAG?$AAA?$AAL?$AA?$AA@| [ DATA ] ; `string'
	EXPORT	|??_C@_1CO@GDBLCIIL@?$AAC?$AAO?$AAN?$AAT?$AAA?$AAC?$AAT?$AAS?$AA_?$AAF?$AAA?$AAX?$AA_?$AAH?$AAO?$AAM?$AAE?$AA_?$AAW?$AAO?$AAR?$AAK?$AA?$AA@| [ DATA ] ; `string'
	EXPORT	|??_C@_1DC@MOBDNOJB@?$AAC?$AAO?$AAN?$AAT?$AAA?$AAC?$AAT?$AAS?$AA_?$AAS?$AAT?$AAA?$AAT?$AAE?$AA_?$AAH?$AAO?$AAM?$AAE?$AA_?$AAW?$AAO?$AAR?$AAK?$AA?$AA@| [ DATA ] ; `string'
	EXPORT	|??_C@_1DG@PNFALFBF@?$AAC?$AAO?$AAN?$AAT?$AAA?$AAC?$AAT?$AAS?$AA_?$AAH?$AAO?$AAM?$AAE?$AA_?$AAW?$AAO?$AAR?$AAK?$AA_?$AAN?$AAU?$AAM?$AAB?$AAE?$AAR?$AA2?$AA?$AA@| [ DATA ] ; `string'
	EXPORT	|??_C@_1CO@PEBIPEMF@?$AAC?$AAO?$AAN?$AAT?$AAA?$AAC?$AAT?$AAS?$AA_?$AAZ?$AAI?$AAP?$AA_?$AAH?$AAO?$AAM?$AAE?$AA_?$AAW?$AAO?$AAR?$AAK?$AA?$AA@| [ DATA ] ; `string'
	EXPORT	|??_C@_1DK@FNMHHEMG@?$AAC?$AAO?$AAN?$AAT?$AAA?$AAC?$AAT?$AAS?$AA_?$AAO?$AAT?$AAH?$AAE?$AAR?$AA_?$AAS?$AAT?$AAA?$AAT?$AAE?$AA_?$AAC?$AAO?$AAU?$AAN?$AAT?$AAR?$AAY?$AA?$AA@| [ DATA ] ; `string'
	EXPORT	|??_C@_1EI@PHNCCGFH@?$AAC?$AAO?$AAN?$AAT?$AAA?$AAC?$AAT?$AAS?$AA_?$AAL?$AAV?$AA_?$AAM?$AAE?$AAN?$AAU?$AA_?$AAV?$AAI?$AAE?$AAW?$AAB?$AAY?$AA_?$AAN?$AAA?$AAM?$AAE?$AAC?$AAO?$AAM?$AAP@| [ DATA ] ; `string'
	EXPORT	|??_C@_1EE@JAMPAOOG@?$AAC?$AAO?$AAN?$AAT?$AAA?$AAC?$AAT?$AAS?$AA_?$AAL?$AAV?$AA_?$AAM?$AAE?$AAN?$AAU?$AA_?$AAF?$AAI?$AAL?$AAT?$AAE?$AAR?$AA_?$AAA?$AAN?$AAY?$AAR?$AAE?$AAC?$AAE?$AAN@| [ DATA ] ; `string'
	EXPORT	|??_C@_1EG@JCCPNPLE@?$AAC?$AAO?$AAN?$AAT?$AAA?$AAC?$AAT?$AAS?$AA_?$AAL?$AAV?$AA_?$AAM?$AAE?$AAN?$AAU?$AA_?$AAM?$AAE?$AAN?$AAU?$AA_?$AAS?$AAE?$AAN?$AAD?$AA_?$AAB?$AAE?$AAA?$AAM?$AAS@| [ DATA ] ; `string'
	EXPORT	|??_C@_1DI@IGGHCFAK@?$AAC?$AAO?$AAN?$AAT?$AAA?$AAC?$AAT?$AAS?$AA_?$AAL?$AAV?$AA_?$AAM?$AAE?$AAN?$AAU?$AA_?$AAD?$AAE?$AAL?$AAE?$AAT?$AAE?$AAC?$AAO?$AAP?$AAY?$AA?$AA@| [ DATA ] ; `string'
	EXPORT	|??_C@_1DK@FIMILAMD@?$AAC?$AAO?$AAN?$AAT?$AAA?$AAC?$AAT?$AAS?$AA_?$AAL?$AAV?$AA_?$AAM?$AAE?$AAN?$AAU?$AA_?$AAT?$AAO?$AAT?$AAA?$AAL?$AAC?$AAL?$AAI?$AAC?$AAK?$AAS?$AA?$AA@| [ DATA ] ; `string'
	EXPORT	|??_C@_1EK@PEJFEIJK@?$AAC?$AAO?$AAN?$AAT?$AAA?$AAC?$AAT?$AAS?$AA_?$AAL?$AAV?$AA_?$AAC?$AAO?$AAN?$AAT?$AAE?$AAX?$AAT?$AA_?$AAS?$AAM?$AAS?$AA_?$AAA?$AAD?$AAD?$AAS?$AAP?$AAE?$AAE?$AAD@| [ DATA ] ; `string'
	EXPORT	|??_C@_1EC@MMCLGIBP@?$AAC?$AAO?$AAN?$AAT?$AAA?$AAC?$AAT?$AAS?$AA_?$AAL?$AAV?$AA_?$AAC?$AAO?$AAN?$AAT?$AAE?$AAX?$AAT?$AA_?$AAS?$AAE?$AAN?$AAD?$AA_?$AAB?$AAE?$AAA?$AAM?$AAS?$AAM?$AAS@| [ DATA ] ; `string'
	EXPORT	|??_C@_1DO@DHOFJPA@?$AAC?$AAO?$AAN?$AAT?$AAA?$AAC?$AAT?$AAS?$AA_?$AAL?$AAV?$AA_?$AAC?$AAO?$AAN?$AAT?$AAE?$AAX?$AAT?$AA_?$AAD?$AAE?$AAL?$AAE?$AAT?$AAE?$AAC?$AAO?$AAP?$AAY?$AA?$AA@| [ DATA ] ; `string'
	EXPORT	|??_C@_1EC@FHAPEDEA@?$AAC?$AAO?$AAN?$AAT?$AAA?$AAC?$AAT?$AAS?$AA_?$AAS?$AAU?$AAM?$AAC?$AAA?$AAR?$AAD?$AA_?$AAM?$AAE?$AAN?$AAU?$AAA?$AAC?$AAT?$AAI?$AAO?$AAN?$AA_?$AAE?$AAD?$AAI?$AAT@| [ DATA ] ; `string'
	EXPORT	|??_C@_1EO@COFGCAAF@?$AAC?$AAO?$AAN?$AAT?$AAA?$AAC?$AAT?$AAS?$AA_?$AAS?$AAU?$AAM?$AAC?$AAA?$AAR?$AAD?$AA_?$AAM?$AAE?$AAN?$AAU?$AA_?$AAD?$AAE?$AAL?$AAE?$AAT?$AAE?$AA_?$AAS?$AAA?$AAV@| [ DATA ] ; `string'
	EXPORT	|??_C@_1EA@FHIHPOFE@?$AAC?$AAO?$AAN?$AAT?$AAA?$AAC?$AAT?$AAS?$AA_?$AAS?$AAU?$AAM?$AAC?$AAA?$AAR?$AAD?$AA_?$AAM?$AAE?$AAN?$AAU?$AAA?$AAC?$AAT?$AAI?$AAO?$AAN?$AA_?$AAS?$AAM?$AAS?$AA?$AA@| [ DATA ] ; `string'
	EXPORT	|??_C@_1FC@KBKPNKKF@?$AAC?$AAO?$AAN?$AAT?$AAA?$AAC?$AAT?$AAS?$AA_?$AAS?$AAU?$AAM?$AAC?$AAA?$AAR?$AAD?$AA_?$AAM?$AAE?$AAN?$AAU?$AAA?$AAC?$AAT?$AAI?$AAO?$AAN?$AA_?$AAV?$AAI?$AAE?$AAW@| [ DATA ] ; `string'
	EXPORT	|??_C@_1FA@OKJFPMMI@?$AAC?$AAO?$AAN?$AAT?$AAA?$AAC?$AAT?$AAS?$AA_?$AAS?$AAU?$AAM?$AAC?$AAA?$AAR?$AAD?$AA_?$AAM?$AAE?$AAN?$AAU?$AA_?$AAA?$AAD?$AAD?$AAE?$AAD?$AAI?$AAT?$AA_?$AAS?$AAP@| [ DATA ] ; `string'
	EXPORT	|??_C@_1EE@ENLFJIIA@?$AAC?$AAO?$AAN?$AAT?$AAA?$AAC?$AAT?$AAS?$AA_?$AAS?$AAU?$AAM?$AAC?$AAA?$AAR?$AAD?$AA_?$AAM?$AAE?$AAN?$AAU?$AA_?$AAA?$AAD?$AAD?$AAV?$AAO?$AAI?$AAC?$AAE?$AAT?$AAA@| [ DATA ] ; `string'
	EXPORT	|??_C@_1EG@FEMLJBKD@?$AAC?$AAO?$AAN?$AAT?$AAA?$AAC?$AAT?$AAS?$AA_?$AAS?$AAU?$AAM?$AAC?$AAA?$AAR?$AAD?$AA_?$AAM?$AAE?$AAN?$AAU?$AA_?$AAS?$AAE?$AAN?$AAD?$AA_?$AAB?$AAE?$AAA?$AAM?$AAS@| [ DATA ] ; `string'
	EXPORT	|??_C@_1DE@IBAMDACJ@?$AAC?$AAO?$AAN?$AAT?$AAA?$AAC?$AAT?$AAS?$AA_?$AAG?$AAA?$AAL?$AA_?$AAL?$AAV?$AA_?$AAN?$AAE?$AAW?$AAS?$AAE?$AAA?$AAR?$AAC?$AAH?$AA?$AA@| [ DATA ] ; `string'
	EXPORT	|??_C@_1DO@NBNEBLEL@?$AAC?$AAO?$AAN?$AAT?$AAA?$AAC?$AAT?$AAS?$AA_?$AAG?$AAA?$AAL?$AA_?$AAL?$AAV?$AA_?$AAS?$AAA?$AAV?$AAE?$AAT?$AAO?$AAC?$AAO?$AAN?$AAT?$AAA?$AAC?$AAT?$AAS?$AA?$AA@| [ DATA ] ; `string'
	EXPORT	|??_C@_1DG@FCNDALNK@?$AAC?$AAO?$AAN?$AAT?$AAA?$AAC?$AAT?$AAS?$AA_?$AAG?$AAA?$AAL?$AAC?$AAA?$AAR?$AAD?$AA_?$AAM?$AAE?$AAN?$AAU?$AA_?$AAS?$AAA?$AAV?$AAE?$AA?$AA@| [ DATA ] ; `string'
	EXPORT	|??_C@_1EA@CEAENPOI@?$AAC?$AAO?$AAN?$AAT?$AAA?$AAC?$AAT?$AAS?$AA_?$AAG?$AAA?$AAL?$AAC?$AAA?$AAR?$AAD?$AA_?$AAM?$AAE?$AAN?$AAU?$AAA?$AAC?$AAT?$AAI?$AAO?$AAN?$AA_?$AAS?$AAM?$AAS?$AA?$AA@| [ DATA ] ; `string'
	EXPORT	|??_C@_1EE@OOEEKANG@?$AAC?$AAO?$AAN?$AAT?$AAA?$AAC?$AAT?$AAS?$AA_?$AAS?$AAU?$AAM?$AAC?$AAA?$AAR?$AAD?$AA_?$AAM?$AAE?$AAN?$AAU?$AA_?$AAT?$AAO?$AAT?$AAA?$AAL?$AAC?$AAL?$AAI?$AAC?$AAK@| [ DATA ] ; `string'
	EXPORT	|??_C@_1EC@KKKLFLGD@?$AAC?$AAO?$AAN?$AAT?$AAA?$AAC?$AAT?$AAS?$AA_?$AAS?$AAI?$AAM?$AAC?$AAA?$AAR?$AAD?$AA_?$AAM?$AAE?$AAN?$AAU?$AAA?$AAC?$AAT?$AAI?$AAO?$AAN?$AA_?$AAE?$AAD?$AAI?$AAT@| [ DATA ] ; `string'
	EXPORT	|??_C@_1FI@PLBFPFDA@?$AAC?$AAO?$AAN?$AAT?$AAA?$AAC?$AAT?$AAS?$AA_?$AAS?$AAI?$AAM?$AAC?$AAA?$AAR?$AAD?$AA_?$AAM?$AAE?$AAN?$AAU?$AA_?$AAD?$AAE?$AAL?$AAE?$AAT?$AAE?$AA_?$AAS?$AAA?$AAV@| [ DATA ] ; `string'
	EXPORT	|??_C@_1EA@LKAHFGGO@?$AAC?$AAO?$AAN?$AAT?$AAA?$AAC?$AAT?$AAS?$AA_?$AAS?$AAI?$AAM?$AAC?$AAA?$AAR?$AAD?$AA_?$AAM?$AAE?$AAN?$AAU?$AAA?$AAC?$AAT?$AAI?$AAO?$AAN?$AA_?$AAS?$AAM?$AAS?$AA?$AA@| [ DATA ] ; `string'
	EXPORT	|??_C@_1EG@PNBOJEPH@?$AAC?$AAO?$AAN?$AAT?$AAA?$AAC?$AAT?$AAS?$AA_?$AAS?$AAI?$AAM?$AAC?$AAA?$AAR?$AAD?$AA_?$AAM?$AAE?$AAN?$AAU?$AA_?$AAS?$AAE?$AAN?$AAD?$AA_?$AAB?$AAE?$AAA?$AAM?$AAS@| [ DATA ] ; `string'
	EXPORT	|??_C@_1FA@IMDDHBHA@?$AAC?$AAO?$AAN?$AAT?$AAA?$AAC?$AAT?$AAS?$AA_?$AAS?$AAI?$AAM?$AAC?$AAA?$AAR?$AAD?$AA_?$AAM?$AAE?$AAN?$AAU?$AA_?$AAA?$AAD?$AAD?$AAE?$AAD?$AAI?$AAT?$AA_?$AAS?$AAP@| [ DATA ] ; `string'
	EXPORT	|??_C@_1FC@BOLKGHCO@?$AAC?$AAO?$AAN?$AAT?$AAA?$AAC?$AAT?$AAS?$AA_?$AAS?$AAI?$AAM?$AAC?$AAA?$AAR?$AAD?$AA_?$AAM?$AAE?$AAN?$AAU?$AAA?$AAC?$AAT?$AAI?$AAO?$AAN?$AA_?$AAV?$AAI?$AAE?$AAW@| [ DATA ] ; `string'
	EXPORT	|??_C@_1DO@DIFJJFJM@?$AAO?$AAf?$AAf?$AAi?$AAc?$AAe?$AAM?$AAo?$AAb?$AAi?$AAl?$AAe?$AA_?$AAE?$AAx?$AAc?$AAe?$AAl?$AA_?$AAA?$AAp?$AAp?$AA_?$AAV?$AAe?$AAr?$AAs?$AAi?$AAo?$AAn?$AA?$AA@| [ DATA ] ; `string'
	EXPORT	|??_C@_1EI@KMDPHPCC@?$AAO?$AAf?$AAf?$AAi?$AAc?$AAe?$AAM?$AAo?$AAb?$AAi?$AAl?$AAe?$AA_?$AAE?$AAx?$AAc?$AAe?$AAl?$AA_?$AAF?$AAi?$AAl?$AAe?$AA_?$AAI?$AAn?$AAf?$AAo?$AAr?$AAm?$AAa?$AAt@| [ DATA ] ; `string'
	EXPORT	|??_C@_1DK@JBCHGGAF@?$AAO?$AAf?$AAf?$AAi?$AAc?$AAe?$AAM?$AAo?$AAb?$AAi?$AAl?$AAe?$AA_?$AAE?$AAx?$AAc?$AAe?$AAl?$AA_?$AAF?$AAi?$AAl?$AAe?$AA_?$AAS?$AAi?$AAz?$AAe?$AA?$AA@| [ DATA ] ; `string'
	EXPORT	|??_C@_1EE@EJKMPFBD@?$AAO?$AAf?$AAf?$AAi?$AAc?$AAe?$AAM?$AAo?$AAb?$AAi?$AAl?$AAe?$AA_?$AAE?$AAx?$AAc?$AAe?$AAl?$AA_?$AAF?$AAi?$AAl?$AAe?$AA_?$AAL?$AAo?$AAa?$AAd?$AA_?$AAT?$AAi?$AAm@| [ DATA ] ; `string'
	EXPORT	|??_C@_1DK@KDKBBONL@?$AAO?$AAf?$AAf?$AAi?$AAc?$AAe?$AAM?$AAo?$AAb?$AAi?$AAl?$AAe?$AA_?$AAE?$AAx?$AAc?$AAe?$AAl?$AA_?$AAS?$AAa?$AAv?$AAe?$AA_?$AAT?$AAi?$AAm?$AAe?$AA?$AA@| [ DATA ] ; `string'
	EXPORT	|??_C@_1DM@BFOMGFHK@?$AAO?$AAf?$AAf?$AAi?$AAc?$AAe?$AAM?$AAo?$AAb?$AAi?$AAl?$AAe?$AA_?$AAE?$AAx?$AAc?$AAe?$AAl?$AA_?$AAC?$AAl?$AAo?$AAs?$AAe?$AA_?$AAT?$AAi?$AAm?$AAe?$AA?$AA@| [ DATA ] ; `string'
	EXPORT	|??_C@_1EI@MFFAOHEF@?$AAO?$AAf?$AAf?$AAi?$AAc?$AAe?$AAM?$AAo?$AAb?$AAi?$AAl?$AAe?$AA_?$AAE?$AAx?$AAc?$AAe?$AAl?$AA_?$AAC?$AAa?$AAn?$AAc?$AAe?$AAl?$AA_?$AAL?$AAo?$AAa?$AAd?$AA_?$AAT@| [ DATA ] ; `string'
	EXPORT	|??_C@_1EI@BFHEPCJJ@?$AAO?$AAf?$AAf?$AAi?$AAc?$AAe?$AAM?$AAo?$AAb?$AAi?$AAl?$AAe?$AA_?$AAP?$AAo?$AAw?$AAe?$AAr?$AAp?$AAo?$AAi?$AAn?$AAt?$AA_?$AAA?$AAp?$AAp?$AA_?$AAV?$AAe?$AAr?$AAs@| [ DATA ] ; `string'
	EXPORT	|??_C@_1EE@MACAOMJA@?$AAO?$AAf?$AAf?$AAi?$AAc?$AAe?$AAM?$AAo?$AAb?$AAi?$AAl?$AAe?$AA_?$AAP?$AAP?$AAT?$AA_?$AAC?$AAa?$AAn?$AAc?$AAe?$AAl?$AA_?$AAL?$AAo?$AAa?$AAd?$AA_?$AAT?$AAi?$AAm@| [ DATA ] ; `string'
	EXPORT	|??_C@_1EG@PCBIBNEG@?$AAO?$AAf?$AAf?$AAi?$AAc?$AAe?$AAM?$AAo?$AAb?$AAi?$AAl?$AAe?$AA_?$AAP?$AAo?$AAw?$AAe?$AAr?$AAp?$AAo?$AAi?$AAn?$AAt?$AA_?$AAC?$AAl?$AAo?$AAs?$AAe?$AA_?$AAT?$AAi@| [ DATA ] ; `string'
	EXPORT	|??_C@_1FC@LOANHHNA@?$AAO?$AAf?$AAf?$AAi?$AAc?$AAe?$AAM?$AAo?$AAb?$AAi?$AAl?$AAe?$AA_?$AAP?$AAo?$AAw?$AAe?$AAr?$AAp?$AAo?$AAi?$AAn?$AAt?$AA_?$AAF?$AAi?$AAl?$AAe?$AA_?$AAI?$AAn?$AAf@| [ DATA ] ; `string'
	EXPORT	|??_C@_1EO@FALOGNKN@?$AAO?$AAf?$AAf?$AAi?$AAc?$AAe?$AAM?$AAo?$AAb?$AAi?$AAl?$AAe?$AA_?$AAP?$AAo?$AAw?$AAe?$AAr?$AAp?$AAo?$AAi?$AAn?$AAt?$AA_?$AAF?$AAi?$AAl?$AAe?$AA_?$AAL?$AAo?$AAa@| [ DATA ] ; `string'
	EXPORT	|??_C@_1EE@KNAMDGCE@?$AAO?$AAf?$AAf?$AAi?$AAc?$AAe?$AAM?$AAo?$AAb?$AAi?$AAl?$AAe?$AA_?$AAP?$AAo?$AAw?$AAe?$AAr?$AAp?$AAo?$AAi?$AAn?$AAt?$AA_?$AAF?$AAi?$AAl?$AAe?$AA_?$AAS?$AAi?$AAz@| [ DATA ] ; `string'
	EXPORT	|??_C@_1EE@JPIKEOPK@?$AAO?$AAf?$AAf?$AAi?$AAc?$AAe?$AAM?$AAo?$AAb?$AAi?$AAl?$AAe?$AA_?$AAP?$AAo?$AAw?$AAe?$AAr?$AAp?$AAo?$AAi?$AAn?$AAt?$AA_?$AAS?$AAa?$AAv?$AAe?$AA_?$AAT?$AAi?$AAm@| [ DATA ] ; `string'
	EXPORT	|??_C@_1FM@JIOKEJHD@?$AAO?$AAf?$AAf?$AAi?$AAc?$AAe?$AAM?$AAo?$AAb?$AAi?$AAl?$AAe?$AA_?$AAP?$AAo?$AAw?$AAe?$AAr?$AAp?$AAo?$AAi?$AAn?$AAt?$AA_?$AAF?$AAi?$AAr?$AAs?$AAt?$AA_?$AAS?$AAl@| [ DATA ] ; `string'
	EXPORT	|??_C@_1CC@HJANKMFE@?$AAT?$AAA?$AAS?$AAK?$AAS?$AA_?$AAT?$AAI?$AAM?$AAE?$AA_?$AAT?$AAO?$AAT?$AAA?$AAL?$AA?$AA@| [ DATA ] ; `string'
	EXPORT	|??_C@_1BO@MEDAFIAA@?$AAC?$AAA?$AAL?$AA_?$AAT?$AAI?$AAM?$AAE?$AA_?$AAT?$AAO?$AAT?$AAA?$AAL?$AA?$AA@| [ DATA ] ; `string'
	EXPORT	|??_C@_1DA@HKELEJGN@?$AAC?$AAA?$AAL?$AA_?$AAT?$AAI?$AAM?$AAE?$AA_?$AAP?$AAE?$AAR?$AAC?$AAE?$AAN?$AAT?$AA_?$AAA?$AAG?$AAE?$AAN?$AAD?$AAA?$AA?$AA@| [ DATA ] ; `string'
	EXPORT	|??_C@_1CK@MPKKCOHL@?$AAC?$AAA?$AAL?$AA_?$AAT?$AAI?$AAM?$AAE?$AA_?$AAP?$AAE?$AAR?$AAC?$AAE?$AAN?$AAT?$AA_?$AAD?$AAA?$AAY?$AA?$AA@| [ DATA ] ; `string'
	EXPORT	|??_C@_1CM@GAMPELJF@?$AAC?$AAA?$AAL?$AA_?$AAT?$AAI?$AAM?$AAE?$AA_?$AAP?$AAE?$AAR?$AAC?$AAE?$AAN?$AAT?$AA_?$AAW?$AAE?$AAE?$AAK?$AA?$AA@| [ DATA ] ; `string'
	EXPORT	|??_C@_1CO@ONHPMPBG@?$AAC?$AAA?$AAL?$AA_?$AAT?$AAI?$AAM?$AAE?$AA_?$AAP?$AAE?$AAR?$AAC?$AAE?$AAN?$AAT?$AA_?$AAM?$AAO?$AAN?$AAT?$AAH?$AA?$AA@| [ DATA ] ; `string'
	EXPORT	|??_C@_1CM@MIIGCBCF@?$AAC?$AAA?$AAL?$AA_?$AAT?$AAI?$AAM?$AAE?$AA_?$AAP?$AAE?$AAR?$AAC?$AAE?$AAN?$AAT?$AA_?$AAY?$AAE?$AAA?$AAR?$AA?$AA@| [ DATA ] ; `string'
	EXPORT	|??_C@_1DK@JPJDCOCK@?$AAC?$AAA?$AAL?$AA_?$AAT?$AAI?$AAM?$AAE?$AA_?$AAP?$AAE?$AAR?$AAC?$AAE?$AAN?$AAT?$AA_?$AAM?$AAO?$AAN?$AAT?$AAH?$AA_?$AAL?$AAU?$AAN?$AAA?$AAR?$AA?$AA@| [ DATA ] ; `string'
	EXPORT	|??_C@_1DG@KOKMFGIJ@?$AAC?$AAA?$AAL?$AA_?$AAA?$AAP?$AAP?$AAT?$AA_?$AAM?$AAU?$AAL?$AAT?$AAI?$AAN?$AAO?$AAN?$AAA?$AAL?$AAL?$AA_?$AAC?$AAO?$AAU?$AAN?$AAT?$AA?$AA@| [ DATA ] ; `string'
	EXPORT	|??_C@_1DK@JNBEEMOM@?$AAM?$AAS?$AAG?$AA_?$AAL?$AAV?$AA_?$AAS?$AAO?$AAR?$AAT?$AA_?$AAB?$AAY?$AA_?$AAM?$AAA?$AAP?$AAP?$AAI?$AAN?$AAG?$AA_?$AAD?$AAU?$AAM?$AAM?$AAY?$AA?$AA@| [ DATA ] ; `string'
	EXPORT	|??_C@_1EA@EPEBOFJL@?$AAM?$AAS?$AAG?$AA_?$AAL?$AAV?$AA_?$AAS?$AAO?$AAR?$AAT?$AA_?$AAO?$AAR?$AAD?$AAE?$AAR?$AA_?$AAM?$AAA?$AAP?$AAP?$AAI?$AAN?$AAG?$AA_?$AAD?$AAU?$AAM?$AAM?$AAY?$AA?$AA@| [ DATA ] ; `string'
	EXPORT	|??_C@_1EM@IHCFEHKH@?$AAM?$AAS?$AAG?$AA_?$AAE?$AAV?$AAE?$AAR?$AAY?$AA_?$AAO?$AAN?$AAE?$AA_?$AAU?$AAP?$AA_?$AAT?$AAO?$AA_?$AAT?$AAE?$AAN?$AA_?$AAM?$AAA?$AAP?$AAP?$AAI?$AAN?$AAG?$AA_@| [ DATA ] ; `string'
	EXPORT	|??_C@_1FE@KMKJGBEI@?$AAM?$AAS?$AAG?$AA_?$AAE?$AAV?$AAE?$AAR?$AAY?$AA_?$AAT?$AAE?$AAN?$AA_?$AAU?$AAP?$AA_?$AAT?$AAO?$AA_?$AAH?$AAU?$AAN?$AAD?$AAR?$AAE?$AAD?$AA_?$AAM?$AAA?$AAP?$AAP@| [ DATA ] ; `string'
	EXPORT	|??_C@_1FC@GDNNLDJL@?$AAM?$AAS?$AAG?$AA_?$AAE?$AAV?$AAE?$AAR?$AAY?$AA_?$AAF?$AAI?$AAV?$AAE?$AA_?$AAU?$AAP?$AA_?$AAT?$AAO?$AA_?$AAF?$AAI?$AAF?$AAT?$AAY?$AA_?$AAM?$AAA?$AAP?$AAP?$AAI@| [ DATA ] ; `string'
	EXPORT	|??_C@_1CK@GFOKACNK@?$AAD?$AAA?$AAT?$AAA?$AAI?$AAD?$AA_?$AAC?$AAA?$AAL?$AA_?$AAP?$AAA?$AAI?$AAN?$AAT?$AA_?$AAD?$AAV?$AAS?$AA?$AA@| [ DATA ] ; `string'
	EXPORT	|??_C@_1CK@LPEOMPBF@?$AAC?$AAA?$AAL?$AA_?$AAV?$AAI?$AAE?$AAW?$AA_?$AAM?$AAE?$AAN?$AAU?$AA_?$AAF?$AAI?$AAL?$AAT?$AAE?$AAR?$AA?$AA@| [ DATA ] ; `string'
	EXPORT	|??_C@_1CG@BEAJLOGC@?$AAC?$AAA?$AAL?$AA_?$AAV?$AAI?$AAE?$AAW?$AA_?$AAM?$AAE?$AAN?$AAU?$AA_?$AAV?$AAI?$AAE?$AAW?$AA?$AA@| [ DATA ] ; `string'
	EXPORT	|??_C@_1CG@CGOCPOMN@?$AAC?$AAA?$AAL?$AA_?$AAV?$AAI?$AAE?$AAW?$AA_?$AAM?$AAE?$AAN?$AAU?$AA_?$AAE?$AAD?$AAI?$AAT?$AA?$AA@| [ DATA ] ; `string'
	EXPORT	|??_C@_1BG@GIDECOCK@?$AAS?$AAY?$AAN?$AAC?$AA_?$AAE?$AAR?$AAR?$AAO?$AAR?$AA?$AA@| [ DATA ] ; `string'
	EXPORT	|??_C@_1CA@ILEAEFGE@?$AAP?$AAO?$AAW?$AAE?$AAR?$AA_?$AAB?$AAK?$AAL?$AA_?$AAT?$AAO?$AAT?$AAA?$AAL?$AA?$AA@| [ DATA ] ; `string'
	EXPORT	|??_C@_1BK@FIGKPCNB@?$AAP?$AAO?$AAW?$AAE?$AAR?$AA_?$AAB?$AAK?$AAL?$AA_?$AAO?$AAN?$AA?$AA@| [ DATA ] ; `string'
	EXPORT	|??_C@_1BM@JJLMLKII@?$AAP?$AAO?$AAW?$AAE?$AAR?$AA_?$AAB?$AAK?$AAL?$AA_?$AAO?$AAF?$AAF?$AA?$AA@| [ DATA ] ; `string'
	EXPORT	|??_C@_1CC@OLJJJJFN@?$AAP?$AAO?$AAW?$AAE?$AAR?$AA_?$AAB?$AAA?$AAT?$AA_?$AAC?$AAH?$AAA?$AAR?$AAG?$AAE?$AA?$AA@| [ DATA ] ; `string'
	EXPORT	|??_C@_1CA@KALILDDH@?$AAP?$AAO?$AAW?$AAE?$AAR?$AA_?$AAB?$AAA?$AAT?$AA_?$AAD?$AAR?$AAA?$AAI?$AAN?$AA?$AA@| [ DATA ] ; `string'
	EXPORT	|??_C@_1CK@LNBAPHLK@?$AAP?$AAO?$AAW?$AAE?$AAR?$AA_?$AAU?$AAS?$AAE?$AAR?$AA_?$AAS?$AAH?$AAU?$AAT?$AAD?$AAO?$AAW?$AAN?$AAS?$AA?$AA@| [ DATA ] ; `string'
	EXPORT	|??_C@_1DK@KGFCCCDE@?$AAP?$AAO?$AAW?$AAE?$AAR?$AA_?$AAB?$AAA?$AAT?$AA_?$AAS?$AAT?$AAA?$AAR?$AAT?$AA_?$AAC?$AAH?$AAA?$AAR?$AAG?$AAE?$AA_?$AAL?$AAE?$AAV?$AAE?$AAL?$AA?$AA@| [ DATA ] ; `string'
	EXPORT	|??_C@_1CM@PJKFLJIM@?$AAC?$AAE?$AAL?$AAL?$AAC?$AAO?$AAR?$AAE?$AA_?$AAR?$AAI?$AAL?$AA_?$AAS?$AAM?$AAS?$AA_?$AAS?$AAE?$AAN?$AAD?$AA?$AA@| [ DATA ] ; `string'
	EXPORT	|??_C@_1DC@CLMPHOMM@?$AAC?$AAE?$AAL?$AAL?$AAC?$AAO?$AAR?$AAE?$AA_?$AAR?$AAI?$AAL?$AA_?$AAS?$AAM?$AAS?$AA_?$AAR?$AAE?$AAC?$AAE?$AAI?$AAV?$AAE?$AA?$AA@| [ DATA ] ; `string'
	EXPORT	|??_C@_1DE@IIFEGBJI@?$AAC?$AAE?$AAL?$AAL?$AAC?$AAO?$AAR?$AAE?$AA_?$AAF?$AAL?$AAI?$AAG?$AAH?$AAT?$AA_?$AAM?$AAO?$AAD?$AAE?$AA_?$AAT?$AAI?$AAM?$AAE?$AA?$AA@| [ DATA ] ; `string'
	EXPORT	|??_C@_1DE@BLNKGCC@?$AAC?$AAE?$AAL?$AAL?$AAC?$AAO?$AAR?$AAE?$AA_?$AAR?$AAI?$AAL?$AA_?$AAU?$AAN?$AAR?$AAE?$AAG?$AAI?$AAS?$AAT?$AAE?$AAR?$AAE?$AAD?$AA?$AA@| [ DATA ] ; `string'
	EXPORT	|??_C@_1CK@OIFNJBHA@?$AAC?$AAE?$AAL?$AAL?$AAC?$AAO?$AAR?$AAE?$AA_?$AAR?$AAI?$AAL?$AA_?$AAR?$AAO?$AAA?$AAM?$AAI?$AAN?$AAG?$AA?$AA@| [ DATA ] ; `string'
	EXPORT	|??_C@_1CG@BJAKEIJD@?$AAC?$AAE?$AAL?$AAL?$AAC?$AAO?$AAR?$AAE?$AA_?$AAR?$AAI?$AAL?$AA_?$AAE?$AAR?$AAR?$AAO?$AAR?$AA?$AA@| [ DATA ] ; `string'
	EXPORT	|??_C@_1CK@MIIEJLFN@?$AAC?$AAE?$AAL?$AAL?$AAC?$AAO?$AAR?$AAE?$AA_?$AAR?$AAA?$AAD?$AAI?$AAO?$AA_?$AAR?$AAE?$AAS?$AAE?$AAT?$AA?$AA@| [ DATA ] ; `string'
	EXPORT	|??_C@_1DK@IBOGGAIE@?$AAN?$AAE?$AAT?$AAW?$AAO?$AAR?$AAK?$AAI?$AAN?$AAG?$AA_?$AAB?$AAY?$AAT?$AAE?$AAS?$AA_?$AAT?$AAR?$AAA?$AAN?$AAS?$AAF?$AAE?$AAR?$AAR?$AAE?$AAD?$AA?$AA@| [ DATA ] ; `string'
	EXPORT	|??_C@_1DE@LMPDKIPM@?$AAN?$AAE?$AAT?$AAW?$AAO?$AAR?$AAK?$AAI?$AAN?$AAG?$AA_?$AAW?$AAI?$AAF?$AAI?$AA_?$AAA?$AAS?$AAS?$AAO?$AAC?$AAI?$AAA?$AAT?$AAE?$AA?$AA@| [ DATA ] ; `string'
	EXPORT	|??_C@_1EC@BFAFKMAL@?$AAN?$AAE?$AAT?$AAW?$AAO?$AAR?$AAK?$AAI?$AAN?$AAG?$AA_?$AAW?$AAI?$AAF?$AAI?$AA_?$AAU?$AAN?$AAA?$AAB?$AAL?$AAE?$AA_?$AAA?$AAS?$AAS?$AAO?$AAC?$AAI?$AAA?$AAT?$AAE@| [ DATA ] ; `string'
	EXPORT	|??_C@_1DE@OPAJNLGE@?$AAN?$AAE?$AAT?$AAW?$AAO?$AAR?$AAK?$AAI?$AAN?$AAG?$AA_?$AAB?$AAA?$AAC?$AAK?$AA_?$AAB?$AAA?$AAC?$AAK?$AA_?$AAC?$AAA?$AAL?$AAL?$AA?$AA@| [ DATA ] ; `string'
	EXPORT	|??_C@_1EK@FFIAHDCN@?$AAN?$AAE?$AAT?$AAW?$AAO?$AAR?$AAK?$AAI?$AAN?$AAG?$AA_?$AAC?$AAM?$AA_?$AAE?$AAS?$AAT?$AAA?$AAB?$AAL?$AAI?$AAS?$AAH?$AAE?$AAD?$AA_?$AAC?$AAO?$AAN?$AAN?$AAE?$AAC@| [ DATA ] ; `string'
	EXPORT	|??_C@_1EA@NNALCGIC@?$AAN?$AAE?$AAT?$AAW?$AAO?$AAR?$AAK?$AAI?$AAN?$AAG?$AA_?$AAC?$AAM?$AA_?$AAF?$AAA?$AAI?$AAL?$AAE?$AAD?$AA_?$AAC?$AAO?$AAN?$AAN?$AAE?$AAC?$AAT?$AAI?$AAO?$AAN?$AA?$AA@| [ DATA ] ; `string'
	EXPORT	|??_C@_1FA@EGOCKOKH@?$AAS?$AAY?$AAN?$AAC?$AA_?$AAP?$AAI?$AAN?$AAG?$AA_?$AAT?$AAW?$AAE?$AAN?$AAT?$AAY?$AA_?$AAT?$AAO?$AA_?$AAT?$AAW?$AAE?$AAN?$AAT?$AAY?$AA_?$AAS?$AAE?$AAV?$AAE?$AAN@| [ DATA ] ; `string'
	EXPORT	|??_C@_1EE@EDIBLCEF@?$AAC?$AAO?$AAN?$AAT?$AAA?$AAC?$AAT?$AAS?$AA_?$AAS?$AAI?$AAM?$AAC?$AAA?$AAR?$AAD?$AA_?$AAM?$AAE?$AAN?$AAU?$AA_?$AAT?$AAO?$AAT?$AAA?$AAL?$AAC?$AAL?$AAI?$AAC?$AAK@| [ DATA ] ; `string'
	EXPORT	|??_C@_1EC@OMFMHIKM@?$AAC?$AAO?$AAN?$AAT?$AAA?$AAC?$AAT?$AAS?$AA_?$AAG?$AAA?$AAL?$AA_?$AAL?$AAV?$AA_?$AAM?$AAE?$AAN?$AAU?$AA_?$AAT?$AAO?$AAT?$AAA?$AAL?$AAC?$AAL?$AAI?$AAC?$AAK?$AAS@| [ DATA ] ; `string'
	EXPORT	|??_C@_1EE@FJMNJGCN@?$AAC?$AAO?$AAN?$AAT?$AAA?$AAC?$AAT?$AAS?$AA_?$AAG?$AAA?$AAL?$AAC?$AAA?$AAR?$AAD?$AA_?$AAM?$AAE?$AAN?$AAU?$AA_?$AAT?$AAO?$AAT?$AAA?$AAL?$AAC?$AAL?$AAI?$AAC?$AAK@| [ DATA ] ; `string'
	EXPORT	|??_C@_1EA@OPCIABPK@?$AAC?$AAO?$AAN?$AAT?$AAA?$AAC?$AAT?$AAS?$AA_?$AAL?$AAV?$AA_?$AAC?$AAO?$AAN?$AAT?$AAE?$AAX?$AAT?$AA_?$AAT?$AAO?$AAT?$AAA?$AAL?$AAC?$AAL?$AAI?$AAC?$AAK?$AAS?$AA?$AA@| [ DATA ] ; `string'
	EXPORT	|??_C@_1DC@MJPDBIKN@?$AAM?$AAS?$AAG?$AA_?$AAY?$AAE?$AAS?$AA_?$AAN?$AAO?$AA_?$AAM?$AAA?$AAP?$AAP?$AAI?$AAN?$AAG?$AA_?$AAD?$AAU?$AAM?$AAM?$AAY?$AA?$AA@| [ DATA ] ; `string'
	EXPORT	|??_C@_1DM@OBPJGDN@?$AAS?$AAY?$AAN?$AAC?$AA_?$AAO?$AAT?$AAA?$AA_?$AAE?$AAX?$AAC?$AAH?$AAA?$AAN?$AAG?$AAE?$AA_?$AAR?$AAE?$AAL?$AAI?$AAA?$AAB?$AAI?$AAL?$AAI?$AAT?$AAY?$AA?$AA@| [ DATA ] ; `string'
	EXPORT	|??_C@_1EC@MNNHNJMI@?$AAS?$AAY?$AAN?$AAC?$AA_?$AAD?$AAE?$AAS?$AAK?$AAT?$AAO?$AAP?$AA_?$AAO?$AAU?$AAT?$AAL?$AAO?$AAO?$AAK?$AA_?$AAR?$AAE?$AAL?$AAI?$AAA?$AAB?$AAI?$AAL?$AAI?$AAT?$AAY@| [ DATA ] ; `string'
	EXPORT	|??_C@_1DA@KMBBEIKM@?$AAS?$AAY?$AAN?$AAC?$AA_?$AAS?$AAT?$AAA?$AAT?$AAS?$AA_?$AAE?$AAR?$AAR?$AAO?$AAR?$AAC?$AAO?$AAN?$AAT?$AAE?$AAX?$AAT?$AA?$AA@| [ DATA ] ; `string'
	EXPORT	|??_C@_1CK@GGJDMEMI@?$AAS?$AAY?$AAN?$AAC?$AA_?$AAM?$AAA?$AAX?$AA_?$AAP?$AAI?$AAN?$AAG?$AAT?$AAI?$AAM?$AAE?$AAO?$AAU?$AAT?$AA?$AA@| [ DATA ] ; `string'
	EXPORT	|??_C@_1DO@IOLBIAOA@?$AAS?$AAY?$AAN?$AAC?$AA_?$AAO?$AAP?$AAT?$AAI?$AAO?$AAN?$AAS?$AA_?$AAP?$AAA?$AAR?$AAT?$AAN?$AAE?$AAR?$AAS?$AAH?$AAI?$AAP?$AA_?$AAS?$AAT?$AAA?$AAT?$AAS?$AA?$AA@| [ DATA ] ; `string'
	EXPORT	|??_C@_1EA@KKALNJPD@?$AAS?$AAY?$AAN?$AAC?$AA_?$AAO?$AAP?$AAT?$AAI?$AAO?$AAN?$AAS?$AA_?$AAE?$AAX?$AAC?$AAH?$AAA?$AAN?$AAG?$AAE?$AA_?$AAD?$AAA?$AAT?$AAA?$AAT?$AAY?$AAP?$AAE?$AAS?$AA?$AA@| [ DATA ] ; `string'
	EXPORT	|??_C@_1DG@CCCJFKII@?$AAS?$AAY?$AAN?$AAC?$AA_?$AAO?$AAP?$AAT?$AAI?$AAO?$AAN?$AAS?$AA_?$AAP?$AAC?$AA1?$AA_?$AAD?$AAA?$AAT?$AAA?$AAT?$AAY?$AAP?$AAE?$AAS?$AA?$AA@| [ DATA ] ; `string'
	EXPORT	|??_C@_1DG@HKDHPDKA@?$AAS?$AAY?$AAN?$AAC?$AA_?$AAO?$AAP?$AAT?$AAI?$AAO?$AAN?$AAS?$AA_?$AAP?$AAC?$AA2?$AA_?$AAD?$AAA?$AAT?$AAA?$AAT?$AAY?$AAP?$AAE?$AAS?$AA?$AA@| [ DATA ] ; `string'
	EXPORT	|??_C@_1BM@DEEPGNEK@?$AAS?$AAY?$AAN?$AAC?$AA_?$AAS?$AAC?$AAH?$AAE?$AAD?$AAU?$AAL?$AAE?$AA?$AA@| [ DATA ] ; `string'
	EXPORT	|??_C@_1BK@PENHAPPD@?$AAR?$AAA?$AAD?$AAI?$AAO?$AAV?$AAE?$AAR?$AAS?$AAI?$AAO?$AAN?$AA?$AA@| [ DATA ] ; `string'
	EXPORT	|??_C@_1DG@BKNJODGA@?$AAS?$AAY?$AAN?$AAC?$AA_?$AAP?$AAC?$AA2?$AA_?$AAA?$AAC?$AAT?$AAI?$AAV?$AAE?$AAS?$AAY?$AAN?$AAC?$AAV?$AAE?$AAR?$AAS?$AAI?$AAO?$AAN?$AA?$AA@| [ DATA ] ; `string'
	EXPORT	|??_C@_1DG@DAGFFDOI@?$AAS?$AAY?$AAN?$AAC?$AA_?$AAP?$AAC?$AA1?$AA_?$AAA?$AAC?$AAT?$AAI?$AAV?$AAE?$AAS?$AAY?$AAN?$AAC?$AAV?$AAE?$AAR?$AAS?$AAI?$AAO?$AAN?$AA?$AA@| [ DATA ] ; `string'
	EXPORT	|??_C@_1DA@PBAPKCKM@?$AAS?$AAY?$AAN?$AAC?$AA_?$AAP?$AAC?$AA2?$AA_?$AAA?$AAI?$AAR?$AAS?$AAY?$AAN?$AAC?$AAV?$AAE?$AAR?$AAS?$AAI?$AAO?$AAN?$AA?$AA@| [ DATA ] ; `string'
	EXPORT	|??_C@_1DA@JMIJFBPG@?$AAS?$AAY?$AAN?$AAC?$AA_?$AAP?$AAC?$AA1?$AA_?$AAA?$AAI?$AAR?$AAS?$AAY?$AAN?$AAC?$AAV?$AAE?$AAR?$AAS?$AAI?$AAO?$AAN?$AA?$AA@| [ DATA ] ; `string'
	EXPORT	|??_C@_1DK@HPCKPEKO@?$AAS?$AAY?$AAN?$AAC?$AA_?$AAE?$AAX?$AAC?$AAH?$AAA?$AAN?$AAG?$AAE?$AA_?$AAA?$AAI?$AAR?$AAS?$AAY?$AAN?$AAC?$AAV?$AAE?$AAR?$AAS?$AAI?$AAO?$AAN?$AA?$AA@| [ DATA ] ; `string'
	EXPORT	|??_C@_1BO@ENCDNMCO@?$AAM?$AAO?$AAB?$AAI?$AAL?$AAE?$AAO?$AAP?$AAE?$AAR?$AAA?$AAT?$AAO?$AAR?$AA?$AA@| [ DATA ] ; `string'
	EXPORT	|??_C@_1CO@PEHOOECL@?$AAS?$AAY?$AAN?$AAC?$AA_?$AAS?$AAT?$AAA?$AAT?$AAS?$AA_?$AAE?$AAM?$AAA?$AAI?$AAL?$AA_?$AAR?$AAE?$AAA?$AAD?$AAS?$AA?$AA@| [ DATA ] ; `string'
	EXPORT	|??_C@_1EA@FEMJBAFL@?$AAS?$AAY?$AAN?$AAC?$AA_?$AAS?$AAT?$AAA?$AAT?$AAS?$AA_?$AAE?$AAM?$AAA?$AAI?$AAL?$AA_?$AAC?$AAL?$AAI?$AAE?$AAN?$AAT?$AAR?$AAE?$AAC?$AAE?$AAI?$AAV?$AAE?$AAS?$AA?$AA@| [ DATA ] ; `string'
	EXPORT	|??_C@_1DK@GMKDPEFH@?$AAS?$AAY?$AAN?$AAC?$AA_?$AAS?$AAT?$AAA?$AAT?$AAS?$AA_?$AAE?$AAM?$AAA?$AAI?$AAL?$AA_?$AAC?$AAL?$AAI?$AAE?$AAN?$AAT?$AAS?$AAE?$AAN?$AAD?$AAS?$AA?$AA@| [ DATA ] ; `string'
	EXPORT	|??_C@_1DO@MKOCKDCP@?$AAS?$AAY?$AAN?$AAC?$AA_?$AAS?$AAT?$AAA?$AAT?$AAS?$AA_?$AAE?$AAM?$AAA?$AAI?$AAL?$AA_?$AAC?$AAL?$AAI?$AAE?$AAN?$AAT?$AAR?$AAE?$AAM?$AAO?$AAV?$AAE?$AAS?$AA?$AA@| [ DATA ] ; `string'
	EXPORT	|??_C@_1DI@IMIIJCNF@?$AAS?$AAY?$AAN?$AAC?$AA_?$AAS?$AAT?$AAA?$AAT?$AAS?$AA_?$AAC?$AAA?$AAL?$AAE?$AAN?$AAD?$AAA?$AAR?$AA_?$AAD?$AAE?$AAL?$AAE?$AAT?$AAE?$AAS?$AA?$AA@| [ DATA ] ; `string'
	EXPORT	|??_C@_1EG@JGPKCENM@?$AAS?$AAY?$AAN?$AAC?$AA_?$AAS?$AAT?$AAA?$AAT?$AAS?$AA_?$AAC?$AAA?$AAL?$AAE?$AAN?$AAD?$AAA?$AAR?$AA_?$AAM?$AAE?$AAE?$AAT?$AAI?$AAN?$AAG?$AAR?$AAE?$AAQ?$AAU?$AAE@| [ DATA ] ; `string'
	EXPORT	|??_C@_1DC@JKFMJFEM@?$AAS?$AAY?$AAN?$AAC?$AA_?$AAS?$AAT?$AAA?$AAT?$AAS?$AA_?$AAC?$AAA?$AAL?$AAE?$AAN?$AAD?$AAA?$AAR?$AA_?$AAA?$AAD?$AAD?$AAS?$AA?$AA@| [ DATA ] ; `string'
	EXPORT	|??_C@_1CO@FFCGONMB@?$AAS?$AAY?$AAN?$AAC?$AA_?$AAS?$AAT?$AAA?$AAT?$AAS?$AA_?$AAE?$AAM?$AAA?$AAI?$AAL?$AA_?$AAF?$AAE?$AAT?$AAC?$AAH?$AA?$AA@| [ DATA ] ; `string'
	EXPORT	|??_C@_1CE@CHCFDLOJ@?$AAS?$AAY?$AAN?$AAC?$AA_?$AAS?$AAT?$AAA?$AAT?$AAS?$AA_?$AAS?$AAE?$AAA?$AAR?$AAC?$AAH?$AA?$AA@| [ DATA ] ; `string'
	EXPORT	|??_C@_1CE@FKJIPELC@?$AAS?$AAY?$AAN?$AAC?$AA_?$AAF?$AAO?$AAL?$AAD?$AAE?$AAR?$AAS?$AAY?$AAN?$AAC?$AAE?$AAD?$AA?$AA@| [ DATA ] ; `string'
	EXPORT	|??_C@_1EM@KIFPCIBH@?$AAO?$AAF?$AAF?$AAI?$AAC?$AAE?$AAM?$AAO?$AAB?$AAI?$AAL?$AAE?$AA_?$AAE?$AAX?$AAC?$AAE?$AAL?$AA_?$AAZ?$AAO?$AAO?$AAM?$AAL?$AAE?$AAV?$AAE?$AAL?$AA_?$AAA?$AAT?$AA_@| [ DATA ] ; `string'
	EXPORT	|??_C@_1FC@POPNJLAM@?$AAO?$AAF?$AAF?$AAI?$AAC?$AAE?$AAM?$AAO?$AAB?$AAI?$AAL?$AAE?$AA_?$AAP?$AAP?$AAT?$AA_?$AAF?$AAI?$AAR?$AAS?$AAT?$AA_?$AAS?$AAL?$AAI?$AAD?$AAE?$AA_?$AAR?$AAE?$AAN@| [ DATA ] ; `string'
	EXPORT	|??_C@_1EI@OEKDCBHH@?$AAO?$AAF?$AAF?$AAI?$AAC?$AAE?$AAM?$AAO?$AAB?$AAI?$AAL?$AAE?$AA_?$AAP?$AAP?$AAT?$AA_?$AAN?$AAE?$AAX?$AAT?$AA_?$AAS?$AAL?$AAI?$AAD?$AAE?$AA_?$AAA?$AAV?$AA_?$AAT@| [ DATA ] ; `string'
	EXPORT	|??_C@_1EI@JEMKOHNO@?$AAO?$AAF?$AAF?$AAI?$AAC?$AAE?$AAM?$AAO?$AAB?$AAI?$AAL?$AAE?$AA_?$AAP?$AAP?$AAT?$AA_?$AAP?$AAR?$AAE?$AAV?$AA_?$AAS?$AAL?$AAI?$AAD?$AAE?$AA_?$AAA?$AAV?$AA_?$AAT@| [ DATA ] ; `string'
	EXPORT	|??_C@_1EI@KJNEPDED@?$AAO?$AAF?$AAF?$AAI?$AAC?$AAE?$AAM?$AAO?$AAB?$AAI?$AAL?$AAE?$AA_?$AAP?$AAP?$AAT?$AA_?$AAZ?$AAO?$AAO?$AAM?$AA_?$AAI?$AAN?$AA_?$AAL?$AA1?$AA_?$AAA?$AAV?$AA_?$AAT@| [ DATA ] ; `string'
	EXPORT	|??_C@_1EI@GHNLOIJ@?$AAO?$AAF?$AAF?$AAI?$AAC?$AAE?$AAM?$AAO?$AAB?$AAI?$AAL?$AAE?$AA_?$AAP?$AAP?$AAT?$AA_?$AAZ?$AAO?$AAO?$AAM?$AA_?$AAI?$AAN?$AA_?$AAL?$AA2?$AA_?$AAA?$AAV?$AA_?$AAT@| [ DATA ] ; `string'
	EXPORT	|??_C@_1EK@CIIABIMB@?$AAO?$AAF?$AAF?$AAI?$AAC?$AAE?$AAM?$AAO?$AAB?$AAI?$AAL?$AAE?$AA_?$AAP?$AAP?$AAT?$AA_?$AAZ?$AAO?$AAO?$AAM?$AA_?$AAO?$AAU?$AAT?$AA_?$AAL?$AA1?$AA_?$AAA?$AAV?$AA_@| [ DATA ] ; `string'
	EXPORT	|??_C@_1EK@IHCJFFAL@?$AAO?$AAF?$AAF?$AAI?$AAC?$AAE?$AAM?$AAO?$AAB?$AAI?$AAL?$AAE?$AA_?$AAP?$AAP?$AAT?$AA_?$AAZ?$AAO?$AAO?$AAM?$AA_?$AAO?$AAU?$AAT?$AA_?$AAL?$AA2?$AA_?$AAA?$AAV?$AA_@| [ DATA ] ; `string'
	EXPORT	|??_C@_1EA@FGGODFKG@?$AAO?$AAF?$AAF?$AAI?$AAC?$AAE?$AAM?$AAO?$AAB?$AAI?$AAL?$AAE?$AA_?$AAP?$AAP?$AAT?$AA_?$AAO?$AAR?$AAI?$AAE?$AAN?$AAT?$AA_?$AAA?$AAV?$AA_?$AAT?$AAI?$AAM?$AAE?$AA?$AA@| [ DATA ] ; `string'
	EXPORT	|??_C@_1EE@JMGJJAPN@?$AAO?$AAF?$AAF?$AAI?$AAC?$AAE?$AAM?$AAO?$AAB?$AAI?$AAL?$AAE?$AA_?$AAP?$AAP?$AAT?$AA_?$AAZ?$AAO?$AAO?$AAM?$AA_?$AAI?$AAN?$AA_?$AAL?$AA1?$AA_?$AAC?$AAO?$AAU?$AAN@| [ DATA ] ; `string'
	EXPORT	|??_C@_1EE@LFKBCEAP@?$AAO?$AAF?$AAF?$AAI?$AAC?$AAE?$AAM?$AAO?$AAB?$AAI?$AAL?$AAE?$AA_?$AAP?$AAP?$AAT?$AA_?$AAZ?$AAO?$AAO?$AAM?$AA_?$AAI?$AAN?$AA_?$AAL?$AA2?$AA_?$AAC?$AAO?$AAU?$AAN@| [ DATA ] ; `string'
	EXPORT	|??_C@_1DG@IAPEEJJK@?$AAO?$AAF?$AAF?$AAI?$AAC?$AAE?$AAM?$AAO?$AAB?$AAI?$AAL?$AAE?$AA_?$AAP?$AAP?$AAT?$AA_?$AAO?$AAS?$AA_?$AAO?$AAR?$AAI?$AAE?$AAN?$AAT?$AA?$AA@| [ DATA ] ; `string'
	EXPORT	|??_C@_1DG@LDAENPFE@?$AAO?$AAF?$AAF?$AAI?$AAC?$AAE?$AAM?$AAO?$AAB?$AAI?$AAL?$AAE?$AA_?$AAP?$AAP?$AAT?$AA_?$AAS?$AAS?$AA_?$AAO?$AAR?$AAI?$AAE?$AAN?$AAT?$AA?$AA@| [ DATA ] ; `string'
	EXPORT	|??_C@_1CI@MHHNEBOJ@?$AAT?$AAA?$AAS?$AAK?$AAS?$AA_?$AAC?$AAA?$AAT?$AAE?$AAG?$AAO?$AAR?$AAY?$AA_?$AAS?$AAO?$AAM?$AAE?$AA?$AA@| [ DATA ] ; `string'
	EXPORT	|??_C@_1BO@KIGJPGJM@?$AAT?$AAA?$AAS?$AAK?$AAS?$AA_?$AAD?$AAU?$AAE?$AA_?$AAN?$AAO?$AAN?$AAE?$AA?$AA@| [ DATA ] ; `string'
	EXPORT	|??_C@_1CA@NDFBCBDN@?$AAT?$AAA?$AAS?$AAK?$AAS?$AA_?$AAD?$AAU?$AAE?$AA_?$AAT?$AAO?$AAD?$AAA?$AAY?$AA?$AA@| [ DATA ] ; `string'
	EXPORT	|??_C@_1CG@LIGLFNNJ@?$AAT?$AAA?$AAS?$AAK?$AAS?$AA_?$AAD?$AAU?$AAE?$AA_?$AAT?$AAO?$AAM?$AAO?$AAR?$AAR?$AAO?$AAW?$AA?$AA@| [ DATA ] ; `string'
	EXPORT	|??_C@_1CI@LOMPGLCH@?$AAT?$AAA?$AAS?$AAK?$AAS?$AA_?$AAD?$AAU?$AAE?$AA_?$AAN?$AAE?$AAX?$AAT?$AA_?$AAW?$AAE?$AAE?$AAK?$AA?$AA@| [ DATA ] ; `string'
	EXPORT	|??_C@_1CI@NHDFKKBI@?$AAT?$AAA?$AAS?$AAK?$AAS?$AA_?$AAD?$AAU?$AAE?$AA_?$AAT?$AAH?$AAI?$AAS?$AA_?$AAW?$AAE?$AAE?$AAK?$AA?$AA@| [ DATA ] ; `string'
	EXPORT	|??_C@_1CK@LEFPEMAE@?$AAT?$AAA?$AAS?$AAK?$AAS?$AA_?$AAD?$AAU?$AAE?$AA_?$AAT?$AAH?$AAI?$AAS?$AA_?$AAM?$AAO?$AAN?$AAT?$AAH?$AA?$AA@| [ DATA ] ; `string'
	EXPORT	|??_C@_1CK@OCPNOE@?$AAT?$AAA?$AAS?$AAK?$AAS?$AA_?$AAD?$AAU?$AAE?$AA_?$AAN?$AAE?$AAX?$AAT?$AA_?$AAM?$AAO?$AAN?$AAT?$AAH?$AA?$AA@| [ DATA ] ; `string'
	EXPORT	|??_C@_1CA@PHKHHOLA@?$AAT?$AAA?$AAS?$AAK?$AAS?$AA_?$AAD?$AAU?$AAE?$AA_?$AAL?$AAA?$AAT?$AAE?$AAR?$AA?$AA@| [ DATA ] ; `string'
	EXPORT	|??_C@_1CM@HOLAAEKH@?$AAT?$AAA?$AAS?$AAK?$AAS?$AA_?$AAC?$AAO?$AAM?$AAP?$AAL?$AAE?$AAT?$AAE?$AAD?$AA_?$AAT?$AAO?$AAD?$AAA?$AAY?$AA?$AA@| [ DATA ] ; `string'
	EXPORT	|??_C@_1DE@KBFPIHBK@?$AAT?$AAA?$AAS?$AAK?$AAS?$AA_?$AAC?$AAO?$AAM?$AAP?$AAL?$AAE?$AAT?$AAE?$AAD?$AA_?$AAT?$AAH?$AAI?$AAS?$AA_?$AAW?$AAE?$AAE?$AAK?$AA?$AA@| [ DATA ] ; `string'
	EXPORT	|??_C@_1DE@FDBIMMBC@?$AAT?$AAA?$AAS?$AAK?$AAS?$AA_?$AAC?$AAO?$AAM?$AAP?$AAL?$AAE?$AAT?$AAE?$AAD?$AA_?$AAL?$AAA?$AAS?$AAT?$AA_?$AAW?$AAE?$AAE?$AAK?$AA?$AA@| [ DATA ] ; `string'
	EXPORT	|??_C@_1DA@FDOICPBN@?$AAT?$AAA?$AAS?$AAK?$AAS?$AA_?$AAC?$AAO?$AAM?$AAP?$AAL?$AAE?$AAT?$AAE?$AAD?$AA_?$AAE?$AAA?$AAR?$AAL?$AAI?$AAE?$AAR?$AA?$AA@| [ DATA ] ; `string'
	EXPORT	|??_C@_1CG@LCNEAJM@?$AAT?$AAA?$AAS?$AAK?$AA_?$AAN?$AAE?$AAW?$AA_?$AAE?$AAN?$AAT?$AAR?$AAY?$AA_?$AAB?$AAA?$AAR?$AA?$AA@| [ DATA ] ; `string'
	EXPORT	|??_C@_1BK@MDOHAIID@?$AAP?$AAL?$AAA?$AAT?$AAF?$AAO?$AAR?$AAM?$AAT?$AAY?$AAP?$AAE?$AA?$AA@| [ DATA ] ; `string'
	EXPORT	|??_C@_1BC@HMFDNACO@?$AAO?$AAE?$AAM?$AA_?$AAI?$AAN?$AAF?$AAO?$AA?$AA@| [ DATA ] ; `string'
	EXPORT	|??_C@_1DC@BPJPJLOF@?$AAD?$AAI?$AAS?$AAC?$AAR?$AAE?$AAT?$AAE?$AA_?$AAV?$AAA?$AAR?$AAI?$AAA?$AAB?$AAL?$AAE?$AA_?$AAM?$AAA?$AAP?$AAP?$AAE?$AAR?$AA?$AA@| [ DATA ] ; `string'
	EXPORT	|??_C@_1DO@FGKNPDGB@?$AAC?$AAO?$AAN?$AAT?$AAI?$AAN?$AAU?$AAO?$AAU?$AAS?$AAV?$AAA?$AAR?$AAI?$AAA?$AAB?$AAL?$AAE?$AAM?$AAA?$AAP?$AAP?$AAI?$AAN?$AAG?$AAD?$AAU?$AAM?$AAM?$AAY?$AA?$AA@| [ DATA ] ; `string'
	EXPORT	|??_C@_1BE@CAOFPPHO@?$AAO?$AAE?$AAM?$AAI?$AAN?$AAF?$AAO?$AA_?$AA1?$AA?$AA@| [ DATA ] ; `string'
	EXPORT	|??_C@_1BE@DCFAFAJA@?$AAO?$AAE?$AAM?$AAI?$AAN?$AAF?$AAO?$AA_?$AA2?$AA?$AA@| [ DATA ] ; `string'
	EXPORT	|??_C@_1BE@IKOMDHPF@?$AAO?$AAE?$AAM?$AAI?$AAN?$AAF?$AAO?$AA_?$AA3?$AA?$AA@| [ DATA ] ; `string'
	EXPORT	|??_C@_1BE@BHDLAPEM@?$AAO?$AAE?$AAM?$AAI?$AAN?$AAF?$AAO?$AA_?$AA4?$AA?$AA@| [ DATA ] ; `string'
	EXPORT	|??_C@_1BE@KPIHGICJ@?$AAO?$AAE?$AAM?$AAI?$AAN?$AAF?$AAO?$AA_?$AA5?$AA?$AA@| [ DATA ] ; `string'
	EXPORT	|??_C@_1BE@LNDCMHMH@?$AAO?$AAE?$AAM?$AAI?$AAN?$AAF?$AAO?$AA_?$AA6?$AA?$AA@| [ DATA ] ; `string'
	EXPORT	|??_C@_1BE@FIOKAKC@?$AAO?$AAE?$AAM?$AAI?$AAN?$AAF?$AAO?$AA_?$AA7?$AA?$AA@| [ DATA ] ; `string'
	EXPORT	|??_C@_1BE@FNONLAPE@?$AAO?$AAE?$AAM?$AAI?$AAN?$AAF?$AAO?$AA_?$AA8?$AA?$AA@| [ DATA ] ; `string'
	EXPORT	|??_C@_1BE@OFFBNHJB@?$AAO?$AAE?$AAM?$AAI?$AAN?$AAF?$AAO?$AA_?$AA9?$AA?$AA@| [ DATA ] ; `string'
	EXPORT	|??_C@_1BC@EBFIPGIC@?$AAI?$AAM?$AAE?$AAI?$AA_?$AAT?$AAA?$AAC?$AA?$AA@| [ DATA ] ; `string'
	EXPORT	|??_C@_1BA@HNJALMCF@?$AAM?$AAE?$AAI?$AAD?$AA_?$AAM?$AAC?$AA?$AA@| [ DATA ] ; `string'
	EXPORT	|??_C@_1O@JGKJKPEA@?$AAE?$AAS?$AAN?$AA_?$AAM?$AAC?$AA?$AA@| [ DATA ] ; `string'
	EXPORT	|??_C@_1CM@ONCMGNBO@?$AAM?$AAA?$AAN?$AAA?$AAG?$AAE?$AAD?$AA_?$AAD?$AAE?$AAV?$AAI?$AAC?$AAE?$AA_?$AAS?$AAT?$AAA?$AAT?$AAU?$AAS?$AA?$AA@| [ DATA ] ; `string'
	EXPORT	|??_C@_1GK@NMBCBEDP@?$AAM?$AAE?$AAD?$AAI?$AAA?$AA_?$AAL?$AAI?$AAB?$AAR?$AAA?$AAR?$AAY?$AA_?$AAN?$AAU?$AAM?$AAB?$AAE?$AAR?$AA_?$AAT?$AAY?$AAP?$AAE?$AA_?$AAA?$AAU?$AAD?$AAI?$AAO?$AA_@| [ DATA ] ; `string'
	EXPORT	|??_C@_1HK@LDHDOHH@?$AAM?$AAE?$AAD?$AAI?$AAA?$AA_?$AAL?$AAI?$AAB?$AAR?$AAA?$AAR?$AAY?$AA_?$AAN?$AAU?$AAM?$AAB?$AAE?$AAR?$AA_?$AAT?$AAY?$AAP?$AAE?$AA_?$AAP?$AAH?$AAO?$AAT?$AAO?$AAS@| [ DATA ] ; `string'
	EXPORT	|??_C@_1HC@HJIDCJBD@?$AAM?$AAE?$AAD?$AAI?$AAA?$AA_?$AAL?$AAI?$AAB?$AAR?$AAA?$AAR?$AAY?$AA_?$AAN?$AAU?$AAM?$AAB?$AAE?$AAR?$AA_?$AAT?$AAY?$AAP?$AAE?$AA_?$AAV?$AAI?$AAD?$AAE?$AAO?$AAS@| [ DATA ] ; `string'
	EXPORT	|??_C@_1EG@KCIPMEEC@?$AAM?$AAE?$AAD?$AAI?$AAA?$AA_?$AAL?$AAI?$AAB?$AAR?$AAA?$AAR?$AAY?$AA_?$AAN?$AAU?$AAM?$AAB?$AAE?$AAR?$AA_?$AAP?$AAH?$AAO?$AAT?$AAO?$AAS?$AA_?$AAT?$AAA?$AAG?$AAG@| [ DATA ] ; `string'
	EXPORT	|??_C@_1CG@FBHOBI@?$AAP?$AAH?$AAO?$AAT?$AAO?$AAS?$AA_?$AAT?$AAA?$AAG?$AA_?$AAA?$AAC?$AAT?$AAI?$AAO?$AAN?$AAS?$AA?$AA@| [ DATA ] ; `string'
	EXPORT	|??_C@_1CG@EGMKIABM@?$AAP?$AAL?$AAA?$AAY?$AAB?$AAA?$AAC?$AAK?$AA_?$AAF?$AAI?$AAL?$AAE?$AA_?$AAI?$AAN?$AAF?$AAO?$AA?$AA@| [ DATA ] ; `string'
	EXPORT	|??_C@_1DI@IDAHEOHD@?$AAC?$AAO?$AAN?$AAT?$AAA?$AAC?$AAT?$AAS?$AA_?$AAL?$AAV?$AA_?$AAM?$AAE?$AAN?$AAU?$AA_?$AAO?$AAP?$AAE?$AAN?$AAS?$AAK?$AAC?$AAO?$AAM?$AAM?$AA?$AA@| [ DATA ] ; `string'
	EXPORT	|??_C@_1DK@GENCIBNP@?$AAC?$AAO?$AAN?$AAT?$AAA?$AAC?$AAT?$AAS?$AA_?$AAL?$AAV?$AA_?$AAM?$AAE?$AAN?$AAU?$AA_?$AAC?$AAO?$AAM?$AAM?$AAM?$AAO?$AAB?$AAH?$AAO?$AAM?$AAE?$AA?$AA@| [ DATA ] ; `string'
	EXPORT	|??_C@_1DI@DEIEEL@?$AAC?$AAO?$AAN?$AAT?$AAA?$AAC?$AAT?$AAS?$AA_?$AAL?$AAV?$AA_?$AAM?$AAE?$AAN?$AAU?$AA_?$AAC?$AAO?$AAM?$AAM?$AAW?$AAR?$AAK?$AAT?$AAX?$AAT?$AA?$AA@| [ DATA ] ; `string'
	EXPORT	|??_C@_1DG@PDDAAAHK@?$AAC?$AAO?$AAN?$AAT?$AAA?$AAC?$AAT?$AAS?$AA_?$AAL?$AAV?$AA_?$AAM?$AAE?$AAN?$AAU?$AA_?$AAC?$AAO?$AAM?$AAM?$AAE?$AAM?$AAA?$AAI?$AAL?$AA?$AA@| [ DATA ] ; `string'
	EXPORT	|??_C@_1DG@HJELKGCJ@?$AAC?$AAO?$AAN?$AAT?$AAA?$AAC?$AAT?$AAS?$AA_?$AAL?$AAV?$AA_?$AAM?$AAE?$AAN?$AAU?$AA_?$AAC?$AAA?$AAT?$AAE?$AAG?$AAF?$AAA?$AAV?$AAE?$AA?$AA@| [ DATA ] ; `string'
	EXPORT	|??_C@_1DI@OJMGHEHI@?$AAC?$AAO?$AAN?$AAT?$AAA?$AAC?$AAT?$AAS?$AA_?$AAL?$AAV?$AA_?$AAM?$AAE?$AAN?$AAU?$AA_?$AAV?$AAI?$AAE?$AAW?$AAR?$AAE?$AAC?$AAE?$AAN?$AAT?$AA?$AA@| [ DATA ] ; `string'
	EXPORT	|??_C@_1DK@FFBAKNNN@?$AAC?$AAO?$AAN?$AAT?$AAA?$AAC?$AAT?$AAS?$AA_?$AAS?$AAU?$AAM?$AAC?$AAA?$AAR?$AAD?$AA_?$AAM?$AAE?$AAN?$AAU?$AA_?$AAS?$AAK?$AAC?$AAO?$AAM?$AAM?$AA?$AA@| [ DATA ] ; `string'
	EXPORT	|??_C@_1DM@LBBLBDEB@?$AAC?$AAO?$AAN?$AAT?$AAA?$AAC?$AAT?$AAS?$AA_?$AAS?$AAU?$AAM?$AAC?$AAA?$AAR?$AAD?$AA_?$AAM?$AAE?$AAN?$AAU?$AA_?$AAA?$AAD?$AAD?$AAF?$AAA?$AAV?$AAE?$AA?$AA@| [ DATA ] ; `string'
	EXPORT	|??_C@_1EE@NCFOJBMK@?$AAC?$AAO?$AAN?$AAT?$AAA?$AAC?$AAT?$AAS?$AA_?$AAS?$AAU?$AAM?$AAC?$AAA?$AAR?$AAD?$AA_?$AAM?$AAE?$AAN?$AAU?$AA_?$AAC?$AAO?$AAM?$AAM?$AAM?$AAO?$AAB?$AAH?$AAO?$AAM@| [ DATA ] ; `string'
	EXPORT	|??_C@_1EC@IEBHBDOD@?$AAC?$AAO?$AAN?$AAT?$AAA?$AAC?$AAT?$AAS?$AA_?$AAT?$AAE?$AAM?$AAP?$AAC?$AAA?$AAR?$AAD?$AA_?$AAM?$AAE?$AAN?$AAU?$AA_?$AAF?$AAI?$AAN?$AAD?$AAE?$AAM?$AAA?$AAI?$AAL@| [ DATA ] ; `string'
	EXPORT	|??_C@_1EC@BLHBEKPO@?$AAC?$AAO?$AAN?$AAT?$AAA?$AAC?$AAT?$AAS?$AA_?$AAT?$AAE?$AAM?$AAP?$AAC?$AAA?$AAR?$AAD?$AA_?$AAM?$AAE?$AAN?$AAU?$AA_?$AAS?$AAA?$AAV?$AAE?$AAT?$AAO?$AAT?$AAA?$AAL@| [ DATA ] ; `string'
	EXPORT	|??_C@_1DG@HNJAFENF@?$AAC?$AAO?$AAN?$AAT?$AAA?$AAC?$AAT?$AAS?$AA_?$AAS?$AAI?$AAM?$AAC?$AAA?$AAR?$AAD?$AA_?$AAM?$AAE?$AAN?$AAU?$AA_?$AAC?$AAA?$AAL?$AAL?$AA?$AA@| [ DATA ] ; `string'
	EXPORT	|??_C@_1DM@OPAONCJP@?$AAC?$AAO?$AAN?$AAT?$AAA?$AAC?$AAT?$AAS?$AA_?$AAS?$AAI?$AAM?$AAC?$AAA?$AAR?$AAD?$AA_?$AAM?$AAE?$AAN?$AAU?$AA_?$AAA?$AAD?$AAD?$AAF?$AAA?$AAV?$AAE?$AA?$AA@| [ DATA ] ; `string'
	EXPORT	|??_C@_1EC@COIEDHIC@?$AAC?$AAO?$AAN?$AAT?$AAA?$AAC?$AAT?$AAS?$AA_?$AAG?$AAA?$AAL?$AAC?$AAA?$AAR?$AAD?$AA_?$AAM?$AAE?$AAN?$AAU?$AA_?$AAS?$AAK?$AAC?$AAO?$AAM?$AAM?$AAH?$AAO?$AAM?$AAE@| [ DATA ] ; `string'
	EXPORT	|??_C@_1DC@DJGAFKM@?$AAC?$AAO?$AAN?$AAT?$AAA?$AAC?$AAT?$AAS?$AA_?$AAG?$AAA?$AAL?$AAL?$AAV?$AA_?$AAM?$AAE?$AAN?$AAU?$AA_?$AAO?$AAP?$AAE?$AAN?$AA?$AA@| [ DATA ] ; `string'
	EXPORT	|??_C@_1EC@BBALECMF@?$AAC?$AAO?$AAN?$AAT?$AAA?$AAC?$AAT?$AAS?$AA_?$AAG?$AAA?$AAL?$AAC?$AAA?$AAR?$AAD?$AA_?$AAM?$AAE?$AAN?$AAU?$AA_?$AAC?$AAO?$AAM?$AAM?$AAM?$AAO?$AAB?$AAW?$AAR?$AAK@| [ DATA ] ; `string'
	EXPORT	|??_C@_1EG@IKDOKOEG@?$AAC?$AAO?$AAN?$AAT?$AAA?$AAC?$AAT?$AAS?$AA_?$AAG?$AAA?$AAL?$AAC?$AAA?$AAR?$AAD?$AA_?$AAM?$AAE?$AAN?$AAU?$AA_?$AAC?$AAO?$AAM?$AAM?$AAE?$AAM?$AAA?$AAI?$AAL?$AAT@| [ DATA ] ; `string'
	EXPORT	|??_C@_1EC@OIFLICMP@?$AAC?$AAO?$AAN?$AAT?$AAA?$AAC?$AAT?$AAS?$AA_?$AAS?$AAU?$AAM?$AAC?$AAA?$AAR?$AAD?$AA_?$AAM?$AAE?$AAN?$AAU?$AA_?$AAC?$AAO?$AAM?$AAM?$AAW?$AAR?$AAK?$AAT?$AAX?$AAT@| [ DATA ] ; `string'
	EXPORT	|??_C@_1EA@CMFFKJJL@?$AAC?$AAO?$AAN?$AAT?$AAA?$AAC?$AAT?$AAS?$AA_?$AAS?$AAU?$AAM?$AAC?$AAA?$AAR?$AAD?$AA_?$AAM?$AAE?$AAN?$AAU?$AA_?$AAC?$AAO?$AAM?$AAM?$AAE?$AAM?$AAA?$AAI?$AAL?$AA?$AA@| [ DATA ] ; `string'
	EXPORT	|??_C@_1DO@MCPKBBOD@?$AAC?$AAO?$AAN?$AAT?$AAA?$AAC?$AAT?$AAS?$AA_?$AAG?$AAA?$AAL?$AAL?$AAV?$AA_?$AAM?$AAE?$AAN?$AAU?$AA_?$AAC?$AAO?$AAM?$AAM?$AAM?$AAO?$AAB?$AAW?$AAR?$AAK?$AA?$AA@| [ DATA ] ; `string'
	EXPORT	|??_C@_1EC@HDOAJNNP@?$AAC?$AAO?$AAN?$AAT?$AAA?$AAC?$AAT?$AAS?$AA_?$AAG?$AAA?$AAL?$AAL?$AAV?$AA_?$AAM?$AAE?$AAN?$AAU?$AA_?$AAC?$AAO?$AAM?$AAM?$AAE?$AAM?$AAA?$AAI?$AAL?$AAT?$AAX?$AAT@| [ DATA ] ; `string'
	EXPORT	|??_C@_1CM@JHMGAGOE@?$AAP?$AAL?$AAA?$AAY?$AAB?$AAA?$AAC?$AAK?$AA_?$AAC?$AAO?$AAU?$AAN?$AAT?$AA_?$AAN?$AAO?$AA_?$AAD?$AAR?$AAM?$AA?$AA@| [ DATA ] ; `string'
	EXPORT	|??_C@_1DO@FBMCADAA@?$AAP?$AAL?$AAA?$AAY?$AAB?$AAA?$AAC?$AAK?$AA_?$AAC?$AAO?$AAU?$AAN?$AAT?$AA_?$AAS?$AAT?$AAR?$AAE?$AAA?$AAM?$AAI?$AAN?$AAG?$AA_?$AAM?$AAE?$AAD?$AAI?$AAA?$AA?$AA@| [ DATA ] ; `string'
	EXPORT	|??_C@_1EK@JHGCOBKM@?$AAP?$AAL?$AAA?$AAY?$AAB?$AAA?$AAC?$AAK?$AA_?$AAC?$AAO?$AAU?$AAN?$AAT?$AA_?$AAM?$AAS?$AA_?$AAD?$AAR?$AAM?$AA_?$AAA?$AAN?$AAD?$AA_?$AAO?$AAT?$AAH?$AAE?$AAR?$AAS@| [ DATA ] ; `string'
	EXPORT	|??_C@_1HA@FLKBNIAG@?$AAC?$AAA?$AAM?$AAE?$AAR?$AAA?$AA_?$AAN?$AAU?$AAM?$AAB?$AAE?$AAR?$AA_?$AAC?$AAA?$AAP?$AAT?$AAU?$AAR?$AAE?$AAD?$AA_?$AAP?$AAH?$AAO?$AAT?$AAO?$AAS?$AA_?$AAA?$AAN@| [ DATA ] ; `string'
	EXPORT	|??_C@_1EA@CGFBBHOM@?$AAP?$AAL?$AAA?$AAY?$AAB?$AAA?$AAC?$AAK?$AA_?$AAC?$AAO?$AAU?$AAN?$AAT?$AA_?$AAM?$AAU?$AAS?$AAI?$AAC?$AA_?$AAA?$AAN?$AAD?$AA_?$AAV?$AAI?$AAD?$AAE?$AAO?$AAS?$AA?$AA@| [ DATA ] ; `string'
	EXPORT	|??_C@_1CC@PFBCBNGC@?$AAP?$AAH?$AAO?$AAN?$AAE?$AA_?$AAE?$AAR?$AAR?$AAO?$AAR?$AAC?$AAO?$AAU?$AAN?$AAT?$AA?$AA@| [ DATA ] ; `string'
	EXPORT	|??_C@_1BA@KBLKJDJD@?$AAI?$AAM?$AAE?$AAI?$AA_?$AAS?$AAN?$AA?$AA@| [ DATA ] ; `string'
	EXPORT	|??_C@_1BE@OHJENLDB@?$AAT?$AAA?$AAS?$AAK?$AAS?$AA_?$AAN?$AAE?$AAW?$AA?$AA@| [ DATA ] ; `string'
	EXPORT	|??_C@_1CG@GOMOLAPA@?$AAP?$AAI?$AAM?$AA_?$AAC?$AAA?$AAT?$AAE?$AAG?$AAO?$AAR?$AAY?$AA_?$AAT?$AAO?$AAT?$AAA?$AAL?$AA?$AA@| [ DATA ] ; `string'
	EXPORT	|??_C@_1CM@NGMLLFKM@?$AAT?$AAA?$AAS?$AAK?$AAS?$AA_?$AAC?$AAA?$AAT?$AAE?$AAG?$AAO?$AAR?$AAY?$AA_?$AAP?$AAI?$AAV?$AAO?$AAT?$AAS?$AA?$AA@| [ DATA ] ; `string'
	EXPORT	|??_C@_1CC@KJEANGJK@?$AAP?$AAI?$AAM?$AA_?$AAC?$AAA?$AAT?$AAE?$AAG?$AAO?$AAR?$AAY?$AA_?$AAN?$AAE?$AAW?$AA?$AA@| [ DATA ] ; `string'
	EXPORT	|??_C@_1CI@JDLJDJBP@?$AAT?$AAA?$AAS?$AAK?$AAS?$AA_?$AAC?$AAA?$AAT?$AAE?$AAG?$AAO?$AAR?$AAY?$AA_?$AAN?$AAO?$AAN?$AAE?$AA?$AA@| [ DATA ] ; `string'
	EXPORT	|??_C@_1CG@ELODEAAA@?$AAT?$AAA?$AAS?$AAK?$AAS?$AA_?$AAC?$AAA?$AAT?$AAE?$AAG?$AAO?$AAR?$AAY?$AA_?$AAO?$AAN?$AAE?$AA?$AA@| [ DATA ] ; `string'
	EXPORT	|??_C@_1DG@HKLLNMEO@?$AAT?$AAA?$AAS?$AAK?$AAS?$AA_?$AAC?$AAA?$AAT?$AAE?$AAG?$AAO?$AAR?$AAY?$AA_?$AAT?$AAW?$AAO?$AA_?$AAO?$AAR?$AA_?$AAM?$AAO?$AAR?$AAE?$AA?$AA@| [ DATA ] ; `string'
	EXPORT	|??_C@_1CE@LDKHFGOK@?$AAT?$AAA?$AAS?$AAK?$AAS?$AA_?$AAD?$AAU?$AAE?$AA_?$AAO?$AAV?$AAE?$AAR?$AAD?$AAU?$AAE?$AA?$AA@| [ DATA ] ; `string'
	EXPORT	|??_C@_1CO@DNAKEEEA@?$AAT?$AAA?$AAS?$AAK?$AAS?$AA_?$AAD?$AAU?$AAE?$AA_?$AAT?$AAO?$AAD?$AAA?$AAY?$AA_?$AAH?$AAE?$AAA?$AAD?$AAE?$AAR?$AA?$AA@| [ DATA ] ; `string'
	EXPORT	|??_C@_1DE@IGKNKBPG@?$AAT?$AAA?$AAS?$AAK?$AAS?$AA_?$AAD?$AAU?$AAE?$AA_?$AAT?$AAO?$AAM?$AAO?$AAR?$AAR?$AAO?$AAW?$AA_?$AAH?$AAE?$AAA?$AAD?$AAE?$AAR?$AA?$AA@| [ DATA ] ; `string'
	EXPORT	|??_C@_1DG@KIODOMLE@?$AAT?$AAA?$AAS?$AAK?$AAS?$AA_?$AAD?$AAU?$AAE?$AA_?$AAT?$AAH?$AAI?$AAS?$AA_?$AAW?$AAE?$AAE?$AAK?$AA_?$AAH?$AAE?$AAA?$AAD?$AAE?$AAR?$AA?$AA@| [ DATA ] ; `string'
	EXPORT	|??_C@_1DG@BAPDNPAH@?$AAT?$AAA?$AAS?$AAK?$AAS?$AA_?$AAD?$AAU?$AAE?$AA_?$AAN?$AAE?$AAX?$AAT?$AA_?$AAW?$AAE?$AAE?$AAK?$AA_?$AAH?$AAE?$AAA?$AAD?$AAE?$AAR?$AA?$AA@| [ DATA ] ; `string'
	EXPORT	|??_C@_1DI@OBILBFDB@?$AAT?$AAA?$AAS?$AAK?$AAS?$AA_?$AAD?$AAU?$AAE?$AA_?$AAT?$AAH?$AAI?$AAS?$AA_?$AAM?$AAO?$AAN?$AAT?$AAH?$AA_?$AAH?$AAE?$AAA?$AAD?$AAE?$AAR?$AA?$AA@| [ DATA ] ; `string'
	EXPORT	|??_C@_1DI@JBLDDBEM@?$AAT?$AAA?$AAS?$AAK?$AAS?$AA_?$AAD?$AAU?$AAE?$AA_?$AAN?$AAE?$AAX?$AAT?$AA_?$AAM?$AAO?$AAN?$AAT?$AAH?$AA_?$AAH?$AAE?$AAA?$AAD?$AAE?$AAR?$AA?$AA@| [ DATA ] ; `string'
	EXPORT	|??_C@_1CO@LKIMIOBM@?$AAT?$AAA?$AAS?$AAK?$AAS?$AA_?$AAD?$AAU?$AAE?$AA_?$AAL?$AAA?$AAT?$AAE?$AAR?$AA_?$AAH?$AAE?$AAA?$AAD?$AAE?$AAR?$AA?$AA@| [ DATA ] ; `string'
	EXPORT	|??_C@_1DC@OAPAJGIC@?$AAT?$AAA?$AAS?$AAK?$AAS?$AA_?$AAD?$AAU?$AAE?$AA_?$AAN?$AAO?$AA_?$AAD?$AAA?$AAT?$AAE?$AA_?$AAH?$AAE?$AAA?$AAD?$AAE?$AAR?$AA?$AA@| [ DATA ] ; `string'
	EXPORT	|??_C@_1DK@ENHEANHL@?$AAT?$AAA?$AAS?$AAK?$AAS?$AA_?$AAC?$AAO?$AAM?$AAP?$AAL?$AAE?$AAT?$AAE?$AAD?$AA_?$AAT?$AAO?$AAD?$AAA?$AAY?$AA_?$AAH?$AAE?$AAA?$AAD?$AAE?$AAR?$AA?$AA@| [ DATA ] ; `string'
	EXPORT	|??_C@_1EC@GJCNBPEL@?$AAT?$AAA?$AAS?$AAK?$AAS?$AA_?$AAC?$AAO?$AAM?$AAP?$AAL?$AAE?$AAT?$AAE?$AAD?$AA_?$AAT?$AAH?$AAI?$AAS?$AA_?$AAW?$AAE?$AAE?$AAK?$AA_?$AAH?$AAE?$AAA?$AAD?$AAE?$AAR@| [ DATA ] ; `string'
	EXPORT	|??_C@_1DO@JECOGGMC@?$AAT?$AAA?$AAS?$AAK?$AAS?$AA_?$AAC?$AAO?$AAM?$AAP?$AAL?$AAE?$AAT?$AAE?$AAD?$AA_?$AAE?$AAA?$AAR?$AAL?$AAI?$AAE?$AAR?$AA_?$AAH?$AAE?$AAA?$AAD?$AAE?$AAR?$AA?$AA@| [ DATA ] ; `string'
	EXPORT	|??_C@_1CE@LHGLAAEP@?$AAT?$AAA?$AAS?$AAK?$AAS?$AA_?$AAN?$AAE?$AAW?$AA_?$AAS?$AAU?$AAB?$AAJ?$AAE?$AAC?$AAT?$AA?$AA@| [ DATA ] ; `string'
	EXPORT	|??_C@_1CG@FFLCELDK@?$AAT?$AAA?$AAS?$AAK?$AAS?$AA_?$AAN?$AAE?$AAW?$AA_?$AAP?$AAR?$AAI?$AAO?$AAR?$AAI?$AAT?$AAY?$AA?$AA@| [ DATA ] ; `string'
	EXPORT	|??_C@_1CK@CCFELGIK@?$AAT?$AAA?$AAS?$AAK?$AAS?$AA_?$AAN?$AAE?$AAW?$AA_?$AAC?$AAA?$AAT?$AAE?$AAG?$AAO?$AAR?$AAI?$AAE?$AAS?$AA?$AA@| [ DATA ] ; `string'
	EXPORT	|??_C@_1CG@EIDHEGLN@?$AAT?$AAA?$AAS?$AAK?$AAS?$AA_?$AAN?$AAE?$AAW?$AA_?$AAD?$AAU?$AAE?$AA_?$AAD?$AAA?$AAT?$AAE?$AA?$AA@| [ DATA ] ; `string'
	EXPORT	|??_C@_1CG@EDFOOCB@?$AAT?$AAA?$AAS?$AAK?$AAS?$AA_?$AAN?$AAE?$AAW?$AA_?$AAR?$AAE?$AAM?$AAI?$AAN?$AAD?$AAE?$AAR?$AA?$AA@| [ DATA ] ; `string'
	EXPORT	|??_C@_1CA@KFNIFACC@?$AAT?$AAA?$AAS?$AAK?$AAS?$AA_?$AAN?$AAE?$AAW?$AA_?$AAN?$AAO?$AAT?$AAE?$AAS?$AA?$AA@| [ DATA ] ; `string'
	EXPORT	|??_C@_1CK@MDAOLLMJ@?$AAT?$AAA?$AAS?$AAK?$AAS?$AA_?$AAN?$AAE?$AAW?$AA_?$AAS?$AAT?$AAA?$AAR?$AAT?$AA_?$AAD?$AAA?$AAT?$AAE?$AA?$AA@| [ DATA ] ; `string'
	EXPORT	|??_C@_1CK@OHPGNNHF@?$AAT?$AAA?$AAS?$AAK?$AAS?$AA_?$AAN?$AAE?$AAW?$AA_?$AAR?$AAE?$AAC?$AAU?$AAR?$AAR?$AAE?$AAN?$AAC?$AAE?$AA?$AA@| [ DATA ] ; `string'
	EXPORT	|??_C@_1CI@CNKAHBDE@?$AAT?$AAA?$AAS?$AAK?$AAS?$AA_?$AAN?$AAE?$AAW?$AA_?$AAC?$AAO?$AAM?$AAP?$AAL?$AAE?$AAT?$AAE?$AAD?$AA?$AA@| [ DATA ] ; `string'
	EXPORT	|??_C@_1CG@CGEOOEBL@?$AAT?$AAA?$AAS?$AAK?$AAS?$AA_?$AAE?$AAD?$AAI?$AAT?$AA_?$AAS?$AAU?$AAB?$AAJ?$AAE?$AAC?$AAT?$AA?$AA@| [ DATA ] ; `string'
	EXPORT	|??_C@_1CI@CMACGECO@?$AAT?$AAA?$AAS?$AAK?$AAS?$AA_?$AAE?$AAD?$AAI?$AAT?$AA_?$AAP?$AAR?$AAI?$AAO?$AAR?$AAI?$AAT?$AAY?$AA?$AA@| [ DATA ] ; `string'
	EXPORT	|??_C@_1CM@DCCBALP@?$AAT?$AAA?$AAS?$AAK?$AAS?$AA_?$AAE?$AAD?$AAI?$AAT?$AA_?$AAC?$AAA?$AAT?$AAE?$AAG?$AAO?$AAR?$AAI?$AAE?$AAS?$AA?$AA@| [ DATA ] ; `string'
	EXPORT	|??_C@_1CI@DBIHGJKJ@?$AAT?$AAA?$AAS?$AAK?$AAS?$AA_?$AAE?$AAD?$AAI?$AAT?$AA_?$AAD?$AAU?$AAE?$AA_?$AAD?$AAA?$AAT?$AAE?$AA?$AA@| [ DATA ] ; `string'
	EXPORT	|??_C@_1CI@HNIFMBDF@?$AAT?$AAA?$AAS?$AAK?$AAS?$AA_?$AAE?$AAD?$AAI?$AAT?$AA_?$AAR?$AAE?$AAM?$AAI?$AAN?$AAD?$AAE?$AAR?$AA?$AA@| [ DATA ] ; `string'
	EXPORT	|??_C@_1CC@EHKAPMDD@?$AAT?$AAA?$AAS?$AAK?$AAS?$AA_?$AAE?$AAD?$AAI?$AAT?$AA_?$AAN?$AAO?$AAT?$AAE?$AAS?$AA?$AA@| [ DATA ] ; `string'
	EXPORT	|??_C@_1CM@OCHIBNPM@?$AAT?$AAA?$AAS?$AAK?$AAS?$AA_?$AAE?$AAD?$AAI?$AAT?$AA_?$AAS?$AAT?$AAA?$AAR?$AAT?$AA_?$AAD?$AAA?$AAT?$AAE?$AA?$AA@| [ DATA ] ; `string'
	EXPORT	|??_C@_1CM@MGIAHLEA@?$AAT?$AAA?$AAS?$AAK?$AAS?$AA_?$AAE?$AAD?$AAI?$AAT?$AA_?$AAR?$AAE?$AAC?$AAU?$AAR?$AAR?$AAE?$AAN?$AAC?$AAE?$AA?$AA@| [ DATA ] ; `string'
	EXPORT	|??_C@_1CK@KINPOCII@?$AAT?$AAA?$AAS?$AAK?$AAS?$AA_?$AAE?$AAD?$AAI?$AAT?$AA_?$AAC?$AAO?$AAM?$AAP?$AAL?$AAE?$AAT?$AAE?$AAD?$AA?$AA@| [ DATA ] ; `string'
	EXPORT	|??_C@_1BM@HJBGBKNG@?$AAT?$AAA?$AAS?$AAK?$AAS?$AA_?$AAL?$AAV?$AA_?$AAO?$AAP?$AAE?$AAN?$AA?$AA@| [ DATA ] ; `string'
	EXPORT	|??_C@_1CE@FOPLBGBA@?$AAT?$AAA?$AAS?$AAK?$AAS?$AA_?$AAL?$AAV?$AA_?$AAC?$AAO?$AAM?$AAP?$AAL?$AAE?$AAT?$AAE?$AA?$AA@| [ DATA ] ; `string'
	EXPORT	|??_C@_1CE@CAPLNPGF@?$AAT?$AAA?$AAS?$AAK?$AAS?$AA_?$AAS?$AAC?$AA_?$AAC?$AAO?$AAM?$AAP?$AAL?$AAE?$AAT?$AAE?$AA?$AA@| [ DATA ] ; `string'
	EXPORT	|??_C@_1CE@BBJOKFMB@?$AAT?$AAA?$AAS?$AAK?$AAS?$AA_?$AAL?$AAV?$AA_?$AAA?$AAC?$AAT?$AAI?$AAV?$AAA?$AAT?$AAE?$AA?$AA@| [ DATA ] ; `string'
	EXPORT	|??_C@_1CE@GPJOGMLE@?$AAT?$AAA?$AAS?$AAK?$AAS?$AA_?$AAS?$AAC?$AA_?$AAA?$AAC?$AAT?$AAI?$AAV?$AAA?$AAT?$AAE?$AA?$AA@| [ DATA ] ; `string'
	EXPORT	|??_C@_1CA@GGOGMINP@?$AAT?$AAA?$AAS?$AAK?$AAS?$AA_?$AAL?$AAV?$AA_?$AAD?$AAE?$AAL?$AAE?$AAT?$AAE?$AA?$AA@| [ DATA ] ; `string'
	EXPORT	|??_C@_1CA@DAOGCOCE@?$AAT?$AAA?$AAS?$AAK?$AAS?$AA_?$AAS?$AAC?$AA_?$AAD?$AAE?$AAL?$AAE?$AAT?$AAE?$AA?$AA@| [ DATA ] ; `string'
	EXPORT	|??_C@_1BM@NOKDMCEO@?$AAT?$AAA?$AAS?$AAK?$AAS?$AA_?$AAL?$AAV?$AA_?$AAE?$AAD?$AAI?$AAT?$AA?$AA@| [ DATA ] ; `string'
	EXPORT	|??_C@_1BM@FEHPMJOL@?$AAT?$AAA?$AAS?$AAK?$AAS?$AA_?$AAS?$AAC?$AA_?$AAE?$AAD?$AAI?$AAT?$AA?$AA@| [ DATA ] ; `string'
	EXPORT	|??_C@_1BM@LLELEIHE@?$AAT?$AAA?$AAS?$AAK?$AAS?$AA_?$AAS?$AAC?$AA_?$AAB?$AAE?$AAA?$AAM?$AA?$AA@| [ DATA ] ; `string'
	EXPORT	|??_C@_1DA@MLHFGJBF@?$AAT?$AAA?$AAS?$AAK?$AAS?$AA_?$AAL?$AAV?$AA_?$AAP?$AAO?$AAS?$AAT?$AAP?$AAO?$AAN?$AAE?$AA_?$AA1?$AA_?$AAD?$AAA?$AAY?$AA?$AA@| [ DATA ] ; `string'
	EXPORT	|??_C@_1DC@HDAJNNFA@?$AAT?$AAA?$AAS?$AAK?$AAS?$AA_?$AAL?$AAV?$AA_?$AAP?$AAO?$AAS?$AAT?$AAP?$AAO?$AAN?$AAE?$AA_?$AA1?$AA_?$AAW?$AAE?$AAE?$AAK?$AA?$AA@| [ DATA ] ; `string'
	EXPORT	|??_C@_1DM@BHBJAPKD@?$AAT?$AAA?$AAS?$AAK?$AAS?$AA_?$AAL?$AAV?$AA_?$AAP?$AAO?$AAS?$AAT?$AAP?$AAO?$AAN?$AAE?$AA_?$AAS?$AAE?$AAL?$AAE?$AAC?$AAT?$AA_?$AAD?$AAA?$AAT?$AAE?$AA?$AA@| [ DATA ] ; `string'
	EXPORT	|??_C@_1DE@EGCJGDAA@?$AAT?$AAA?$AAS?$AAK?$AAS?$AA_?$AAL?$AAV?$AA_?$AAP?$AAO?$AAS?$AAT?$AAP?$AAO?$AAN?$AAE?$AA_?$AAN?$AAO?$AA_?$AAD?$AAA?$AAT?$AAE?$AA?$AA@| [ DATA ] ; `string'
	EXPORT	|??_C@_1CK@GEBPIBEH@?$AAT?$AAA?$AAS?$AAK?$AAS?$AA_?$AAL?$AAV?$AA_?$AAV?$AAI?$AAE?$AAW?$AA_?$AAA?$AAC?$AAT?$AAI?$AAV?$AAE?$AA?$AA@| [ DATA ] ; `string'
	EXPORT	|??_C@_1DA@IAFANHDN@?$AAT?$AAA?$AAS?$AAK?$AAS?$AA_?$AAL?$AAV?$AA_?$AAV?$AAI?$AAE?$AAW?$AA_?$AAC?$AAO?$AAM?$AAP?$AAL?$AAE?$AAT?$AAE?$AAD?$AA?$AA@| [ DATA ] ; `string'
	EXPORT	|??_C@_1CI@BJJMKNNF@?$AAT?$AAA?$AAS?$AAK?$AAS?$AA_?$AAL?$AAV?$AA_?$AAC?$AAA?$AAT?$AAE?$AAG?$AAO?$AAR?$AAI?$AAE?$AAS?$AA?$AA@| [ DATA ] ; `string'
	EXPORT	|??_C@_1CK@JJHDJDJ@?$AAT?$AAA?$AAS?$AAK?$AAS?$AA_?$AAL?$AAV?$AA_?$AAS?$AAM?$AAA?$AAR?$AAT?$AAS?$AAE?$AAA?$AAR?$AAC?$AAH?$AA?$AA@| [ DATA ] ; `string'
	EXPORT	|??_C@_1BG@JOKFOLAN@?$AAT?$AAA?$AAS?$AAK?$AAS?$AA_?$AAE?$AAD?$AAI?$AAT?$AA?$AA@| [ DATA ] ; `string'
	EXPORT	|??_C@_1EC@HHDMHBB@?$AAT?$AAA?$AAS?$AAK?$AAS?$AA_?$AAC?$AAO?$AAM?$AAP?$AAL?$AAE?$AAT?$AAE?$AAD?$AA_?$AAY?$AAE?$AAS?$AAT?$AAE?$AAR?$AAD?$AAA?$AAY?$AA_?$AAH?$AAE?$AAA?$AAD?$AAE?$AAR@| [ DATA ] ; `string'
	EXPORT	|??_C@_1EE@FGBLIKCL@?$AAT?$AAA?$AAS?$AAK?$AAS?$AA_?$AAC?$AAO?$AAM?$AAP?$AAL?$AAE?$AAT?$AAE?$AAD?$AA_?$AAT?$AAH?$AAI?$AAS?$AA_?$AAM?$AAO?$AAN?$AAT?$AAH?$AA_?$AAH?$AAE?$AAA?$AAD?$AAE@| [ DATA ] ; `string'
	EXPORT	|??_C@_1EE@GPLBHJAO@?$AAT?$AAA?$AAS?$AAK?$AAS?$AA_?$AAC?$AAO?$AAM?$AAP?$AAL?$AAE?$AAT?$AAE?$AAD?$AA_?$AAL?$AAA?$AAS?$AAT?$AA_?$AAM?$AAO?$AAN?$AAT?$AAH?$AA_?$AAH?$AAE?$AAA?$AAD?$AAE@| [ DATA ] ; `string'
	EXPORT	|??_C@_1DM@PBGOBGOB@?$AAD?$AAA?$AAT?$AAA?$AAC?$AAC?$AAE?$AAS?$AAS?$AA_?$AAT?$AAA?$AAS?$AAK?$AAS?$AA_?$AAA?$AAC?$AAT?$AAI?$AAV?$AAE?$AA_?$AAI?$AAN?$AAV?$AAO?$AAK?$AAE?$AA?$AA@| [ DATA ] ; `string'
	EXPORT	|??_C@_1EC@GLAHOBD@?$AAD?$AAA?$AAT?$AAA?$AAC?$AAC?$AAE?$AAS?$AAS?$AA_?$AAT?$AAA?$AAS?$AAK?$AAS?$AA_?$AAC?$AAO?$AAM?$AAP?$AAL?$AAE?$AAT?$AAE?$AAD?$AA_?$AAI?$AAN?$AAV?$AAO?$AAK?$AAE@| [ DATA ] ; `string'
	EXPORT	|??_C@_1EE@LPKPPMNC@?$AAD?$AAA?$AAT?$AAA?$AAC?$AAC?$AAE?$AAS?$AAS?$AA_?$AAC?$AAA?$AAL?$AAE?$AAN?$AAD?$AAA?$AAR?$AA_?$AAC?$AAU?$AAR?$AAR?$AAE?$AAN?$AAT?$AA_?$AAI?$AAN?$AAV?$AAO?$AAK@| [ DATA ] ; `string'
	EXPORT	|??_C@_1DO@FALLOOOC@?$AAD?$AAA?$AAT?$AAA?$AAC?$AAC?$AAE?$AAS?$AAS?$AA_?$AAC?$AAA?$AAL?$AAE?$AAN?$AAD?$AAA?$AAR?$AA_?$AAP?$AAA?$AAS?$AAT?$AA_?$AAI?$AAN?$AAV?$AAO?$AAK?$AAE?$AA?$AA@| [ DATA ] ; `string'
	EXPORT	|??_C@_1EG@OLBPBBHJ@?$AAD?$AAA?$AAT?$AAA?$AAC?$AAC?$AAE?$AAS?$AAS?$AA_?$AAC?$AAO?$AAN?$AAT?$AAA?$AAC?$AAT?$AAS?$AA_?$AAO?$AAN?$AAF?$AAI?$AAL?$AAE?$AAA?$AAS?$AA_?$AAI?$AAN?$AAV?$AAO@| [ DATA ] ; `string'
	EXPORT	|??_C@_1EG@HGBMBPFE@?$AAD?$AAA?$AAT?$AAA?$AAC?$AAC?$AAE?$AAS?$AAS?$AA_?$AAC?$AAO?$AAN?$AAT?$AAA?$AAC?$AAT?$AAS?$AA_?$AAO?$AAN?$AAN?$AAU?$AAM?$AAB?$AAE?$AAR?$AA_?$AAI?$AAN?$AAV?$AAO@| [ DATA ] ; `string'
	EXPORT	|??_C@_1EI@BCCLLPEC@?$AAD?$AAA?$AAT?$AAA?$AAC?$AAC?$AAE?$AAS?$AAS?$AA_?$AAC?$AAO?$AAN?$AAT?$AAA?$AAC?$AAT?$AAS?$AA_?$AAG?$AAA?$AAL?$AAS?$AAE?$AAA?$AAR?$AAC?$AAH?$AA_?$AAI?$AAN?$AAV@| [ DATA ] ; `string'
	EXPORT	|??_C@_1DE@OCOLOCGC@?$AAD?$AAA?$AAT?$AAA?$AAC?$AAC?$AAE?$AAS?$AAS?$AA_?$AAC?$AAO?$AAN?$AAT?$AAA?$AAC?$AAT?$AAS?$AA_?$AAI?$AAN?$AAV?$AAO?$AAK?$AAE?$AA?$AA@| [ DATA ] ; `string'
	EXPORT	|??_C@_1DK@KNLFEDIC@?$AAD?$AAA?$AAT?$AAA?$AAC?$AAC?$AAE?$AAS?$AAS?$AA_?$AAC?$AAA?$AAL?$AAL?$AAH?$AAI?$AAS?$AAT?$AAO?$AAR?$AAY?$AA_?$AAI?$AAN?$AAV?$AAO?$AAK?$AAE?$AA?$AA@| [ DATA ] ; `string'
	EXPORT	|??_C@_1BK@FDKPGLJN@?$AAM?$AAU?$AAL?$AAT?$AAI?$AA_?$AAH?$AAO?$AAM?$AAI?$AAN?$AAG?$AA?$AA@| [ DATA ] ; `string'
	EXPORT	|??_C@_1CK@HGOIMNBK@?$AAS?$AAA?$AAV?$AAE?$AA_?$AAD?$AAE?$AAV?$AAI?$AAC?$AAE?$AA_?$AAP?$AAA?$AAS?$AAS?$AAW?$AAO?$AAR?$AAD?$AA?$AA@| [ DATA ] ; `string'
	EXPORT	|??_C@_19BCKJFNGN@?$AAD?$AAT?$AAP?$AAT?$AA?$AA@| [ DATA ] ; `string'
	EXPORT	|??_C@_1CO@HNBKAOIM@?$AAS?$AAE?$AAR?$AAI?$AAA?$AAL?$AA_?$AAC?$AAO?$AAN?$AAN?$AAE?$AAC?$AAT?$AAI?$AAO?$AAN?$AA_?$AAT?$AAY?$AAP?$AAE?$AA?$AA@| [ DATA ] ; `string'
	EXPORT	|??_C@_1DC@CDEPHFGE@?$AAO?$AAS?$AA_?$AAM?$AAA?$AAJ?$AAO?$AAR?$AA_?$AAV?$AAE?$AAR?$AAS?$AAI?$AAO?$AAN?$AA_?$AAD?$AAE?$AAS?$AAK?$AAT?$AAO?$AAP?$AA?$AA@| [ DATA ] ; `string'
	EXPORT	|??_C@_1DA@HEKKDKGA@?$AAO?$AAS?$AA_?$AAM?$AAA?$AAJ?$AAO?$AAR?$AA_?$AAV?$AAE?$AAR?$AAS?$AAI?$AAO?$AAN?$AA_?$AAD?$AAE?$AAV?$AAI?$AAC?$AAE?$AA?$AA@| [ DATA ] ; `string'
	EXPORT	|??_C@_1DC@PKFFACAM@?$AAO?$AAS?$AA_?$AAM?$AAI?$AAN?$AAO?$AAR?$AA_?$AAV?$AAE?$AAR?$AAS?$AAI?$AAO?$AAN?$AA_?$AAD?$AAE?$AAS?$AAK?$AAT?$AAO?$AAP?$AA?$AA@| [ DATA ] ; `string'
	EXPORT	|??_C@_1DA@FFGJEGNE@?$AAO?$AAS?$AA_?$AAM?$AAI?$AAN?$AAO?$AAR?$AA_?$AAV?$AAE?$AAR?$AAS?$AAI?$AAO?$AAN?$AA_?$AAD?$AAE?$AAV?$AAI?$AAC?$AAE?$AA?$AA@| [ DATA ] ; `string'
	EXPORT	|??_C@_1CC@MJEJNCFP@?$AAN?$AAU?$AAM?$AA_?$AAC?$AAO?$AAN?$AAN?$AA_?$AAA?$AAT?$AAT?$AAE?$AAM?$AAP?$AAT?$AA?$AA@| [ DATA ] ; `string'
	EXPORT	|??_C@_1CC@IIPJANEC@?$AAN?$AAU?$AAM?$AA_?$AAC?$AAO?$AAN?$AAN?$AA_?$AAS?$AAU?$AAC?$AAC?$AAE?$AAS?$AAS?$AA?$AA@| [ DATA ] ; `string'
	EXPORT	|??_C@_1BO@DKCOFGIB@?$AAN?$AAU?$AAM?$AA_?$AAC?$AAO?$AAN?$AAN?$AA_?$AAE?$AAR?$AAR?$AAO?$AAR?$AA?$AA@| [ DATA ] ; `string'
	EXPORT	|??_C@_1BO@KLANIPEA@?$AAN?$AAU?$AAM?$AA_?$AAC?$AAO?$AAN?$AAN?$AA_?$AAR?$AAN?$AAD?$AAI?$AAS?$AA?$AA@| [ DATA ] ; `string'
	EXPORT	|??_C@_1CA@NEIPIKHL@?$AAN?$AAU?$AAM?$AA_?$AAC?$AAO?$AAN?$AAN?$AA_?$AAS?$AAE?$AAR?$AAI?$AAA?$AAL?$AA?$AA@| [ DATA ] ; `string'
	EXPORT	|??_C@_1BI@BCFJJBGD@?$AAN?$AAU?$AAM?$AA_?$AAC?$AAO?$AAN?$AAN?$AA_?$AAB?$AAT?$AA?$AA@| [ DATA ] ; `string'
	EXPORT	|??_C@_1EO@NBGMHNAO@?$AAA?$AAL?$AAL?$AAO?$AAW?$AA_?$AAU?$AAS?$AAB?$AA_?$AAC?$AAO?$AAN?$AAN?$AA_?$AAA?$AAN?$AAD?$AA_?$AAS?$AAY?$AAS?$AA_?$AAT?$AAR?$AAA?$AAY?$AA_?$AAI?$AAC?$AAO?$AAN@| [ DATA ] ; `string'
	EXPORT	|??_C@_1DG@PGEIKNIG@?$AAF?$AAI?$AAL?$AAE?$AAP?$AAI?$AAC?$AAK?$AAE?$AAR?$AA_?$AAS?$AAA?$AAV?$AAE?$AAD?$AAT?$AAO?$AA_?$AAS?$AAT?$AAO?$AAR?$AAA?$AAG?$AAE?$AA?$AA@| [ DATA ] ; `string'
	EXPORT	|??_C@_1DE@FLFIPFHB@?$AAF?$AAI?$AAL?$AAE?$AAP?$AAI?$AAC?$AAK?$AAE?$AAR?$AA_?$AAS?$AAA?$AAV?$AAE?$AAD?$AAT?$AAO?$AA_?$AAD?$AAE?$AAV?$AAI?$AAC?$AAE?$AA?$AA@| [ DATA ] ; `string'
	EXPORT	|??_C@_1DM@OBJAKDND@?$AAF?$AAI?$AAL?$AAE?$AAP?$AAI?$AAC?$AAK?$AAE?$AAR?$AA_?$AAO?$AAP?$AAE?$AAN?$AAE?$AAD?$AAF?$AAR?$AAO?$AAM?$AA_?$AAS?$AAT?$AAO?$AAR?$AAA?$AAG?$AAE?$AA?$AA@| [ DATA ] ; `string'
	EXPORT	|??_C@_1DK@FLDJIKKH@?$AAF?$AAI?$AAL?$AAE?$AAP?$AAI?$AAC?$AAK?$AAE?$AAR?$AA_?$AAO?$AAP?$AAE?$AAN?$AAE?$AAD?$AAF?$AAR?$AAO?$AAM?$AA_?$AAD?$AAE?$AAV?$AAI?$AAC?$AAE?$AA?$AA@| [ DATA ] ; `string'
	EXPORT	|??_C@_1DE@GLCLNCB@?$AAF?$AAI?$AAL?$AAE?$AAP?$AAI?$AAC?$AAK?$AAE?$AAR?$AA_?$AAO?$AAV?$AAE?$AAR?$AAW?$AAR?$AAI?$AAT?$AAE?$AA_?$AAF?$AAI?$AAL?$AAE?$AA?$AA@| [ DATA ] ; `string'
	EXPORT	|??_C@_1DM@CJBNCKFJ@?$AAR?$AAE?$AAG?$AAI?$AAO?$AAN?$AAA?$AAL?$AAC?$AAP?$AAL?$AA_?$AAC?$AAU?$AAS?$AAT?$AAO?$AAM?$AAI?$AAZ?$AAE?$AA_?$AAN?$AAU?$AAM?$AAB?$AAE?$AAR?$AAS?$AA?$AA@| [ DATA ] ; `string'
	EXPORT	|??_C@_1DO@OBJAMKIM@?$AAR?$AAE?$AAG?$AAI?$AAO?$AAN?$AAA?$AAL?$AAC?$AAP?$AAL?$AA_?$AAC?$AAU?$AAS?$AAT?$AAO?$AAM?$AAI?$AAZ?$AAE?$AA_?$AAC?$AAU?$AAR?$AAR?$AAE?$AAN?$AAC?$AAY?$AA?$AA@| [ DATA ] ; `string'
	EXPORT	|??_C@_1DG@KNAIPFAN@?$AAR?$AAE?$AAG?$AAI?$AAO?$AAN?$AAA?$AAL?$AAC?$AAP?$AAL?$AA_?$AAC?$AAU?$AAS?$AAT?$AAO?$AAM?$AAI?$AAZ?$AAE?$AA_?$AAD?$AAA?$AAT?$AAE?$AA?$AA@| [ DATA ] ; `string'
	EXPORT	|??_C@_1DG@HNJKDMAD@?$AAR?$AAE?$AAG?$AAI?$AAO?$AAN?$AAA?$AAL?$AAC?$AAP?$AAL?$AA_?$AAC?$AAU?$AAS?$AAT?$AAO?$AAM?$AAI?$AAZ?$AAE?$AA_?$AAT?$AAI?$AAM?$AAE?$AA?$AA@| [ DATA ] ; `string'
	EXPORT	|??_C@_1CO@MIOJOACJ@?$AAN?$AAU?$AAM?$AA_?$AAC?$AAO?$AAN?$AAN?$AAE?$AAC?$AAT?$AAI?$AAO?$AAN?$AA_?$AAA?$AAT?$AAT?$AAE?$AAM?$AAP?$AAT?$AA?$AA@| [ DATA ] ; `string'
	EXPORT	|??_C@_1CE@HPHBCPDI@?$AAN?$AAU?$AAM?$AA_?$AAC?$AAO?$AAN?$AAN?$AAE?$AAC?$AAT?$AAI?$AAO?$AAN?$AA_?$AAB?$AAT?$AA?$AA@| [ DATA ] ; `string'
	EXPORT	|??_C@_1CK@NGBJMHGC@?$AAN?$AAU?$AAM?$AA_?$AAC?$AAO?$AAN?$AAN?$AAE?$AAC?$AAT?$AAI?$AAO?$AAN?$AA_?$AAE?$AAR?$AAR?$AAO?$AAR?$AA?$AA@| [ DATA ] ; `string'
	EXPORT	|??_C@_1CK@EHDKBOKD@?$AAN?$AAU?$AAM?$AA_?$AAC?$AAO?$AAN?$AAN?$AAE?$AAC?$AAT?$AAI?$AAO?$AAN?$AA_?$AAR?$AAN?$AAD?$AAI?$AAS?$AA?$AA@| [ DATA ] ; `string'
	EXPORT	|??_C@_1CM@CGNEGFLB@?$AAN?$AAU?$AAM?$AA_?$AAC?$AAO?$AAN?$AAN?$AAE?$AAC?$AAT?$AAI?$AAO?$AAN?$AA_?$AAS?$AAE?$AAR?$AAI?$AAA?$AAL?$AA?$AA@| [ DATA ] ; `string'
	EXPORT	|??_C@_1CO@IJFJDPDE@?$AAN?$AAU?$AAM?$AA_?$AAC?$AAO?$AAN?$AAN?$AAE?$AAC?$AAT?$AAI?$AAO?$AAN?$AA_?$AAS?$AAU?$AAC?$AAC?$AAE?$AAS?$AAS?$AA?$AA@| [ DATA ] ; `string'
	EXPORT	|??_C@_1CI@LKPLCKGL@?$AAS?$AAY?$AAN?$AAC?$AA_?$AAS?$AAT?$AAA?$AAT?$AAS?$AA_?$AAS?$AAM?$AAS?$AA_?$AAA?$AAD?$AAD?$AAS?$AA?$AA@| [ DATA ] ; `string'
	EXPORT	|??_C@_1DA@BCJNPGDO@?$AAM?$AAS?$AAG?$AA_?$AAN?$AAU?$AAM?$AAB?$AAE?$AAR?$AA_?$AAO?$AAF?$AA_?$AAA?$AAC?$AAC?$AAO?$AAU?$AAN?$AAT?$AAS?$AA2?$AA?$AA@| [ DATA ] ; `string'
	EXPORT	|??_C@_1CO@JKGNHEGA@?$AAM?$AAS?$AAG?$AA_?$AAA?$AAC?$AAC?$AAO?$AAU?$AAN?$AAT?$AAI?$AAN?$AAF?$AAO?$AA_?$AAS?$AAT?$AAR?$AAE?$AAA?$AAM?$AA?$AA@| [ DATA ] ; `string'
	EXPORT	|??_C@_1CO@DILFOHEN@?$AAM?$AAS?$AAG?$AA_?$AAE?$AAM?$AAA?$AAI?$AAL?$AA_?$AAS?$AAE?$AAT?$AAU?$AAP?$AA_?$AAW?$AAI?$AAZ?$AAA?$AAR?$AAD?$AA?$AA@| [ DATA ] ; `string'
	EXPORT	|??_C@_1BA@PBHOBKF@?$AAU?$AAD?$AAE?$AAV?$AAI?$AAD?$AA1?$AA?$AA@| [ DATA ] ; `string'
	EXPORT	|??_C@_1BA@BNKCEOEL@?$AAU?$AAD?$AAE?$AAV?$AAI?$AAD?$AA2?$AA?$AA@| [ DATA ] ; `string'
	EXPORT	|??_C@_1BA@KFBOCJCO@?$AAU?$AAD?$AAE?$AAV?$AAI?$AAD?$AA3?$AA?$AA@| [ DATA ] ; `string'
	EXPORT	|??_C@_1BA@DIMJBBJH@?$AAU?$AAD?$AAE?$AAV?$AAI?$AAD?$AA4?$AA?$AA@| [ DATA ] ; `string'
	EXPORT	|??_C@_1DK@HBGKJICK@?$AAC?$AAO?$AAN?$AAT?$AAA?$AAC?$AAT?$AAS?$AA_?$AAG?$AAA?$AAL?$AAL?$AAV?$AA_?$AAM?$AAE?$AAN?$AAU?$AA_?$AAC?$AAO?$AAM?$AAM?$AAH?$AAO?$AAM?$AAE?$AA?$AA@| [ DATA ] ; `string'
	EXPORT	|??_C@_1DG@JFKFBFEI@?$AAC?$AAO?$AAN?$AAT?$AAA?$AAC?$AAT?$AAS?$AA_?$AAG?$AAA?$AAL?$AAL?$AAV?$AA_?$AAM?$AAE?$AAN?$AAU?$AA_?$AAS?$AAK?$AAC?$AAO?$AAM?$AAM?$AA?$AA@| [ DATA ] ; `string'
	EXPORT	|??_C@_1BE@CAAGCEKK@?$AAA?$AAP?$AAP?$AA_?$AAU?$AAS?$AAA?$AAG?$AAE?$AA?$AA@| [ DATA ] ; `string'
	EXPORT	|??_C@_1BM@IBMCBJEF@?$AAM?$AAE?$AAN?$AAU?$AA_?$AAS?$AAE?$AAQ?$AAU?$AAE?$AAN?$AAC?$AAE?$AA?$AA@| [ DATA ] ; `string'
	EXPORT	|??_C@_1CC@IGGJPJP@?$AAM?$AAA?$AAX?$AA_?$AAP?$AAR?$AAO?$AAC?$AAE?$AAS?$AAS?$AAC?$AAO?$AAU?$AAN?$AAT?$AA?$AA@| [ DATA ] ; `string'
	EXPORT	|??_C@_1CA@EFIOLADG@?$AAM?$AAA?$AAX?$AA_?$AAM?$AAO?$AAD?$AAU?$AAL?$AAE?$AAC?$AAO?$AAU?$AAN?$AAT?$AA?$AA@| [ DATA ] ; `string'
	EXPORT	|??_C@_1CE@FBFABEHF@?$AAM?$AAA?$AAX?$AA_?$AAK?$AAE?$AAR?$AAN?$AAE?$AAL?$AAM?$AAO?$AAD?$AAU?$AAL?$AAE?$AAS?$AA?$AA@| [ DATA ] ; `string'
	EXPORT	|??_C@_1BA@JMMIFHEH@?$AAO?$AAE?$AAM?$AAI?$AAN?$AAF?$AAO?$AA?$AA@| [ DATA ] ; `string'
	EXPORT	|??_C@_1CK@HJMHEFK@?$AAP?$AAL?$AAA?$AAT?$AAF?$AAO?$AAR?$AAM?$AAM?$AAA?$AAN?$AAU?$AAF?$AAA?$AAC?$AAT?$AAU?$AAR?$AAE?$AAR?$AA?$AA@| [ DATA ] ; `string'
	EXPORT	|??_C@_1BK@ODHNCCHJ@?$AAP?$AAL?$AAA?$AAT?$AAF?$AAO?$AAR?$AAM?$AAN?$AAA?$AAM?$AAE?$AA?$AA@| [ DATA ] ; `string'
	EXPORT	|??_C@_1CI@PAMNAALF@?$AAO?$AAS?$AA_?$AAB?$AAU?$AAI?$AAL?$AAD?$AA_?$AAN?$AAU?$AAM?$AA_?$AAD?$AAE?$AAV?$AAI?$AAC?$AAE?$AA?$AA@| [ DATA ] ; `string'
	EXPORT	|??_C@_1CI@PGMDNILG@?$AAR?$AAA?$AAP?$AAI?$AA_?$AAV?$AAE?$AAR?$AAS?$AAI?$AAO?$AAN?$AA_?$AAD?$AAE?$AAV?$AAI?$AAC?$AAE?$AA?$AA@| [ DATA ] ; `string'
	EXPORT	|??_C@_1BI@PLJNBLLH@?$AAW?$AAA?$AAT?$AAS?$AAO?$AAN?$AA_?$AAM?$AAT?$AAT?$AAF?$AA?$AA@| [ DATA ] ; `string'
	EXPORT	|??_C@_1EO@KOKFKJFD@?$AAC?$AAO?$AAN?$AAT?$AAA?$AAC?$AAT?$AAS?$AAU?$AAM?$AAM?$AAA?$AAR?$AAY?$AAC?$AAA?$AAR?$AAD?$AA_?$AAR?$AAE?$AAL?$AAA?$AAT?$AAE?$AAD?$AAE?$AAM?$AAA?$AAI?$AAL?$AA_@| [ DATA ] ; `string'
	EXPORT	|??_C@_1FE@BLNGKNBK@?$AAC?$AAO?$AAN?$AAT?$AAA?$AAC?$AAT?$AAS?$AAU?$AAM?$AAM?$AAA?$AAR?$AAY?$AAC?$AAA?$AAR?$AAD?$AA_?$AAR?$AAE?$AAL?$AAA?$AAT?$AAE?$AAD?$AAM?$AAE?$AAS?$AAS?$AAA?$AAG@| [ DATA ] ; `string'
	EXPORT	|??_C@_1FE@GLFOABFA@?$AAC?$AAO?$AAN?$AAT?$AAA?$AAC?$AAT?$AAS?$AAU?$AAM?$AAM?$AAA?$AAR?$AAY?$AAC?$AAA?$AAR?$AAD?$AA_?$AAR?$AAE?$AAL?$AAA?$AAT?$AAE?$AAD?$AAM?$AAE?$AAE?$AAT?$AAI?$AAN@| [ DATA ] ; `string'
	EXPORT	|??_C@_1EM@OEANIFID@?$AAC?$AAO?$AAN?$AAT?$AAA?$AAC?$AAT?$AAS?$AAU?$AAM?$AAM?$AAA?$AAR?$AAY?$AAC?$AAA?$AAR?$AAD?$AA_?$AAC?$AAA?$AAL?$AAL?$AAH?$AAI?$AAS?$AAT?$AAO?$AAR?$AAY?$AA_?$AAI@| [ DATA ] ; `string'
	EXPORT	|??_C@_1DI@HMNLNKO@?$AAC?$AAO?$AAN?$AAT?$AAA?$AAC?$AAT?$AAS?$AA_?$AAD?$AAE?$AAV?$AAI?$AAC?$AAE?$AAC?$AAO?$AAN?$AAT?$AAA?$AAC?$AAT?$AA_?$AAO?$AAP?$AAE?$AAN?$AA?$AA@| [ DATA ] ; `string'
	EXPORT	|??_C@_1DC@JLHHGJOL@?$AAC?$AAO?$AAN?$AAT?$AAA?$AAC?$AAT?$AAS?$AA_?$AAG?$AAA?$AAL?$AAC?$AAO?$AAN?$AAT?$AAA?$AAC?$AAT?$AA_?$AAO?$AAP?$AAE?$AAN?$AA?$AA@| [ DATA ] ; `string'
	EXPORT	|??_C@_1DC@MOGHPODE@?$AAC?$AAO?$AAN?$AAT?$AAA?$AAC?$AAT?$AAS?$AA_?$AAS?$AAI?$AAM?$AAC?$AAO?$AAN?$AAT?$AAA?$AAC?$AAT?$AA_?$AAO?$AAP?$AAE?$AAN?$AA?$AA@| [ DATA ] ; `string'
	EXPORT	|??_C@_1DE@DAFHOMKA@?$AAC?$AAO?$AAN?$AAT?$AAA?$AAC?$AAT?$AAS?$AA_?$AAT?$AAE?$AAM?$AAP?$AAC?$AAO?$AAN?$AAT?$AAA?$AAC?$AAT?$AA_?$AAO?$AAP?$AAE?$AAN?$AA?$AA@| [ DATA ] ; `string'
	EXPORT	|??_C@_1DA@MGODNOCH@?$AAH?$AAO?$AAM?$AAE?$AAS?$AAC?$AAR?$AAE?$AAE?$AAN?$AA_?$AAC?$AAL?$AAO?$AAC?$AAK?$AA_?$AAA?$AAC?$AAT?$AAI?$AAO?$AAN?$AA?$AA@| [ DATA ] ; `string'
	EXPORT	|??_C@_1CK@FGBNHCK@?$AAH?$AAO?$AAM?$AAE?$AAS?$AAC?$AAR?$AAE?$AAE?$AAN?$AA_?$AAC?$AAL?$AAO?$AAC?$AAK?$AA_?$AAL?$AAS?$AAK?$AA?$AA@| [ DATA ] ; `string'
	EXPORT	|??_C@_1DG@FKBMKMPH@?$AAH?$AAO?$AAM?$AAE?$AAS?$AAC?$AAR?$AAE?$AAE?$AAN?$AA_?$AAC?$AAA?$AAL?$AAE?$AAN?$AAD?$AAA?$AAR?$AA_?$AAA?$AAC?$AAT?$AAI?$AAO?$AAN?$AA?$AA@| [ DATA ] ; `string'
	EXPORT	|??_C@_1EA@GKOKDFJF@?$AAH?$AAO?$AAM?$AAE?$AAS?$AAC?$AAR?$AAE?$AAE?$AAN?$AA_?$AAN?$AAO?$AAT?$AAI?$AAF?$AAI?$AAC?$AAA?$AAT?$AAI?$AAO?$AAN?$AAS?$AA_?$AAA?$AAC?$AAT?$AAI?$AAO?$AAN?$AA?$AA@| [ DATA ] ; `string'
	EXPORT	|??_C@_1DK@MHNIALGN@?$AAH?$AAO?$AAM?$AAE?$AAS?$AAC?$AAR?$AAE?$AAE?$AAN?$AA_?$AAN?$AAO?$AAT?$AAI?$AAF?$AAI?$AAC?$AAA?$AAT?$AAI?$AAO?$AAN?$AAS?$AA_?$AAL?$AAS?$AAK?$AA?$AA@| [ DATA ] ; `string'
	EXPORT	|??_C@_1DA@CEEPNEOA@?$AAS?$AAE?$AAT?$AAT?$AAI?$AAN?$AAG?$AAS?$AA_?$AAP?$AAR?$AAO?$AAF?$AAI?$AAL?$AAE?$AA_?$AAI?$AAN?$AAV?$AAO?$AAK?$AAE?$AA?$AA@| [ DATA ] ; `string'
	EXPORT	|??_C@_1DE@LHPOHMMA@?$AAS?$AAE?$AAT?$AAT?$AAI?$AAN?$AAG?$AAS?$AA_?$AAB?$AAL?$AAU?$AAE?$AAT?$AAO?$AAO?$AAT?$AAH?$AA_?$AAI?$AAN?$AAV?$AAO?$AAK?$AAE?$AA?$AA@| [ DATA ] ; `string'
	EXPORT	|??_C@_1DC@GMKBIMKB@?$AAS?$AAE?$AAT?$AAT?$AAI?$AAN?$AAG?$AAS?$AA_?$AAR?$AAI?$AAN?$AAG?$AAT?$AAO?$AAN?$AAE?$AA_?$AAI?$AAN?$AAV?$AAO?$AAK?$AAE?$AA?$AA@| [ DATA ] ; `string'
	EXPORT	|??_C@_1DI@KKEFNHBD@?$AAS?$AAE?$AAT?$AAT?$AAI?$AAN?$AAG?$AAS?$AA_?$AAV?$AAI?$AAS?$AAU?$AAA?$AAL?$AAT?$AAH?$AAE?$AAM?$AAE?$AA_?$AAI?$AAN?$AAV?$AAO?$AAK?$AAE?$AA?$AA@| [ DATA ] ; `string'
	EXPORT	|??_C@_1DG@EMKNHHKK@?$AAS?$AAE?$AAT?$AAT?$AAI?$AAN?$AAG?$AAS?$AA_?$AAF?$AAL?$AAI?$AAG?$AAH?$AAT?$AAM?$AAO?$AAD?$AAE?$AA_?$AAI?$AAN?$AAV?$AAO?$AAK?$AAE?$AA?$AA@| [ DATA ] ; `string'
	EXPORT	|??_C@_1DI@DKGGLCPO@?$AAS?$AAE?$AAT?$AAT?$AAI?$AAN?$AAG?$AAS?$AA_?$AAC?$AAO?$AAN?$AAN?$AAE?$AAC?$AAT?$AAI?$AAO?$AAN?$AAS?$AA_?$AAI?$AAN?$AAV?$AAO?$AAK?$AAE?$AA?$AA@| [ DATA ] ; `string'
	EXPORT	|??_C@_1DE@ONKPOHPE@?$AAC?$AAO?$AAN?$AAT?$AAA?$AAC?$AAT?$AAS?$AA_?$AAS?$AAP?$AAE?$AAE?$AAD?$AAD?$AAI?$AAA?$AAL?$AA_?$AAI?$AAN?$AAV?$AAO?$AAK?$AAE?$AA?$AA@| [ DATA ] ; `string'
	EXPORT	|??_C@_1CM@IAEJCOAN@?$AAC?$AAO?$AAN?$AAT?$AAA?$AAC?$AAT?$AAS?$AA_?$AAT?$AAO?$AAT?$AAA?$AAL?$AA_?$AAS?$AAT?$AAO?$AAR?$AAE?$AAS?$AA?$AA@| [ DATA ] ; `string'
	EXPORT	|??_C@_1CM@LAGIHKAI@?$AAO?$AAF?$AAF?$AAI?$AAC?$AAE?$AAM?$AAO?$AAB?$AAI?$AAL?$AAE?$AA_?$AAW?$AAO?$AAR?$AAD?$AA_?$AAT?$AAO?$AAC?$AA?$AA@| [ DATA ] ; `string'
	EXPORT	|??_C@_1DM@MOGCMGEI@?$AAO?$AAF?$AAF?$AAI?$AAC?$AAE?$AAM?$AAO?$AAB?$AAI?$AAL?$AAE?$AA_?$AAP?$AAP?$AAT?$AA_?$AAP?$AAR?$AAI?$AAN?$AAT?$AAE?$AAR?$AA_?$AAT?$AAY?$AAP?$AAE?$AA?$AA@| [ DATA ] ; `string'
	EXPORT	|??_C@_1DM@HBOOGIFA@?$AAO?$AAF?$AAF?$AAI?$AAC?$AAE?$AAM?$AAO?$AAB?$AAI?$AAL?$AAE?$AA_?$AAP?$AAP?$AAT?$AA_?$AAP?$AAR?$AAI?$AAN?$AAT?$AA_?$AAC?$AAo?$AAp?$AAi?$AAe?$AAs?$AA?$AA@| [ DATA ] ; `string'
	EXPORT	|??_C@_1EK@CBNEJDMF@?$AAO?$AAF?$AAF?$AAI?$AAC?$AAE?$AAM?$AAO?$AAB?$AAI?$AAL?$AAE?$AA_?$AAP?$AAP?$AAT?$AA_?$AAC?$AAL?$AAI?$AAC?$AAK?$AAE?$AAR?$AA_?$AAO?$AAU?$AAT?$AA_?$AAO?$AAF?$AA_@| [ DATA ] ; `string'
	EXPORT	|??_C@_1EI@PFPCOCPM@?$AAO?$AAF?$AAF?$AAI?$AAC?$AAE?$AAM?$AAO?$AAB?$AAI?$AAL?$AAE?$AA_?$AAP?$AAP?$AAT?$AA_?$AAF?$AAI?$AAL?$AAE?$AA_?$AAM?$AAA?$AAJ?$AAO?$AAR?$AA_?$AAV?$AAE?$AAR?$AAS@| [ DATA ] ; `string'
	EXPORT	|??_C@_1EI@MJNNFBBP@?$AAO?$AAF?$AAF?$AAI?$AAC?$AAE?$AAM?$AAO?$AAB?$AAI?$AAL?$AAE?$AA_?$AAP?$AAP?$AAT?$AA_?$AAF?$AAI?$AAL?$AAE?$AA_?$AAM?$AAI?$AAN?$AAO?$AAR?$AA_?$AAV?$AAE?$AAR?$AAS@| [ DATA ] ; `string'
	EXPORT	|??_C@_1DM@ICHFLAME@?$AAO?$AAF?$AAF?$AAI?$AAC?$AAE?$AAM?$AAO?$AAB?$AAI?$AAL?$AAE?$AA_?$AAS?$AAP?$AAM?$AAC?$AA_?$AAA?$AAD?$AAD?$AAR?$AAE?$AAS?$AAS?$AA_?$AAB?$AAA?$AAR?$AA?$AA@| [ DATA ] ; `string'
	EXPORT	|??_C@_1DC@DHKGEIFF@?$AAO?$AAF?$AAF?$AAI?$AAC?$AAE?$AAM?$AAO?$AAB?$AAI?$AAL?$AAE?$AA_?$AAS?$AAP?$AAM?$AAC?$AA_?$AAU?$AAP?$AAL?$AAO?$AAA?$AAD?$AA?$AA@| [ DATA ] ; `string'
	EXPORT	|??_C@_1EO@EJHEBEHP@?$AAO?$AAF?$AAF?$AAI?$AAC?$AAE?$AAM?$AAO?$AAB?$AAI?$AAL?$AAE?$AA_?$AAS?$AAP?$AAM?$AAC?$AA_?$AAS?$AAY?$AAN?$AAC?$AA_?$AAS?$AAE?$AAT?$AAT?$AAI?$AAN?$AAG?$AA_?$AAC@| [ DATA ] ; `string'
	EXPORT	|??_C@_1EM@NPOGGOIH@?$AAO?$AAF?$AAF?$AAI?$AAC?$AAE?$AAM?$AAO?$AAB?$AAI?$AAL?$AAE?$AA_?$AAS?$AAP?$AAM?$AAC?$AA_?$AAS?$AAY?$AAN?$AAC?$AA_?$AAF?$AAR?$AAE?$AAQ?$AAU?$AAE?$AAN?$AAC?$AAY@| [ DATA ] ; `string'
	EXPORT	|??_C@_1FE@ICHANHJJ@?$AAO?$AAF?$AAF?$AAI?$AAC?$AAE?$AAM?$AAO?$AAB?$AAI?$AAL?$AAE?$AA_?$AAS?$AAP?$AAM?$AAC?$AA_?$AAS?$AAY?$AAN?$AAC?$AA_?$AAF?$AAR?$AAE?$AAQ?$AAU?$AAE?$AAN?$AAC?$AAY@| [ DATA ] ; `string'
	EXPORT	|??_C@_1EE@PPAJMMGK@?$AAO?$AAF?$AAF?$AAI?$AAC?$AAE?$AAM?$AAO?$AAB?$AAI?$AAL?$AAE?$AA_?$AAS?$AAP?$AAM?$AAC?$AA_?$AAD?$AAA?$AAT?$AAA?$AA_?$AAS?$AAT?$AAO?$AAR?$AAE?$AA_?$AAS?$AAI?$AAZ@| [ DATA ] ; `string'
	EXPORT	|??_C@_1EM@PAIOAAHA@?$AAO?$AAF?$AAF?$AAI?$AAC?$AAE?$AAM?$AAO?$AAB?$AAI?$AAL?$AAE?$AA_?$AAS?$AAP?$AAM?$AAC?$AA_?$AAD?$AAA?$AAT?$AAA?$AA_?$AAS?$AAT?$AAO?$AAR?$AAE?$AA_?$AAO?$AAV?$AAE@| [ DATA ] ; `string'
	EXPORT	|??_C@_1EK@BGNJAMMO@?$AAO?$AAF?$AAF?$AAI?$AAC?$AAE?$AAM?$AAO?$AAB?$AAI?$AAL?$AAE?$AA_?$AAS?$AAP?$AAM?$AAC?$AA_?$AAS?$AAM?$AAA?$AAR?$AAT?$AA_?$AAS?$AAE?$AAA?$AAR?$AAC?$AAH?$AA_?$AAP@| [ DATA ] ; `string'
	EXPORT	|??_C@_1DG@LMDDDEGJ@?$AAO?$AAF?$AAF?$AAI?$AAC?$AAE?$AAM?$AAO?$AAB?$AAI?$AAL?$AAE?$AA_?$AAS?$AAP?$AAM?$AAC?$AA_?$AAE?$AAD?$AAI?$AAT?$AA_?$AAA?$AAP?$AAI?$AA?$AA@| [ DATA ] ; `string'
	EXPORT	|??_C@_1EM@BIGJPHGP@?$AAO?$AAF?$AAF?$AAI?$AAC?$AAE?$AAM?$AAO?$AAB?$AAI?$AAL?$AAE?$AA_?$AAO?$AAN?$AAE?$AAN?$AAO?$AAT?$AAE?$AA_?$AAN?$AAO?$AAT?$AAE?$AAB?$AAO?$AAO?$AAK?$AAS?$AA_?$AAS@| [ DATA ] ; `string'
	EXPORT	|??_C@_1GA@MCCPKJJA@?$AAO?$AAF?$AAF?$AAI?$AAC?$AAE?$AAM?$AAO?$AAB?$AAI?$AAL?$AAE?$AA_?$AAO?$AAN?$AAE?$AAN?$AAO?$AAT?$AAE?$AA_?$AAN?$AAO?$AAT?$AAE?$AAB?$AAO?$AAO?$AAK?$AAS?$AA_?$AAP@| [ DATA ] ; `string'
	EXPORT	|??_C@_1FK@CDJEIGMD@?$AAO?$AAF?$AAF?$AAI?$AAC?$AAE?$AAM?$AAO?$AAB?$AAI?$AAL?$AAE?$AA_?$AAO?$AAN?$AAE?$AAN?$AAO?$AAT?$AAE?$AA_?$AAC?$AAH?$AAA?$AAN?$AAG?$AAE?$AA_?$AAL?$AAO?$AAC?$AAA@| [ DATA ] ; `string'
	EXPORT	|??_C@_1FK@DBCBCJCN@?$AAO?$AAF?$AAF?$AAI?$AAC?$AAE?$AAM?$AAO?$AAB?$AAI?$AAL?$AAE?$AA_?$AAO?$AAN?$AAE?$AAN?$AAO?$AAT?$AAE?$AA_?$AAC?$AAH?$AAA?$AAN?$AAG?$AAE?$AA_?$AAL?$AAO?$AAC?$AAA@| [ DATA ] ; `string'
	EXPORT	|??_C@_1GK@DCGJMIGB@?$AAO?$AAF?$AAF?$AAI?$AAC?$AAE?$AAM?$AAO?$AAB?$AAI?$AAL?$AAE?$AA_?$AAO?$AAN?$AAE?$AAN?$AAO?$AAT?$AAE?$AA_?$AAU?$AAN?$AAF?$AAI?$AAL?$AAE?$AAD?$AA_?$AAD?$AAE?$AAF@| [ DATA ] ; `string'
	EXPORT	|??_C@_1DE@MGACDDHD@?$AAO?$AAF?$AAF?$AAI?$AAC?$AAE?$AAM?$AAO?$AAB?$AAI?$AAL?$AAE?$AA_?$AAO?$AAN?$AAE?$AAN?$AAO?$AAT?$AAE?$AA_?$AAE?$AAD?$AAI?$AAT?$AA?$AA@| [ DATA ] ; `string'
	EXPORT	|??_C@_1EE@KKNJBAOE@?$AAO?$AAF?$AAF?$AAI?$AAC?$AAE?$AAM?$AAO?$AAB?$AAI?$AAL?$AAE?$AA_?$AAO?$AAN?$AAE?$AAN?$AAO?$AAT?$AAE?$AA_?$AAP?$AAA?$AAG?$AAE?$AAS?$AA_?$AAO?$AAP?$AAE?$AAN?$AAE@| [ DATA ] ; `string'
	EXPORT	|??_C@_1DO@JKAPHELK@?$AAO?$AAF?$AAF?$AAI?$AAC?$AAE?$AAM?$AAO?$AAB?$AAI?$AAL?$AAE?$AA_?$AAO?$AAN?$AAE?$AAN?$AAO?$AAT?$AAE?$AA_?$AAW?$AAA?$AAR?$AAN?$AAI?$AAN?$AAG?$AA_?$AA1?$AA?$AA@| [ DATA ] ; `string'
	EXPORT	|??_C@_1FE@CNFECMII@?$AAO?$AAF?$AAF?$AAI?$AAC?$AAE?$AAM?$AAO?$AAB?$AAI?$AAL?$AAE?$AA_?$AAO?$AAN?$AAE?$AAN?$AAO?$AAT?$AAE?$AA_?$AAS?$AAY?$AAN?$AAC?$AA_?$AAS?$AAE?$AAT?$AAT?$AAI?$AAN@| [ DATA ] ; `string'
	EXPORT	|??_C@_1DK@ONNMMOPI@?$AAO?$AAF?$AAF?$AAI?$AAC?$AAE?$AAM?$AAO?$AAB?$AAI?$AAL?$AAE?$AA_?$AAP?$AAP?$AAT?$AA_?$AAF?$AAI?$AAL?$AAE?$AA_?$AAI?$AAN?$AAF?$AAO?$AA_?$AA2?$AA?$AA@| [ DATA ] ; `string'
	EXPORT	|??_C@_1EI@CEIHOIL@?$AAO?$AAF?$AAF?$AAI?$AAC?$AAE?$AAM?$AAO?$AAB?$AAI?$AAL?$AAE?$AA_?$AAP?$AAP?$AAT?$AA_?$AAN?$AAO?$AA_?$AAO?$AAF?$AA_?$AAN?$AAO?$AAT?$AAE?$AAS?$AA_?$AAE?$AAD?$AAI@| [ DATA ] ; `string'
	EXPORT	|??_C@_1DM@KFKGABBP@?$AAO?$AAF?$AAF?$AAI?$AAC?$AAE?$AAM?$AAO?$AAB?$AAI?$AAL?$AAE?$AA_?$AAW?$AAo?$AAr?$AAd?$AA_?$AAF?$AAI?$AAL?$AAE?$AA_?$AAI?$AAN?$AAF?$AAO?$AA_?$AA2?$AA?$AA@| [ DATA ] ; `string'
	EXPORT	|??_C@_1DO@OFCANFKG@?$AAO?$AAF?$AAF?$AAI?$AAC?$AAE?$AAM?$AAO?$AAB?$AAI?$AAL?$AAE?$AA_?$AAE?$AAX?$AAC?$AAE?$AAL?$AA_?$AAF?$AAI?$AAL?$AAE?$AA_?$AAI?$AAN?$AAF?$AAO?$AA_?$AA2?$AA?$AA@| [ DATA ] ; `string'
	EXPORT	|??_C@_1CO@GOHIJBBB@?$AAO?$AAF?$AAF?$AAI?$AAC?$AAE?$AAM?$AAO?$AAB?$AAI?$AAL?$AAE?$AA_?$AAS?$AAP?$AAM?$AAC?$AA_?$AAI?$AAN?$AAF?$AAO?$AA?$AA@| [ DATA ] ; `string'
	EXPORT	|??_C@_1DE@DLLAKNHO@?$AAO?$AAF?$AAF?$AAI?$AAC?$AAE?$AAM?$AAO?$AAB?$AAI?$AAL?$AAE?$AA_?$AAO?$AAN?$AAE?$AAN?$AAO?$AAT?$AAE?$AA_?$AAI?$AAN?$AAF?$AAO?$AA?$AA@| [ DATA ] ; `string'
	EXPORT	|??_C@_1BM@NJFDJKBN@?$AAU?$AAD?$AAE?$AAV?$AAI?$AAD?$AA_?$AAS?$AAT?$AAR?$AAI?$AAN?$AAG?$AA?$AA@| [ DATA ] ; `string'
	EXPORT	|??_C@_1CI@DAGLELJK@?$AAC?$AAA?$AAM?$AA_?$AAL?$AAA?$AAU?$AAN?$AAC?$AAH?$AAE?$AAN?$AAT?$AAR?$AAY?$AA_?$AAK?$AAE?$AAY?$AA?$AA@| [ DATA ] ; `string'
	EXPORT	|??_C@_1CK@GHONNNB@?$AAC?$AAA?$AAM?$AA_?$AAL?$AAA?$AAU?$AAN?$AAC?$AAH?$AAE?$AAN?$AAT?$AAR?$AAY?$AA_?$AAI?$AAC?$AAO?$AAN?$AA?$AA@| [ DATA ] ; `string'
	EXPORT	|??_C@_1CI@KCKJJDOF@?$AAC?$AAA?$AAM?$AA_?$AAL?$AAA?$AAU?$AAN?$AAC?$AAH?$AAE?$AAN?$AAT?$AAR?$AAY?$AA_?$AAA?$AAP?$AAI?$AA?$AA@| [ DATA ] ; `string'
	EXPORT	|??_C@_1CO@OEGMMIII@?$AAC?$AAA?$AAM?$AA_?$AAL?$AAA?$AAU?$AAN?$AAC?$AAH?$AAE?$AAN?$AAT?$AAR?$AAY?$AA_?$AAO?$AAT?$AAH?$AAE?$AAR?$AAS?$AA?$AA@| [ DATA ] ; `string'
	EXPORT	|??_C@_1CG@CHCPFGNN@?$AAC?$AAA?$AAM?$AA_?$AAC?$AAA?$AAP?$AAT?$AAU?$AAR?$AAE?$AAD?$AA_?$AAM?$AAE?$AAD?$AAI?$AAA?$AA?$AA@| [ DATA ] ; `string'
	EXPORT	|??_C@_1BO@IJPKOJG@?$AAC?$AAA?$AAM?$AA_?$AAS?$AAE?$AAT?$AAT?$AAI?$AAN?$AAG?$AA_?$AAW?$AAB?$AA?$AA@| [ DATA ] ; `string'
	EXPORT	|??_C@_1CO@EHKMABFG@?$AAC?$AAA?$AAM?$AA_?$AAS?$AAE?$AAT?$AAT?$AAI?$AAN?$AAG?$AA_?$AAB?$AAR?$AAI?$AAG?$AAH?$AAT?$AAN?$AAE?$AAS?$AAS?$AA?$AA@| [ DATA ] ; `string'
	EXPORT	|??_C@_1CO@JDKBMKMB@?$AAC?$AAA?$AAM?$AA_?$AAS?$AAE?$AAT?$AAT?$AAI?$AAN?$AAG?$AA_?$AAR?$AAE?$AAS?$AAO?$AAL?$AAU?$AAT?$AAI?$AAO?$AAN?$AA?$AA@| [ DATA ] ; `string'
	EXPORT	|??_C@_1BM@BJGHAPHK@?$AAC?$AAA?$AAM?$AA_?$AAC?$AAO?$AAN?$AAF?$AAI?$AAG?$AA_?$AAH?$AAW?$AA?$AA@| [ DATA ] ; `string'
	EXPORT	|??_C@_1CC@BIAHBGEH@?$AAC?$AAA?$AAM?$AA_?$AAN?$AAO?$AAT?$AAI?$AAF?$AAI?$AAC?$AAA?$AAT?$AAI?$AAO?$AAN?$AA?$AA@| [ DATA ] ; `string'
	EXPORT	|??_C@_1CC@BKMPKPLL@?$AAC?$AAA?$AAM?$AA_?$AAC?$AAO?$AAN?$AAF?$AAI?$AAG?$AA_?$AAM?$AAO?$AAD?$AAE?$AAS?$AA?$AA@| [ DATA ] ; `string'
	EXPORT	|??_C@_1CG@OMBFALML@?$AAH?$AAO?$AAM?$AAE?$AAM?$AAO?$AAB?$AAI?$AAL?$AAE?$AAO?$AAP?$AAE?$AAR?$AAA?$AAT?$AAO?$AAR?$AA?$AA@| [ DATA ] ; `string'
	EXPORT	|??_C@_1DA@CMFGEGGE@?$AAR?$AAA?$AAD?$AAI?$AAO?$AAR?$AAE?$AAG?$AAI?$AAS?$AAT?$AAR?$AAA?$AAT?$AAI?$AAO?$AAN?$AAS?$AAT?$AAA?$AAT?$AAU?$AAS?$AA?$AA@| [ DATA ] ; `string'
	EXPORT	|??_C@_1DG@OGEDDGIM@?$AAM?$AAE?$AAD?$AAI?$AAA?$AA_?$AAA?$AAL?$AAL?$AA_?$AAS?$AAO?$AAN?$AAG?$AAS?$AA_?$AAV?$AAI?$AAE?$AAW?$AA_?$AAC?$AAO?$AAU?$AAN?$AAT?$AA?$AA@| [ DATA ] ; `string'
	EXPORT	|??_C@_1DI@PBAOLMGH@?$AAM?$AAE?$AAD?$AAI?$AAA?$AA_?$AAA?$AAL?$AAL?$AA_?$AAV?$AAI?$AAD?$AAE?$AAO?$AAS?$AA_?$AAV?$AAI?$AAE?$AAW?$AA_?$AAC?$AAO?$AAU?$AAN?$AAT?$AA?$AA@| [ DATA ] ; `string'
	EXPORT	|??_C@_1DI@HKMLPJEM@?$AAM?$AAE?$AAD?$AAI?$AAA?$AA_?$AAA?$AAL?$AAL?$AA_?$AAP?$AAH?$AAO?$AAT?$AAO?$AAS?$AA_?$AAV?$AAI?$AAE?$AAW?$AA_?$AAC?$AAO?$AAU?$AAN?$AAT?$AA?$AA@| [ DATA ] ; `string'
	EXPORT	|??_C@_1DE@GGNACKNP@?$AAM?$AAE?$AAD?$AAI?$AAA?$AA_?$AAC?$AAR?$AAE?$AAA?$AAT?$AAE?$AA_?$AAP?$AAL?$AAA?$AAY?$AAL?$AAI?$AAS?$AAT?$AA_?$AAH?$AAI?$AAT?$AA?$AA@| [ DATA ] ; `string'
	EXPORT	|??_C@_1DA@BKKMLDAD@?$AAN?$AAo?$AAw?$AAP?$AAl?$AAa?$AAy?$AAi?$AAn?$AAg?$AAP?$AAl?$AAa?$AAy?$AAA?$AAc?$AAt?$AAi?$AAo?$AAn?$AAH?$AAi?$AAt?$AA?$AA@| [ DATA ] ; `string'
	EXPORT	|??_C@_1CA@OKOAKLJD@?$AAP?$AAi?$AAc?$AAt?$AAu?$AAr?$AAe?$AAT?$AAa?$AAk?$AAe?$AAn?$AAH?$AAi?$AAt?$AA?$AA@| [ DATA ] ; `string'
	EXPORT	|??_C@_1BO@LALBALDL@?$AAP?$AAh?$AAo?$AAt?$AAo?$AAT?$AAa?$AAg?$AAg?$AAe?$AAd?$AAH?$AAi?$AAt?$AA?$AA@| [ DATA ] ; `string'
	EXPORT	|??_C@_1CE@NOMFKAJL@?$AAS?$AAl?$AAi?$AAd?$AAe?$AAS?$AAh?$AAo?$AAw?$AAS?$AAt?$AAa?$AAr?$AAt?$AAH?$AAi?$AAt?$AA?$AA@| [ DATA ] ; `string'
	EXPORT	|??_C@_1CO@KNAFJGFA@?$AAM?$AAE?$AAD?$AAI?$AAA?$AA_?$AAP?$AAH?$AAO?$AAT?$AAO?$AA_?$AAE?$AAD?$AAI?$AAT?$AAE?$AAD?$AA_?$AAH?$AAI?$AAT?$AA?$AA@| [ DATA ] ; `string'
	EXPORT	|??_C@_1BK@NDPEPJPJ@?$AAP?$AAE?$AAR?$AAF?$AA_?$AAE?$AAL?$AAA?$AAP?$AAS?$AAE?$AAD?$AA?$AA@| [ DATA ] ; `string'
	EXPORT	|??_C@_1BM@NGGHCJID@?$AAP?$AAE?$AAR?$AAF?$AA_?$AAA?$AAB?$AAS?$AAO?$AAL?$AAU?$AAT?$AAE?$AA?$AA@| [ DATA ] ; `string'
	EXPORT	|??_C@_1CE@FNLICONP@?$AAS?$AAT?$AAO?$AAR?$AAE?$AAP?$AAA?$AAR?$AAT?$AAN?$AAE?$AAR?$AAS?$AAH?$AAI?$AAP?$AAS?$AA?$AA@| [ DATA ] ; `string'
	EXPORT	|??_C@_1CG@PHGNPNON@?$AAC?$AAh?$AAa?$AAn?$AAg?$AAe?$AAC?$AAa?$AAt?$AAa?$AAl?$AAo?$AAg?$AAI?$AAt?$AAe?$AAm?$AAs?$AA?$AA@| [ DATA ] ; `string'
	EXPORT	|??_C@_1CG@KHOCDHDN@?$AAC?$AAh?$AAa?$AAn?$AAg?$AAe?$AAB?$AAu?$AAi?$AAl?$AAd?$AAO?$AAp?$AAt?$AAi?$AAo?$AAn?$AAs?$AA?$AA@| [ DATA ] ; `string'
	EXPORT	|??_C@_1DA@CKAOKPKI@?$AAS?$AAe?$AAt?$AAE?$AAn?$AAv?$AAi?$AAr?$AAo?$AAn?$AAm?$AAe?$AAn?$AAt?$AAV?$AAa?$AAr?$AAi?$AAa?$AAb?$AAl?$AAe?$AAs?$AA?$AA@| [ DATA ] ; `string'
	EXPORT	|??_C@_1BE@DBADFJLG@?$AAD?$AAe?$AAs?$AAk?$AAt?$AAo?$AAp?$AAO?$AAS?$AA?$AA@| [ DATA ] ; `string'
	EXPORT	|??_C@_1CI@PMEEEBL@?$AAV?$AAi?$AAs?$AAu?$AAa?$AAl?$AAS?$AAt?$AAu?$AAd?$AAi?$AAo?$AAV?$AAe?$AAr?$AAs?$AAi?$AAo?$AAn?$AA?$AA@| [ DATA ] ; `string'
	EXPORT	|??_C@_1BM@LGGIBAL@?$AAB?$AAu?$AAi?$AAl?$AAd?$AAC?$AAo?$AAm?$AAm?$AAa?$AAn?$AAd?$AAs?$AA?$AA@| [ DATA ] ; `string'
	EXPORT	|??_C@_1CO@NLLNNFIH@?$AAP?$AAl?$AAa?$AAt?$AAf?$AAo?$AAr?$AAm?$AAB?$AAu?$AAi?$AAl?$AAd?$AAe?$AAr?$AAV?$AAe?$AAr?$AAs?$AAi?$AAo?$AAn?$AA?$AA@| [ DATA ] ; `string'
	EXPORT	|??_C@_1BM@IEBMBJME@?$AAD?$AAe?$AAs?$AAk?$AAt?$AAo?$AAp?$AAL?$AAo?$AAc?$AAa?$AAl?$AAe?$AA?$AA@| [ DATA ] ; `string'
	EXPORT	|??_C@_1BO@IDGLDPGL@?$AAP?$AAB?$AAM?$AAe?$AAn?$AAu?$AAC?$AAo?$AAm?$AAm?$AAa?$AAn?$AAd?$AAs?$AA?$AA@| [ DATA ] ; `string'
	EXPORT	|??_C@_1CI@EEMMLOCK@?$AAA?$AAI?$AAR?$AAS?$AAY?$AAN?$AAC?$AA_?$AAR?$AAE?$AAL?$AAI?$AAA?$AAB?$AAI?$AAL?$AAI?$AAT?$AAY?$AA?$AA@| [ DATA ] ; `string'
	EXPORT	|??_C@_1CI@EBHKCHKN@?$AAA?$AAI?$AAR?$AAS?$AAY?$AAN?$AAC?$AA_?$AAE?$AAR?$AAR?$AAO?$AAR?$AA_?$AAS?$AAT?$AAA?$AAT?$AAS?$AA?$AA@| [ DATA ] ; `string'
	EXPORT	|??_C@_1CM@IBLJOFMO@?$AAS?$AAY?$AAN?$AAC?$AA_?$AAP?$AAA?$AAR?$AAT?$AAN?$AAE?$AAR?$AAS?$AAH?$AAI?$AAP?$AA_?$AAI?$AAN?$AAF?$AAO?$AA?$AA@| [ DATA ] ; `string'
	EXPORT	|??_C@_1CK@EBFOEMPO@?$AAR?$AAE?$AAG?$AA_?$AAC?$AAA?$AAP?$AAT?$AAU?$AAR?$AAE?$AA_?$AAD?$AAI?$AAS?$AAC?$AAR?$AAE?$AAT?$AAE?$AA?$AA@| [ DATA ] ; `string'
	EXPORT	|??_C@_1CO@LOBHAPBA@?$AAR?$AAE?$AAG?$AA_?$AAC?$AAA?$AAP?$AAT?$AAU?$AAR?$AAE?$AA_?$AAC?$AAO?$AAN?$AAT?$AAI?$AAN?$AAU?$AAO?$AAU?$AAS?$AA?$AA@| [ DATA ] ; `string'
	EXPORT	|??_C@_1DM@LCLBAJCA@?$AAO?$AAF?$AAF?$AAI?$AAC?$AAE?$AAM?$AAO?$AAB?$AAI?$AAL?$AAE?$AA_?$AAO?$AAN?$AAE?$AAN?$AAO?$AAT?$AAE?$AA_?$AAS?$AAE?$AAC?$AAT?$AAI?$AAO?$AAN?$AAS?$AA?$AA@| [ DATA ] ; `string'
	EXPORT	|??_C@_1EG@LGHNPBDH@?$AAO?$AAF?$AAF?$AAI?$AAC?$AAE?$AAM?$AAO?$AAB?$AAI?$AAL?$AAE?$AA_?$AAO?$AAN?$AAE?$AAN?$AAO?$AAT?$AAE?$AA_?$AAO?$AAp?$AAe?$AAn?$AA_?$AAS?$AAe?$AAc?$AAt?$AAi?$AAo@| [ DATA ] ; `string'
	EXPORT	|??_C@_1EI@JHAFHAME@?$AAO?$AAF?$AAF?$AAI?$AAC?$AAE?$AAM?$AAO?$AAB?$AAI?$AAL?$AAE?$AA_?$AAO?$AAN?$AAE?$AAN?$AAO?$AAT?$AAE?$AA_?$AAS?$AAY?$AAN?$AAC?$AA_?$AAI?$AAN?$AAI?$AAT?$AAI?$AAA@| [ DATA ] ; `string'
	EXPORT	|??_C@_1EG@MKDCDAHF@?$AAO?$AAF?$AAF?$AAI?$AAC?$AAE?$AAM?$AAO?$AAB?$AAI?$AAL?$AAE?$AA_?$AAO?$AAN?$AAE?$AAN?$AAO?$AAT?$AAE?$AA_?$AAS?$AAY?$AAN?$AAC?$AA_?$AAC?$AAO?$AAN?$AAF?$AAL?$AAI@| [ DATA ] ; `string'
	EXPORT	|??_C@_1FE@NIIMKANJ@?$AAO?$AAF?$AAF?$AAI?$AAC?$AAE?$AAM?$AAO?$AAB?$AAI?$AAL?$AAE?$AA_?$AAO?$AAN?$AAE?$AAN?$AAO?$AAT?$AAE?$AA_?$AAS?$AAY?$AAN?$AAC?$AA_?$AAP?$AAR?$AAO?$AAG?$AAR?$AAE@| [ DATA ] ; `string'
	EXPORT	|??_C@_1EM@CIMFEJCM@?$AAO?$AAF?$AAF?$AAI?$AAC?$AAE?$AAM?$AAO?$AAB?$AAI?$AAL?$AAE?$AA_?$AAO?$AAN?$AAE?$AAN?$AAO?$AAT?$AAE?$AA_?$AAU?$AAN?$AAE?$AAX?$AAP?$AAE?$AAC?$AAT?$AAE?$AAD?$AA_@| [ DATA ] ; `string'
	EXPORT	|??_C@_1EC@PAFHMMIO@?$AAO?$AAF?$AAF?$AAI?$AAC?$AAE?$AAM?$AAO?$AAB?$AAI?$AAL?$AAE?$AA_?$AAO?$AAN?$AAE?$AAN?$AAO?$AAT?$AAE?$AA_?$AAK?$AAN?$AAO?$AAW?$AAN?$AA_?$AAE?$AAR?$AAR?$AAO?$AAR@| [ DATA ] ; `string'
	EXPORT	|??_C@_1CO@CICFINHC@?$AAW?$AAI?$AAN?$AAI?$AAN?$AAE?$AAT?$AA_?$AAR?$AAE?$AAQ?$AAU?$AAE?$AAS?$AAT?$AA_?$AAR?$AAE?$AAS?$AAU?$AAL?$AAT?$AA?$AA@| [ DATA ] ; `string'
	EXPORT	|??_C@_1CG@NDHMHBAM@?$AAW?$AAI?$AAN?$AAI?$AAN?$AAE?$AAT?$AA_?$AAI?$AAN?$AAD?$AAE?$AAX?$AA_?$AAS?$AAI?$AAZ?$AAE?$AA?$AA@| [ DATA ] ; `string'
	EXPORT	|??_C@_1EG@MFIOBMCP@?$AAO?$AAF?$AAF?$AAI?$AAC?$AAE?$AAM?$AAO?$AAB?$AAI?$AAL?$AAE?$AA_?$AAS?$AAP?$AAM?$AAC?$AA_?$AAR?$AAE?$AAC?$AAE?$AAN?$AAT?$AA_?$AAD?$AAO?$AAC?$AAU?$AAM?$AAE?$AAN@| [ DATA ] ; `string'
	EXPORT	|??_C@_1CM@HAHMAEED@?$AAC?$AAE?$AAL?$AAL?$AAC?$AAO?$AAR?$AAE?$AA_?$AAR?$AAI?$AAL?$AA_?$AAR?$AAE?$AAS?$AAP?$AAO?$AAN?$AAS?$AAE?$AA?$AA@| [ DATA ] ; `string'
	EXPORT	|??_C@_1BG@POJLGNJC@?$AAR?$AAT?$AAF?$AAX?$AA_?$AAT?$AAO?$AAO?$AAL?$AAS?$AA?$AA@| [ DATA ] ; `string'
	EXPORT	|??_C@_1CC@JBPBOIAB@?$AAN?$AAE?$AAT?$AAR?$AAE?$AAL?$AA_?$AAA?$AAP?$AAI?$AA_?$AAC?$AAA?$AAL?$AAL?$AAS?$AA?$AA@| [ DATA ] ; `string'
	EXPORT	|??_C@_1DE@MFENAHGF@?$AAN?$AAE?$AAT?$AAR?$AAE?$AAL?$AA_?$AAA?$AAP?$AAI?$AA_?$AAC?$AAA?$AAL?$AAL?$AAS?$AA_?$AAP?$AAO?$AAS?$AAI?$AAT?$AAI?$AAV?$AAE?$AA?$AA@| [ DATA ] ; `string'
	EXPORT	|??_C@_1CO@BCNFOHDJ@?$AAN?$AAE?$AAT?$AAR?$AAE?$AAL?$AA_?$AAM?$AAO?$AAN?$AAI?$AAT?$AAO?$AAR?$AA_?$AAD?$AAE?$AAT?$AAE?$AAC?$AAT?$AAS?$AA?$AA@| [ DATA ] ; `string'
	EXPORT	|??_C@_1EA@PLIPNDKM@?$AAN?$AAE?$AAT?$AAR?$AAE?$AAL?$AA_?$AAM?$AAO?$AAN?$AAI?$AAT?$AAO?$AAR?$AA_?$AAD?$AAE?$AAT?$AAE?$AAC?$AAT?$AAS?$AA_?$AAP?$AAO?$AAS?$AAI?$AAT?$AAI?$AAV?$AAE?$AA?$AA@| [ DATA ] ; `string'
	EXPORT	|??_C@_1CC@DGNCFMKF@?$AAN?$AAE?$AAT?$AAR?$AAE?$AAL?$AA_?$AAW?$AAW?$AAA?$AAN?$AA_?$AAF?$AAI?$AAX?$AA1?$AA?$AA@| [ DATA ] ; `string'
	EXPORT	|??_C@_1CC@CEGHPDEL@?$AAN?$AAE?$AAT?$AAR?$AAE?$AAL?$AA_?$AAW?$AAW?$AAA?$AAN?$AA_?$AAF?$AAI?$AAX?$AA2?$AA?$AA@| [ DATA ] ; `string'
	EXPORT	|??_C@_1CC@JMNLJECO@?$AAN?$AAE?$AAT?$AAR?$AAE?$AAL?$AA_?$AAW?$AAW?$AAA?$AAN?$AA_?$AAF?$AAI?$AAX?$AA3?$AA?$AA@| [ DATA ] ; `string'
	EXPORT	|??_C@_1CE@DKEGOOOA@?$AAN?$AAE?$AAT?$AAR?$AAE?$AAL?$AA_?$AAW?$AAW?$AAA?$AAN?$AA_?$AAN?$AAO?$AAF?$AAI?$AAX?$AA?$AA@| [ DATA ] ; `string'
	EXPORT	|??_C@_1CK@OGDMBEDP@?$AAN?$AAE?$AAT?$AAR?$AAE?$AAL?$AA_?$AAD?$AAI?$AAA?$AAG?$AAN?$AAO?$AAS?$AAE?$AA_?$AAT?$AAI?$AAM?$AAE?$AA?$AA@| [ DATA ] ; `string'
	EXPORT	|??_C@_1DA@PBNNFLLP@?$AAR?$AAE?$AAG?$AA_?$AAC?$AAA?$AAP?$AAT?$AAU?$AAR?$AAE?$AA_?$AAP?$AAH?$AAO?$AAN?$AAE?$AAS?$AAT?$AAA?$AAT?$AAU?$AAS?$AA?$AA@| [ DATA ] ; `string'
	EXPORT	|??_C@_1BM@FOGBBPIF@?$AAS?$AAT?$AAO?$AAR?$AAE?$AAP?$AAI?$AAM?$AAI?$AAT?$AAE?$AAM?$AAS?$AA?$AA@| [ DATA ] ; `string'
	EXPORT	|??_C@_1BK@GIAPKPEK@?$AAM?$AAE?$AAN?$AAU?$AAS?$AAE?$AAQ?$AAU?$AAE?$AAN?$AAC?$AAE?$AA?$AA@| [ DATA ] ; `string'
	EXPORT	|??_C@_1DC@JCIIFLAA@?$AAW?$AAL?$AAA?$AAN?$AA_?$AAA?$AAS?$AAS?$AAO?$AAC?$AAI?$AAA?$AAT?$AAI?$AAO?$AAN?$AA_?$AAS?$AAU?$AAC?$AAC?$AAE?$AAS?$AAS?$AA?$AA@| [ DATA ] ; `string'
	EXPORT	|??_C@_1DC@KIEBFCNO@?$AAW?$AAL?$AAA?$AAN?$AA_?$AAA?$AAS?$AAS?$AAO?$AAC?$AAI?$AAA?$AAT?$AAI?$AAO?$AAN?$AA_?$AAF?$AAA?$AAI?$AAL?$AAU?$AAR?$AAE?$AA?$AA@| [ DATA ] ; `string'
	EXPORT	|??_C@_1DA@FDBEBILF@?$AAW?$AAL?$AAA?$AAN?$AA_?$AAC?$AAO?$AAN?$AAN?$AAE?$AAC?$AAT?$AAI?$AAO?$AAN?$AA_?$AAF?$AAA?$AAI?$AAL?$AAU?$AAR?$AAE?$AA?$AA@| [ DATA ] ; `string'
	EXPORT	|??_C@_1DA@GJNNBBGL@?$AAW?$AAL?$AAA?$AAN?$AA_?$AAC?$AAO?$AAN?$AAN?$AAE?$AAC?$AAT?$AAI?$AAO?$AAN?$AA_?$AAS?$AAU?$AAC?$AAC?$AAE?$AAS?$AAS?$AA?$AA@| [ DATA ] ; `string'
	EXPORT	|??_C@_1CG@FJCMHLHJ@?$AAC?$AAF?$AAM?$AA_?$AAR?$AAE?$AAQ?$AAU?$AAE?$AAS?$AAT?$AA_?$AAR?$AAE?$AAC?$AAO?$AAR?$AAD?$AA?$AA@| [ DATA ] ; `string'
	EXPORT	|?g_rgDataIDString@@3QBQBGB| [ DATA ]	; g_rgDataIDString

  00000			 AREA	 |.bss|, NOINIT
|sghSqmNormalSession| % 0x4
|sghSqmWeekSession| % 0x4
|sghSQMThread| % 0x4
|sgSQMThreadId| % 0x4

  00000			 AREA	 |.rdata|, DATA, READONLY
|?g_rgDataIDString@@3QBQBGB| DCD |??_C@_11LOCGONAA@?$AA?$AA@| ; g_rgDataIDString
	DCD	|??_C@_1CG@POPBNBLK@?$AAP?$AAO?$AA_?$AAN?$AAU?$AAM?$AAB?$AAE?$AAR?$AA_?$AAC?$AAO?$AAN?$AAT?$AAA?$AAC?$AAT?$AAS?$AA?$AA@|
	DCD	|??_C@_1BM@PGMCHBIH@?$AAS?$AAY?$AAN?$AAC?$AA_?$AAS?$AAY?$AAN?$AAC?$AAT?$AAI?$AAM?$AAE?$AA?$AA@|
	DCD	|??_C@_1BM@KMNFINN@?$AAS?$AAY?$AAN?$AAC?$AA_?$AAS?$AAY?$AAN?$AAC?$AAS?$AAI?$AAZ?$AAE?$AA?$AA@|
	DCD	|??_C@_1CA@MEOLKKF@?$AAS?$AAY?$AAN?$AAC?$AA_?$AAS?$AAY?$AAN?$AAC?$AAR?$AAE?$AAS?$AAU?$AAL?$AAT?$AA?$AA@|
	DCD	|??_C@_1BG@MLGGPMHF@?$AAO?$AAS?$AAV?$AAE?$AAR?$AAM?$AAA?$AAJ?$AAO?$AAR?$AA?$AA@|
	DCD	|??_C@_1BG@FMPLLCHL@?$AAO?$AAS?$AAV?$AAE?$AAR?$AAM?$AAI?$AAN?$AAO?$AAR?$AA?$AA@|
	DCD	|??_C@_1BG@HCDBKBJB@?$AAO?$AAS?$AAB?$AAU?$AAI?$AAL?$AAD?$AAN?$AAU?$AAM?$AA?$AA@|
	DCD	|??_C@_1CC@HGENBCG@?$AAP?$AAL?$AAA?$AAT?$AAF?$AAO?$AAR?$AAM?$AAB?$AAU?$AAI?$AAL?$AAD?$AAN?$AAU?$AAM?$AA?$AA@|
	DCD	|??_C@_1CI@JMDPFIPD@?$AAP?$AAH?$AAY?$AAS?$AAM?$AAE?$AAM?$AAO?$AAR?$AAY?$AAA?$AAV?$AAA?$AAI?$AAL?$AAA?$AAB?$AAL?$AAE?$AA?$AA@|
	DCD	|??_C@_1BM@FFEPMCOP@?$AAS?$AAE?$AAC?$AAS?$AAS?$AAI?$AAN?$AAC?$AAE?$AAB?$AAO?$AAO?$AAT?$AA?$AA@|
	DCD	|??_C@_1BI@LDIAJACF@?$AAN?$AAU?$AAM?$AAA?$AAC?$AAC?$AAO?$AAU?$AAN?$AAT?$AAS?$AA?$AA@|
	DCD	|??_C@_1M@FPCJHGLF@?$AAD?$AAU?$AAM?$AAM?$AAY?$AA?$AA@|
	DCD	|??_C@_1CA@HDHKPKDC@?$AAB?$AAA?$AAT?$AAT?$AAE?$AAR?$AAY?$AAS?$AAT?$AAR?$AAE?$AAN?$AAG?$AAT?$AAH?$AA?$AA@|
	DCD	|??_C@_1CM@EIAGNDIN@?$AAM?$AAE?$AAS?$AAS?$AAA?$AAG?$AAI?$AAN?$AAG?$AA_?$AAA?$AAC?$AAC?$AAO?$AAU?$AAN?$AAT?$AAI?$AAN?$AAF?$AAO?$AA?$AA@|
	DCD	|??_C@_1DG@LGLJNM@?$AAM?$AAE?$AAS?$AAS?$AAA?$AAG?$AAI?$AAN?$AAG?$AA_?$AAD?$AAU?$AAM?$AAM?$AAY?$AAA?$AAC?$AAC?$AAO?$AAU?$AAN?$AAT?$AAT?$AAY?$AAP?$AAE?$AA?$AA@|
	DCD	|??_C@_1DG@OJKBOLMI@?$AAM?$AAE?$AAS?$AAS?$AAA?$AAG?$AAI?$AAN?$AAG?$AA_?$AAD?$AAU?$AAM?$AAM?$AAY?$AAN?$AAU?$AAM?$AAM?$AAE?$AAS?$AAS?$AAA?$AAG?$AAE?$AAS?$AA?$AA@|
	DCD	|??_C@_1DE@JJKFCDIA@?$AAM?$AAE?$AAS?$AAS?$AAA?$AAG?$AAI?$AAN?$AAG?$AA_?$AAD?$AAU?$AAM?$AAM?$AAY?$AAN?$AAU?$AAM?$AAF?$AAO?$AAL?$AAD?$AAE?$AAR?$AAS?$AA?$AA@|
	DCD	|??_C@_1CI@JDNKLELB@?$AAP?$AAH?$AAO?$AAN?$AAE?$AA_?$AAI?$AAN?$AAC?$AAO?$AAM?$AAI?$AAN?$AAG?$AAC?$AAA?$AAL?$AAL?$AAS?$AA?$AA@|
	DCD	|??_C@_1CI@KGLEDJAF@?$AAP?$AAH?$AAO?$AAN?$AAE?$AA_?$AAO?$AAU?$AAT?$AAG?$AAO?$AAI?$AAN?$AAG?$AAC?$AAA?$AAL?$AAL?$AAS?$AA?$AA@|
	DCD	|??_C@_1CE@BGIIKBMA@?$AAD?$AAU?$AAM?$AAM?$AAY?$AA_?$AAN?$AAU?$AAM?$AAA?$AAC?$AAC?$AAO?$AAU?$AAN?$AAT?$AAS?$AA?$AA@|
	DCD	|??_C@_1CC@CLDPIDMP@?$AAS?$AAY?$AAN?$AAC?$AA_?$AAM?$AAA?$AAN?$AAU?$AAA?$AAL?$AAS?$AAY?$AAN?$AAC?$AAS?$AA?$AA@|
	DCD	|??_C@_1CI@JGEPNJBH@?$AAS?$AAY?$AAN?$AAC?$AA_?$AAA?$AAU?$AAT?$AAO?$AAM?$AAA?$AAT?$AAE?$AAD?$AAS?$AAY?$AAN?$AAC?$AAS?$AA?$AA@|
	DCD	|??_C@_1CI@GHOKBMJI@?$AAS?$AAY?$AAN?$AAC?$AA_?$AAS?$AAC?$AAH?$AAE?$AAD?$AAU?$AAL?$AAE?$AAD?$AAS?$AAY?$AAN?$AAC?$AAS?$AA?$AA@|
	DCD	|??_C@_1CO@NPBEDFEP@?$AAM?$AAE?$AAS?$AAS?$AAA?$AAG?$AAI?$AAN?$AAG?$AA_?$AAS?$AAE?$AAN?$AAT?$AAE?$AAX?$AAC?$AAH?$AAA?$AAN?$AAG?$AAE?$AA?$AA@|
	DCD	|??_C@_1CE@JIBFIKJM@?$AAM?$AAE?$AAS?$AAS?$AAA?$AAG?$AAI?$AAN?$AAG?$AA_?$AAS?$AAE?$AAN?$AAT?$AAS?$AAM?$AAS?$AA?$AA@|
	DCD	|??_C@_1CG@BNIBKOKC@?$AAM?$AAE?$AAS?$AAS?$AAA?$AAG?$AAI?$AAN?$AAG?$AA_?$AAS?$AAE?$AAN?$AAT?$AAP?$AAO?$AAP?$AA3?$AA?$AA@|
	DCD	|??_C@_1CG@GFAGIKCO@?$AAM?$AAE?$AAS?$AAS?$AAA?$AAG?$AAI?$AAN?$AAG?$AA_?$AAS?$AAE?$AAN?$AAT?$AAI?$AAM?$AAA?$AAP?$AA?$AA@|
	DCD	|??_C@_1DG@CEFGGMJH@?$AAM?$AAE?$AAS?$AAS?$AAA?$AAG?$AAI?$AAN?$AAG?$AA_?$AAR?$AAE?$AAC?$AAE?$AAI?$AAV?$AAE?$AAD?$AAE?$AAX?$AAC?$AAH?$AAA?$AAN?$AAG?$AAE?$AA?$AA@|
	DCD	|??_C@_1CM@OOBMEDKG@?$AAM?$AAE?$AAS?$AAS?$AAA?$AAG?$AAI?$AAN?$AAG?$AA_?$AAR?$AAE?$AAC?$AAE?$AAI?$AAV?$AAE?$AAD?$AAS?$AAM?$AAS?$AA?$AA@|
	DCD	|??_C@_1CO@KCBHFIEK@?$AAM?$AAE?$AAS?$AAS?$AAA?$AAG?$AAI?$AAN?$AAG?$AA_?$AAR?$AAE?$AAC?$AAE?$AAI?$AAV?$AAE?$AAD?$AAI?$AAM?$AAA?$AAP?$AA?$AA@|
	DCD	|??_C@_1CO@NKJAHMMG@?$AAM?$AAE?$AAS?$AAS?$AAA?$AAG?$AAI?$AAN?$AAG?$AA_?$AAR?$AAE?$AAC?$AAE?$AAI?$AAV?$AAE?$AAD?$AAP?$AAO?$AAP?$AA3?$AA?$AA@|
	DCD	|??_C@_1DA@HGPAJMLG@?$AAM?$AAE?$AAS?$AAS?$AAA?$AAG?$AAI?$AAN?$AAG?$AA_?$AAR?$AAE?$AAC?$AAE?$AAI?$AAV?$AAE?$AAD?$AAO?$AAT?$AAH?$AAE?$AAR?$AA?$AA@|
	DCD	|??_C@_1CI@BPLMEGPM@?$AAM?$AAE?$AAS?$AAS?$AAA?$AAG?$AAI?$AAN?$AAG?$AA_?$AAS?$AAE?$AAN?$AAT?$AAO?$AAT?$AAH?$AAE?$AAR?$AA?$AA@|
	DCD	|??_C@_1DG@CHAOOFKN@?$AAP?$AAH?$AAO?$AAN?$AAE?$AA_?$AAI?$AAN?$AAC?$AAO?$AAM?$AAI?$AAN?$AAG?$AAC?$AAA?$AAL?$AAL?$AAS?$AA_?$AAF?$AAA?$AAI?$AAL?$AAE?$AAD?$AA?$AA@|
	DCD	|??_C@_1DG@GJBPNMMB@?$AAP?$AAH?$AAO?$AAN?$AAE?$AA_?$AAO?$AAU?$AAT?$AAG?$AAO?$AAI?$AAN?$AAG?$AAC?$AAA?$AAL?$AAL?$AAS?$AA_?$AAF?$AAA?$AAI?$AAL?$AAE?$AAD?$AA?$AA@|
	DCD	|??_C@_1DA@OLOBMAIN@?$AAR?$AAE?$AAL?$AAI?$AAA?$AAB?$AAI?$AAL?$AAI?$AAT?$AAY?$AA_?$AAC?$AAP?$AAU?$AA_?$AAC?$AAU?$AAR?$AAR?$AAE?$AAN?$AAT?$AA?$AA@|
	DCD	|??_C@_1CM@CBAEBIHP@?$AAR?$AAE?$AAL?$AAI?$AAA?$AAB?$AAI?$AAL?$AAI?$AAT?$AAY?$AA_?$AAC?$AAP?$AAU?$AA_?$AAT?$AAO?$AAT?$AAA?$AAL?$AA?$AA@|
	DCD	|??_C@_1DO@JKLJGHH@?$AAR?$AAE?$AAL?$AAI?$AAA?$AAB?$AAI?$AAL?$AAI?$AAT?$AAY?$AA_?$AAA?$AAC?$AAT?$AAI?$AAV?$AAE?$AA_?$AAU?$AAS?$AAE?$AA_?$AAC?$AAU?$AAR?$AAR?$AAE?$AAN?$AAT?$AA?$AA@|
	DCD	|??_C@_1DK@PAEEMDPL@?$AAR?$AAE?$AAL?$AAI?$AAA?$AAB?$AAI?$AAL?$AAI?$AAT?$AAY?$AA_?$AAA?$AAC?$AAT?$AAI?$AAV?$AAE?$AA_?$AAU?$AAS?$AAE?$AA_?$AAT?$AAO?$AAT?$AAA?$AAL?$AA?$AA@|
	DCD	|??_C@_1DA@CNOLHPGH@?$AAR?$AAE?$AAL?$AAI?$AAA?$AAB?$AAI?$AAL?$AAI?$AAT?$AAY?$AA_?$AAR?$AAT?$AAC?$AA_?$AAC?$AAU?$AAR?$AAR?$AAE?$AAN?$AAT?$AA?$AA@|
	DCD	|??_C@_1CM@BKLLAIGA@?$AAR?$AAE?$AAL?$AAI?$AAA?$AAB?$AAI?$AAL?$AAI?$AAT?$AAY?$AA_?$AAR?$AAT?$AAC?$AA_?$AAT?$AAO?$AAT?$AAA?$AAL?$AA?$AA@|
	DCD	|??_C@_1CK@DMJFFDPC@?$AAR?$AAE?$AAL?$AAI?$AAA?$AAB?$AAI?$AAL?$AAI?$AAT?$AAY?$AA_?$AAL?$AAI?$AAF?$AAE?$AAT?$AAI?$AAM?$AAE?$AA?$AA@|
	DCD	|??_C@_1DA@LPGLOFME@?$AAR?$AAE?$AAL?$AAI?$AAA?$AAB?$AAI?$AAL?$AAI?$AAT?$AAY?$AA_?$AAR?$AAE?$AAS?$AAE?$AAT?$AA_?$AAC?$AAO?$AAU?$AAN?$AAT?$AA?$AA@|
	DCD	|??_C@_1EA@HAAFGGPC@?$AAR?$AAE?$AAL?$AAI?$AAA?$AAB?$AAI?$AAL?$AAI?$AAT?$AAY?$AA_?$AAU?$AAS?$AAE?$AAR?$AA_?$AAS?$AAH?$AAU?$AAT?$AAD?$AAO?$AAW?$AAN?$AA_?$AAC?$AAO?$AAU?$AAN?$AAT?$AA?$AA@|
	DCD	|??_C@_1DO@DJAFOIEB@?$AAR?$AAE?$AAL?$AAI?$AAA?$AAB?$AAI?$AAL?$AAI?$AAT?$AAY?$AA_?$AAB?$AAA?$AAT?$AAT?$AAE?$AAR?$AAY?$AA_?$AAD?$AAE?$AAA?$AAD?$AA_?$AAC?$AAO?$AAU?$AAN?$AAT?$AA?$AA@|
	DCD	|??_C@_1DE@CPLBEIHM@?$AAR?$AAE?$AAL?$AAI?$AAA?$AAB?$AAI?$AAL?$AAI?$AAT?$AAY?$AA_?$AAR?$AAE?$AAB?$AAO?$AAO?$AAT?$AA_?$AAR?$AAE?$AAA?$AAS?$AAO?$AAN?$AA?$AA@|
	DCD	|??_C@_1BK@FOGAODPK@?$AAS?$AAE?$AAS?$AAS?$AAI?$AAO?$AAN?$AA_?$AAT?$AAY?$AAP?$AAE?$AA?$AA@|
	DCD	|??_C@_1O@EDBFNEKN@?$AAL?$AAO?$AAC?$AAA?$AAL?$AAE?$AA?$AA@|
	DCD	|??_C@_1BC@HEMCLPBJ@?$AAL?$AAA?$AAN?$AAG?$AAU?$AAA?$AAG?$AAE?$AA?$AA@|
	DCD	|??_C@_17NIDINBIM@?$AAS?$AAK?$AAU?$AA?$AA@|
	DCD	|??_C@_1DE@FOJBBCM@?$AAP?$AAH?$AAO?$AAN?$AAE?$AA_?$AAR?$AAA?$AAD?$AAI?$AAO?$AA_?$AAS?$AAT?$AAA?$AAC?$AAK?$AA_?$AAR?$AAE?$AAB?$AAO?$AAO?$AAT?$AAS?$AA?$AA@|
	DCD	|??_C@_1CE@KFCKMAGK@?$AAP?$AAH?$AAO?$AAN?$AAE?$AA_?$AAT?$AAI?$AAM?$AAE?$AAR?$AAS?$AA_?$AAO?$AAR?$AAI?$AAG?$AA?$AA@|
	DCD	|??_C@_1CM@DGBHADKJ@?$AAC?$AAA?$AAL?$AAL?$AAE?$AAR?$AA_?$AAI?$AAD?$AA_?$AAL?$AAO?$AAO?$AAK?$AAU?$AAP?$AA_?$AAO?$AAR?$AAI?$AAG?$AA?$AA@|
	DCD	|??_C@_1CE@PMHEAFPK@?$AAP?$AAH?$AAO?$AAN?$AAE?$AA_?$AAE?$AAR?$AAR?$AAO?$AAR?$AAS?$AA_?$AAO?$AAR?$AAI?$AAG?$AA?$AA@|
	DCD	|??_C@_1BK@PFBAAGKK@?$AAS?$AAI?$AAM?$AA_?$AAC?$AAO?$AAN?$AAT?$AAA?$AAC?$AAT?$AAS?$AA?$AA@|
	DCD	|??_C@_1BM@MJHOOLKL@?$AAP?$AAO?$AAO?$AAM?$AA_?$AAC?$AAO?$AAN?$AAT?$AAA?$AAC?$AAT?$AAS?$AA?$AA@|
	DCD	|??_C@_1DC@OKEALHMI@?$AAM?$AAE?$AAS?$AAS?$AAA?$AAG?$AAI?$AAN?$AAG?$AA_?$AAA?$AAC?$AAC?$AAO?$AAU?$AAN?$AAT?$AA_?$AAC?$AAO?$AAU?$AAN?$AAT?$AAS?$AA?$AA@|
	DCD	|??_C@_1DE@PEOKINCP@?$AAM?$AAE?$AAS?$AAS?$AAA?$AAG?$AAI?$AAN?$AAG?$AA_?$AAA?$AAV?$AAG?$AAO?$AAP?$AAE?$AAN?$AAT?$AAI?$AAM?$AAE?$AA_?$AAS?$AAM?$AAS?$AA?$AA@|
	DCD	|??_C@_1DE@CFBIIECJ@?$AAM?$AAE?$AAS?$AAS?$AAA?$AAG?$AAI?$AAN?$AAG?$AA_?$AAA?$AAV?$AAG?$AAO?$AAP?$AAE?$AAN?$AAT?$AAI?$AAM?$AAE?$AA_?$AAP?$AAO?$AAP?$AA?$AA@|
	DCD	|??_C@_1DG@DEIKIOAJ@?$AAM?$AAE?$AAS?$AAS?$AAA?$AAG?$AAI?$AAN?$AAG?$AA_?$AAA?$AAV?$AAG?$AAO?$AAP?$AAE?$AAN?$AAT?$AAI?$AAM?$AAE?$AA_?$AAI?$AAM?$AAA?$AAP?$AA?$AA@|
	DCD	|??_C@_1DI@MCBEGBAM@?$AAM?$AAE?$AAS?$AAS?$AAA?$AAG?$AAI?$AAN?$AAG?$AA_?$AAA?$AAV?$AAG?$AAO?$AAP?$AAE?$AAN?$AAT?$AAI?$AAM?$AAE?$AA_?$AAO?$AAT?$AAH?$AAE?$AAR?$AA?$AA@|
	DCD	|??_C@_1EA@NIPIIEFG@?$AAM?$AAE?$AAS?$AAS?$AAA?$AAG?$AAI?$AAN?$AAG?$AA_?$AAN?$AAU?$AAM?$AAB?$AAE?$AAR?$AA_?$AAE?$AAM?$AAA?$AAI?$AAL?$AA_?$AAA?$AAC?$AAC?$AAO?$AAU?$AAN?$AAT?$AAS?$AA?$AA@|
	DCD	|??_C@_1CO@BPJPPMCN@?$AAM?$AAE?$AAS?$AAS?$AAA?$AAG?$AAI?$AAN?$AAG?$AA_?$AAA?$AAC?$AAC?$AAO?$AAU?$AAN?$AAT?$AAS?$AA_?$AAS?$AAM?$AAS?$AA?$AA@|
	DCD	|??_C@_1CO@MOGNPFCL@?$AAM?$AAE?$AAS?$AAS?$AAA?$AAG?$AAI?$AAN?$AAG?$AA_?$AAA?$AAC?$AAC?$AAO?$AAU?$AAN?$AAT?$AAS?$AA_?$AAP?$AAO?$AAP?$AA?$AA@|
	DCD	|??_C@_1DC@BLEKGNGB@?$AAM?$AAE?$AAS?$AAS?$AAA?$AAG?$AAI?$AAN?$AAG?$AA_?$AAA?$AAC?$AAC?$AAO?$AAU?$AAN?$AAT?$AAS?$AA_?$AAI?$AAM?$AAA?$AAP?$AA2?$AA?$AA@|
	DCD	|??_C@_1DC@FILOBNKD@?$AAM?$AAE?$AAS?$AAS?$AAA?$AAG?$AAI?$AAN?$AAG?$AA_?$AAA?$AAC?$AAC?$AAO?$AAU?$AAN?$AAT?$AAS?$AA_?$AAO?$AAT?$AAH?$AAE?$AAR?$AA?$AA@|
	DCD	|??_C@_1EE@FDGPIIFO@?$AAM?$AAE?$AAS?$AAS?$AAA?$AAG?$AAI?$AAN?$AAG?$AA_?$AAC?$AAO?$AAU?$AAN?$AAT?$AA_?$AAT?$AAO?$AAT?$AAA?$AAL?$AAM?$AAS?$AAG?$AA_?$AAE?$AAX?$AAC?$AAH?$AAA?$AAN?$AAG@|
	DCD	|??_C@_1DK@EGBIIFPL@?$AAM?$AAE?$AAS?$AAS?$AAA?$AAG?$AAI?$AAN?$AAG?$AA_?$AAC?$AAO?$AAU?$AAN?$AAT?$AA_?$AAT?$AAO?$AAT?$AAA?$AAL?$AAM?$AAS?$AAG?$AA_?$AAS?$AAM?$AAS?$AA?$AA@|
	DCD	|??_C@_1DK@JHOKIMPN@?$AAM?$AAE?$AAS?$AAS?$AAA?$AAG?$AAI?$AAN?$AAG?$AA_?$AAC?$AAO?$AAU?$AAN?$AAT?$AA_?$AAT?$AAO?$AAT?$AAA?$AAL?$AAM?$AAS?$AAG?$AA_?$AAP?$AAO?$AAP?$AA?$AA@|
	DCD	|??_C@_1DM@NPAFLENC@?$AAM?$AAE?$AAS?$AAS?$AAA?$AAG?$AAI?$AAN?$AAG?$AA_?$AAC?$AAO?$AAU?$AAN?$AAT?$AA_?$AAT?$AAO?$AAT?$AAA?$AAL?$AAM?$AAS?$AAG?$AA_?$AAI?$AAM?$AAA?$AAP?$AA?$AA@|
	DCD	|??_C@_1DO@GGNEEPOF@?$AAM?$AAE?$AAS?$AAS?$AAA?$AAG?$AAI?$AAN?$AAG?$AA_?$AAC?$AAO?$AAU?$AAN?$AAT?$AA_?$AAT?$AAO?$AAT?$AAA?$AAL?$AAM?$AAS?$AAG?$AA_?$AAO?$AAT?$AAH?$AAE?$AAR?$AA?$AA@|
	DCD	|??_C@_1EC@BDBAHCHJ@?$AAM?$AAE?$AAS?$AAS?$AAA?$AAG?$AAI?$AAN?$AAG?$AA_?$AAC?$AAO?$AAU?$AAN?$AAT?$AA_?$AAF?$AAO?$AAL?$AAD?$AAE?$AAR?$AAS?$AA_?$AAE?$AAX?$AAC?$AAH?$AAA?$AAN?$AAG?$AAE@|
	DCD	|??_C@_1DI@CDLHJGMB@?$AAM?$AAE?$AAS?$AAS?$AAA?$AAG?$AAI?$AAN?$AAG?$AA_?$AAC?$AAO?$AAU?$AAN?$AAT?$AA_?$AAF?$AAO?$AAL?$AAD?$AAE?$AAR?$AAS?$AA_?$AAS?$AAM?$AAS?$AA?$AA@|
	DCD	|??_C@_1DI@PCEFJPMH@?$AAM?$AAE?$AAS?$AAS?$AAA?$AAG?$AAI?$AAN?$AAG?$AA_?$AAC?$AAO?$AAU?$AAN?$AAT?$AA_?$AAF?$AAO?$AAL?$AAD?$AAE?$AAR?$AAS?$AA_?$AAP?$AAO?$AAP?$AA?$AA@|
	DCD	|??_C@_1DK@HOBCEONK@?$AAM?$AAE?$AAS?$AAS?$AAA?$AAG?$AAI?$AAN?$AAG?$AA_?$AAC?$AAO?$AAU?$AAN?$AAT?$AA_?$AAF?$AAO?$AAL?$AAD?$AAE?$AAR?$AAS?$AA_?$AAI?$AAM?$AAA?$AAP?$AA?$AA@|
	DCD	|??_C@_1DM@PDGFHPPI@?$AAM?$AAE?$AAS?$AAS?$AAA?$AAG?$AAI?$AAN?$AAG?$AA_?$AAC?$AAO?$AAU?$AAN?$AAT?$AA_?$AAF?$AAO?$AAL?$AAD?$AAE?$AAR?$AAS?$AA_?$AAO?$AAT?$AAH?$AAE?$AAR?$AA?$AA@|
	DCD	|??_C@_1EG@HMJAHILC@?$AAM?$AAE?$AAS?$AAS?$AAA?$AAG?$AAI?$AAN?$AAG?$AA_?$AAF?$AAO?$AAL?$AAD?$AAE?$AAR?$AAS?$AA_?$AAD?$AAE?$AAL?$AAE?$AAT?$AAE?$AAD?$AA_?$AAE?$AAX?$AAC?$AAH?$AAA?$AAN@|
	DCD	|??_C@_1DM@NGALHHEJ@?$AAM?$AAE?$AAS?$AAS?$AAA?$AAG?$AAI?$AAN?$AAG?$AA_?$AAF?$AAO?$AAL?$AAD?$AAE?$AAR?$AAS?$AA_?$AAD?$AAE?$AAL?$AAE?$AAT?$AAE?$AAD?$AA_?$AAS?$AAM?$AAS?$AA?$AA@|
	DCD	|??_C@_1DM@HPJHOEP@?$AAM?$AAE?$AAS?$AAS?$AAA?$AAG?$AAI?$AAN?$AAG?$AA_?$AAF?$AAO?$AAL?$AAD?$AAE?$AAR?$AAS?$AA_?$AAD?$AAE?$AAL?$AAE?$AAT?$AAE?$AAD?$AA_?$AAP?$AAO?$AAP?$AA?$AA@|
	DCD	|??_C@_1DO@FKEFHLML@?$AAM?$AAE?$AAS?$AAS?$AAA?$AAG?$AAI?$AAN?$AAG?$AA_?$AAF?$AAO?$AAL?$AAD?$AAE?$AAR?$AAS?$AA_?$AAD?$AAE?$AAL?$AAE?$AAT?$AAE?$AAD?$AA_?$AAI?$AAM?$AAA?$AAP?$AA?$AA@|
	DCD	|??_C@_1EA@PGAPLMJM@?$AAM?$AAE?$AAS?$AAS?$AAA?$AAG?$AAI?$AAN?$AAG?$AA_?$AAF?$AAO?$AAL?$AAD?$AAE?$AAR?$AAS?$AA_?$AAD?$AAE?$AAL?$AAE?$AAT?$AAE?$AAD?$AA_?$AAO?$AAT?$AAH?$AAE?$AAR?$AA?$AA@|
	DCD	|??_C@_1EE@GEJNHEEE@?$AAM?$AAE?$AAS?$AAS?$AAA?$AAG?$AAI?$AAN?$AAG?$AA_?$AAF?$AAO?$AAL?$AAD?$AAE?$AAR?$AAS?$AA_?$AAD?$AAR?$AAA?$AAF?$AAT?$AAS?$AA_?$AAE?$AAX?$AAC?$AAH?$AAA?$AAN?$AAG@|
	DCD	|??_C@_1DK@HBHEHFFM@?$AAM?$AAE?$AAS?$AAS?$AAA?$AAG?$AAI?$AAN?$AAG?$AA_?$AAF?$AAO?$AAL?$AAD?$AAE?$AAR?$AAS?$AA_?$AAD?$AAR?$AAA?$AAF?$AAT?$AAS?$AA_?$AAS?$AAM?$AAS?$AA?$AA@|
	DCD	|??_C@_1DK@KAIGHMFK@?$AAM?$AAE?$AAS?$AAS?$AAA?$AAG?$AAI?$AAN?$AAG?$AA_?$AAF?$AAO?$AAL?$AAD?$AAE?$AAR?$AAS?$AA_?$AAD?$AAR?$AAA?$AAF?$AAT?$AAS?$AA_?$AAP?$AAO?$AAP?$AA?$AA@|
	DCD	|??_C@_1DM@IDPOFLIM@?$AAM?$AAE?$AAS?$AAS?$AAA?$AAG?$AAI?$AAN?$AAG?$AA_?$AAF?$AAO?$AAL?$AAD?$AAE?$AAR?$AAS?$AA_?$AAD?$AAR?$AAA?$AAF?$AAT?$AAS?$AA_?$AAI?$AAM?$AAA?$AAP?$AA?$AA@|
	DCD	|??_C@_1DO@HCFJJMCN@?$AAM?$AAE?$AAS?$AAS?$AAA?$AAG?$AAI?$AAN?$AAG?$AA_?$AAF?$AAO?$AAL?$AAD?$AAE?$AAR?$AAS?$AA_?$AAD?$AAR?$AAA?$AAF?$AAT?$AAS?$AA_?$AAO?$AAT?$AAH?$AAE?$AAR?$AA?$AA@|
	DCD	|??_C@_1EC@LJNFJPIA@?$AAM?$AAE?$AAS?$AAS?$AAA?$AAG?$AAI?$AAN?$AAG?$AA_?$AAF?$AAO?$AAL?$AAD?$AAE?$AAR?$AAS?$AA_?$AAI?$AAN?$AAB?$AAO?$AAX?$AA_?$AAE?$AAX?$AAC?$AAH?$AAA?$AAN?$AAG?$AAE@|
	DCD	|??_C@_1DI@BJGOGHCF@?$AAM?$AAE?$AAS?$AAS?$AAA?$AAG?$AAI?$AAN?$AAG?$AA_?$AAF?$AAO?$AAL?$AAD?$AAE?$AAR?$AAS?$AA_?$AAI?$AAN?$AAB?$AAO?$AAX?$AA_?$AAS?$AAM?$AAS?$AA?$AA@|
	DCD	|??_C@_1DI@MIJMGOCD@?$AAM?$AAE?$AAS?$AAS?$AAA?$AAG?$AAI?$AAN?$AAG?$AA_?$AAF?$AAO?$AAL?$AAD?$AAE?$AAR?$AAS?$AA_?$AAI?$AAN?$AAB?$AAO?$AAX?$AA_?$AAP?$AAO?$AAP?$AA?$AA@|
	DCD	|??_C@_1DK@IOLKIAGB@?$AAM?$AAE?$AAS?$AAS?$AAA?$AAG?$AAI?$AAN?$AAG?$AA_?$AAF?$AAO?$AAL?$AAD?$AAE?$AAR?$AAS?$AA_?$AAI?$AAN?$AAB?$AAO?$AAX?$AA_?$AAI?$AAM?$AAA?$AAP?$AA?$AA@|
	DCD	|??_C@_1DM@IIIIBHJE@?$AAM?$AAE?$AAS?$AAS?$AAA?$AAG?$AAI?$AAN?$AAG?$AA_?$AAF?$AAO?$AAL?$AAD?$AAE?$AAR?$AAS?$AA_?$AAI?$AAN?$AAB?$AAO?$AAX?$AA_?$AAO?$AAT?$AAH?$AAE?$AAR?$AA?$AA@|
	DCD	|??_C@_1EE@LIFOMOBL@?$AAM?$AAE?$AAS?$AAS?$AAA?$AAG?$AAI?$AAN?$AAG?$AA_?$AAF?$AAO?$AAL?$AAD?$AAE?$AAR?$AAS?$AA_?$AAO?$AAU?$AAT?$AAB?$AAO?$AAX?$AA_?$AAE?$AAX?$AAC?$AAH?$AAA?$AAN?$AAG@|
	DCD	|??_C@_1DK@FGHLIKHI@?$AAM?$AAE?$AAS?$AAS?$AAA?$AAG?$AAI?$AAN?$AAG?$AA_?$AAF?$AAO?$AAL?$AAD?$AAE?$AAR?$AAS?$AA_?$AAO?$AAU?$AAT?$AAB?$AAO?$AAX?$AA_?$AAS?$AAM?$AAS?$AA?$AA@|
	DCD	|??_C@_1DK@IHIJIDHO@?$AAM?$AAE?$AAS?$AAS?$AAA?$AAG?$AAI?$AAN?$AAG?$AA_?$AAF?$AAO?$AAL?$AAD?$AAE?$AAR?$AAS?$AA_?$AAO?$AAU?$AAT?$AAB?$AAO?$AAX?$AA_?$AAP?$AAO?$AAP?$AA?$AA@|
	DCD	|??_C@_1DM@FPBEHCKI@?$AAM?$AAE?$AAS?$AAS?$AAA?$AAG?$AAI?$AAN?$AAG?$AA_?$AAF?$AAO?$AAL?$AAD?$AAE?$AAR?$AAS?$AA_?$AAO?$AAU?$AAT?$AAB?$AAO?$AAX?$AA_?$AAI?$AAM?$AAA?$AAP?$AA?$AA@|
	DCD	|??_C@_1DO@MBADDJAN@?$AAM?$AAE?$AAS?$AAS?$AAA?$AAG?$AAI?$AAN?$AAG?$AA_?$AAF?$AAO?$AAL?$AAD?$AAE?$AAR?$AAS?$AA_?$AAO?$AAU?$AAT?$AAB?$AAO?$AAX?$AA_?$AAO?$AAT?$AAH?$AAE?$AAR?$AA?$AA@|
	DCD	|??_C@_1EA@ECPLMDHH@?$AAM?$AAE?$AAS?$AAS?$AAA?$AAG?$AAI?$AAN?$AAG?$AA_?$AAF?$AAO?$AAL?$AAD?$AAE?$AAR?$AAS?$AA_?$AAS?$AAE?$AAN?$AAT?$AA_?$AAE?$AAX?$AAC?$AAH?$AAA?$AAN?$AAG?$AAE?$AA?$AA@|
	DCD	|??_C@_1DG@KALKLFNA@?$AAM?$AAE?$AAS?$AAS?$AAA?$AAG?$AAI?$AAN?$AAG?$AA_?$AAF?$AAO?$AAL?$AAD?$AAE?$AAR?$AAS?$AA_?$AAS?$AAE?$AAN?$AAT?$AA_?$AAS?$AAM?$AAS?$AA?$AA@|
	DCD	|??_C@_1DG@HBEILMNG@?$AAM?$AAE?$AAS?$AAS?$AAA?$AAG?$AAI?$AAN?$AAG?$AA_?$AAF?$AAO?$AAL?$AAD?$AAE?$AAR?$AAS?$AA_?$AAS?$AAE?$AAN?$AAT?$AA_?$AAP?$AAO?$AAP?$AA?$AA@|
	DCD	|??_C@_1DI@IPKMJPLF@?$AAM?$AAE?$AAS?$AAS?$AAA?$AAG?$AAI?$AAN?$AAG?$AA_?$AAF?$AAO?$AAL?$AAD?$AAE?$AAR?$AAS?$AA_?$AAS?$AAE?$AAN?$AAT?$AA_?$AAI?$AAM?$AAA?$AAP?$AA?$AA@|
	DCD	|??_C@_1DK@OANEBLGM@?$AAM?$AAE?$AAS?$AAS?$AAA?$AAG?$AAI?$AAN?$AAG?$AA_?$AAF?$AAO?$AAL?$AAD?$AAE?$AAR?$AAS?$AA_?$AAS?$AAE?$AAN?$AAT?$AA_?$AAO?$AAT?$AAH?$AAE?$AAR?$AA?$AA@|
	DCD	|??_C@_1DM@IAHNBAKO@?$AAM?$AAE?$AAS?$AAS?$AAA?$AAG?$AAI?$AAN?$AAG?$AA_?$AAS?$AAE?$AAT?$AAU?$AAP?$AA_?$AAS?$AAI?$AAG?$AAN?$AA_?$AAE?$AAX?$AAC?$AAH?$AAA?$AAN?$AAG?$AAE?$AA?$AA@|
	DCD	|??_C@_1DC@CNOBPCOP@?$AAM?$AAE?$AAS?$AAS?$AAA?$AAG?$AAI?$AAN?$AAG?$AA_?$AAS?$AAE?$AAT?$AAU?$AAP?$AA_?$AAS?$AAI?$AAG?$AAN?$AA_?$AAS?$AAM?$AAS?$AA?$AA@|
	DCD	|??_C@_1DC@PMBDPLOJ@?$AAM?$AAE?$AAS?$AAS?$AAA?$AAG?$AAI?$AAN?$AAG?$AA_?$AAS?$AAE?$AAT?$AAU?$AAP?$AA_?$AAS?$AAI?$AAG?$AAN?$AA_?$AAP?$AAO?$AAP?$AA?$AA@|
	DCD	|??_C@_1DE@DPMKOMOB@?$AAM?$AAE?$AAS?$AAS?$AAA?$AAG?$AAI?$AAN?$AAG?$AA_?$AAS?$AAE?$AAT?$AAU?$AAP?$AA_?$AAS?$AAI?$AAG?$AAN?$AA_?$AAI?$AAM?$AAA?$AAP?$AA?$AA@|
	DCD	|??_C@_1DG@PHAPBDNM@?$AAM?$AAE?$AAS?$AAS?$AAA?$AAG?$AAI?$AAN?$AAG?$AA_?$AAS?$AAE?$AAT?$AAU?$AAP?$AA_?$AAS?$AAI?$AAG?$AAN?$AA_?$AAO?$AAT?$AAH?$AAE?$AAR?$AA?$AA@|
	DCD	|??_C@_1EG@PAMGFNMG@?$AAM?$AAE?$AAS?$AAS?$AAA?$AAG?$AAI?$AAN?$AAG?$AA_?$AAS?$AAE?$AAT?$AAU?$AAP?$AA_?$AAE?$AAM?$AAA?$AAI?$AAL?$AAD?$AAA?$AAY?$AAS?$AA_?$AAE?$AAX?$AAC?$AAH?$AAA?$AAN@|
	DCD	|??_C@_1DM@DJLAEEDB@?$AAM?$AAE?$AAS?$AAS?$AAA?$AAG?$AAI?$AAN?$AAG?$AA_?$AAS?$AAE?$AAT?$AAU?$AAP?$AA_?$AAE?$AAM?$AAA?$AAI?$AAL?$AAD?$AAA?$AAY?$AAS?$AA_?$AAS?$AAM?$AAS?$AA?$AA@|
	DCD	|??_C@_1DM@OIECENDH@?$AAM?$AAE?$AAS?$AAS?$AAA?$AAG?$AAI?$AAN?$AAG?$AA_?$AAS?$AAE?$AAT?$AAU?$AAP?$AA_?$AAE?$AAM?$AAA?$AAI?$AAL?$AAD?$AAA?$AAY?$AAS?$AA_?$AAP?$AAO?$AAP?$AA?$AA@|
	DCD	|??_C@_1DO@CHDAGJI@?$AAM?$AAE?$AAS?$AAS?$AAA?$AAG?$AAI?$AAN?$AAG?$AA_?$AAS?$AAE?$AAT?$AAU?$AAP?$AA_?$AAE?$AAM?$AAA?$AAI?$AAL?$AAD?$AAA?$AAY?$AAS?$AA_?$AAI?$AAM?$AAA?$AAP?$AA?$AA@|
	DCD	|??_C@_1EA@EJCNOHLM@?$AAM?$AAE?$AAS?$AAS?$AAA?$AAG?$AAI?$AAN?$AAG?$AA_?$AAS?$AAE?$AAT?$AAU?$AAP?$AA_?$AAE?$AAM?$AAA?$AAI?$AAL?$AAD?$AAA?$AAY?$AAS?$AA_?$AAO?$AAT?$AAH?$AAE?$AAR?$AA?$AA@|
	DCD	|??_C@_1EK@MCCHALFO@?$AAM?$AAE?$AAS?$AAS?$AAA?$AAG?$AAI?$AAN?$AAG?$AA_?$AAS?$AAE?$AAT?$AAU?$AAP?$AA_?$AAB?$AAY?$AAT?$AAE?$AAS?$AAP?$AAE?$AAR?$AAM?$AAS?$AAG?$AA_?$AAE?$AAX?$AAC?$AAH@|
	DCD	|??_C@_1EA@KOMHAPDG@?$AAM?$AAE?$AAS?$AAS?$AAA?$AAG?$AAI?$AAN?$AAG?$AA_?$AAS?$AAE?$AAT?$AAU?$AAP?$AA_?$AAB?$AAY?$AAT?$AAE?$AAS?$AAP?$AAE?$AAR?$AAM?$AAS?$AAG?$AA_?$AAS?$AAM?$AAS?$AA?$AA@|
	DCD	|??_C@_1EA@HPDFAGDA@?$AAM?$AAE?$AAS?$AAS?$AAA?$AAG?$AAI?$AAN?$AAG?$AA_?$AAS?$AAE?$AAT?$AAU?$AAP?$AA_?$AAB?$AAY?$AAT?$AAE?$AAS?$AAP?$AAE?$AAR?$AAM?$AAS?$AAG?$AA_?$AAP?$AAO?$AAP?$AA?$AA@|
	DCD	|??_C@_1EC@KMDMJPDA@?$AAM?$AAE?$AAS?$AAS?$AAA?$AAG?$AAI?$AAN?$AAG?$AA_?$AAS?$AAE?$AAT?$AAU?$AAP?$AA_?$AAB?$AAY?$AAT?$AAE?$AAS?$AAP?$AAE?$AAR?$AAM?$AAS?$AAG?$AA_?$AAI?$AAM?$AAA?$AAP@|
	DCD	|??_C@_1EE@KGCAFEPC@?$AAM?$AAE?$AAS?$AAS?$AAA?$AAG?$AAI?$AAN?$AAG?$AA_?$AAS?$AAE?$AAT?$AAU?$AAP?$AA_?$AAB?$AAY?$AAT?$AAE?$AAS?$AAP?$AAE?$AAR?$AAM?$AAS?$AAG?$AA_?$AAO?$AAT?$AAH?$AAE@|
	DCD	|??_C@_1EG@BMEAAAIH@?$AAM?$AAE?$AAS?$AAS?$AAA?$AAG?$AAI?$AAN?$AAG?$AA_?$AAS?$AAE?$AAT?$AAU?$AAP?$AA_?$AAM?$AAA?$AAX?$AAA?$AAT?$AAT?$AAA?$AAC?$AAH?$AA_?$AAE?$AAX?$AAC?$AAH?$AAA?$AAN@|
	DCD	|??_C@_1DM@EEBDJJJF@?$AAM?$AAE?$AAS?$AAS?$AAA?$AAG?$AAI?$AAN?$AAG?$AA_?$AAS?$AAE?$AAT?$AAU?$AAP?$AA_?$AAM?$AAA?$AAX?$AAA?$AAT?$AAT?$AAA?$AAC?$AAH?$AA_?$AAS?$AAM?$AAS?$AA?$AA@|
	DCD	|??_C@_1DM@JFOBJAJD@?$AAM?$AAE?$AAS?$AAS?$AAA?$AAG?$AAI?$AAN?$AAG?$AA_?$AAS?$AAE?$AAT?$AAU?$AAP?$AA_?$AAM?$AAA?$AAX?$AAA?$AAT?$AAT?$AAA?$AAC?$AAH?$AA_?$AAP?$AAO?$AAP?$AA?$AA@|
	DCD	|??_C@_1DO@DAHKKMLP@?$AAM?$AAE?$AAS?$AAS?$AAA?$AAG?$AAI?$AAN?$AAG?$AA_?$AAS?$AAE?$AAT?$AAU?$AAP?$AA_?$AAM?$AAA?$AAX?$AAA?$AAT?$AAT?$AAA?$AAC?$AAH?$AA_?$AAI?$AAM?$AAA?$AAP?$AA?$AA@|
	DCD	|??_C@_1EA@KFOLCNCG@?$AAM?$AAE?$AAS?$AAS?$AAA?$AAG?$AAI?$AAN?$AAG?$AA_?$AAS?$AAE?$AAT?$AAU?$AAP?$AA_?$AAM?$AAA?$AAX?$AAA?$AAT?$AAT?$AAA?$AAC?$AAH?$AA_?$AAO?$AAT?$AAH?$AAE?$AAR?$AA?$AA@|
	DCD	|??_C@_1FC@MGKLDAEK@?$AAM?$AAE?$AAS?$AAS?$AAA?$AAG?$AAI?$AAN?$AAG?$AA_?$AAS?$AAE?$AAN?$AAD?$AAR?$AAE?$AAC?$AAV?$AAO?$AAP?$AAT?$AA_?$AAC?$AAH?$AAE?$AAC?$AAK?$AAT?$AAI?$AAM?$AAE?$AA_@|
	DCD	|??_C@_1EI@IAHFIHCL@?$AAM?$AAE?$AAS?$AAS?$AAA?$AAG?$AAI?$AAN?$AAG?$AA_?$AAS?$AAE?$AAN?$AAD?$AAR?$AAE?$AAC?$AAV?$AAO?$AAP?$AAT?$AA_?$AAC?$AAH?$AAE?$AAC?$AAK?$AAT?$AAI?$AAM?$AAE?$AA_@|
	DCD	|??_C@_1EI@FBIHIOCN@?$AAM?$AAE?$AAS?$AAS?$AAA?$AAG?$AAI?$AAN?$AAG?$AA_?$AAS?$AAE?$AAN?$AAD?$AAR?$AAE?$AAC?$AAV?$AAO?$AAP?$AAT?$AA_?$AAC?$AAH?$AAE?$AAC?$AAK?$AAT?$AAI?$AAM?$AAE?$AA_@|
	DCD	|??_C@_1EK@LADDNGIM@?$AAM?$AAE?$AAS?$AAS?$AAA?$AAG?$AAI?$AAN?$AAG?$AA_?$AAS?$AAE?$AAN?$AAD?$AAR?$AAE?$AAC?$AAV?$AAO?$AAP?$AAT?$AA_?$AAC?$AAH?$AAE?$AAC?$AAK?$AAT?$AAI?$AAM?$AAE?$AA_@|
	DCD	|??_C@_1EM@OBFAFAHN@?$AAM?$AAE?$AAS?$AAS?$AAA?$AAG?$AAI?$AAN?$AAG?$AA_?$AAS?$AAE?$AAN?$AAD?$AAR?$AAE?$AAC?$AAV?$AAO?$AAP?$AAT?$AA_?$AAC?$AAH?$AAE?$AAC?$AAK?$AAT?$AAI?$AAM?$AAE?$AA_@|
	DCD	|??_C@_1FE@BPGMAAGH@?$AAM?$AAE?$AAS?$AAS?$AAA?$AAG?$AAI?$AAN?$AAG?$AA_?$AAS?$AAE?$AAN?$AAD?$AAR?$AAE?$AAC?$AAV?$AAO?$AAP?$AAT?$AA_?$AAR?$AAE?$AAQ?$AAU?$AAI?$AAR?$AAE?$AAS?$AAS?$AAL@|
	DCD	|??_C@_1EK@KMNBIFD@?$AAM?$AAE?$AAS?$AAS?$AAA?$AAG?$AAI?$AAN?$AAG?$AA_?$AAS?$AAE?$AAN?$AAD?$AAR?$AAE?$AAC?$AAV?$AAO?$AAP?$AAT?$AA_?$AAR?$AAE?$AAQ?$AAU?$AAI?$AAR?$AAE?$AAS?$AAS?$AAL@|
	DCD	|??_C@_1EK@NLDPBBFF@?$AAM?$AAE?$AAS?$AAS?$AAA?$AAG?$AAI?$AAN?$AAG?$AA_?$AAS?$AAE?$AAN?$AAD?$AAR?$AAE?$AAC?$AAV?$AAO?$AAP?$AAT?$AA_?$AAR?$AAE?$AAQ?$AAU?$AAI?$AAR?$AAE?$AAS?$AAS?$AAL@|
	DCD	|??_C@_1EM@DHGFCBBP@?$AAM?$AAE?$AAS?$AAS?$AAA?$AAG?$AAI?$AAN?$AAG?$AA_?$AAS?$AAE?$AAN?$AAD?$AAR?$AAE?$AAC?$AAV?$AAO?$AAP?$AAT?$AA_?$AAR?$AAE?$AAQ?$AAU?$AAI?$AAR?$AAE?$AAS?$AAS?$AAL@|
	DCD	|??_C@_1EO@JIOFGJEN@?$AAM?$AAE?$AAS?$AAS?$AAA?$AAG?$AAI?$AAN?$AAG?$AA_?$AAS?$AAE?$AAN?$AAD?$AAR?$AAE?$AAC?$AAV?$AAO?$AAP?$AAT?$AA_?$AAR?$AAE?$AAQ?$AAU?$AAI?$AAR?$AAE?$AAS?$AAS?$AAL@|
	DCD	|??_C@_1FM@DMEIHHMF@?$AAM?$AAE?$AAS?$AAS?$AAA?$AAG?$AAI?$AAN?$AAG?$AA_?$AAS?$AAE?$AAN?$AAD?$AAR?$AAE?$AAC?$AAV?$AAO?$AAP?$AAT?$AA_?$AAO?$AAU?$AAT?$AAR?$AAE?$AAQ?$AAU?$AAI?$AAR?$AAE@|
	DCD	|??_C@_1FC@IBODKKEB@?$AAM?$AAE?$AAS?$AAS?$AAA?$AAG?$AAI?$AAN?$AAG?$AA_?$AAS?$AAE?$AAN?$AAD?$AAR?$AAE?$AAC?$AAV?$AAO?$AAP?$AAT?$AA_?$AAO?$AAU?$AAT?$AAR?$AAE?$AAQ?$AAU?$AAI?$AAR?$AAE@|
	DCD	|??_C@_1FC@FABBKDEH@?$AAM?$AAE?$AAS?$AAS?$AAA?$AAG?$AAI?$AAN?$AAG?$AA_?$AAS?$AAE?$AAN?$AAD?$AAR?$AAE?$AAC?$AAV?$AAO?$AAP?$AAT?$AA_?$AAO?$AAU?$AAT?$AAR?$AAE?$AAQ?$AAU?$AAI?$AAR?$AAE@|
	DCD	|??_C@_1FE@GKPOAIEC@?$AAM?$AAE?$AAS?$AAS?$AAA?$AAG?$AAI?$AAN?$AAG?$AA_?$AAS?$AAE?$AAN?$AAD?$AAR?$AAE?$AAC?$AAV?$AAO?$AAP?$AAT?$AA_?$AAO?$AAU?$AAT?$AAR?$AAE?$AAQ?$AAU?$AAI?$AAR?$AAE@|
	DCD	|??_C@_1FG@NFECIPKD@?$AAM?$AAE?$AAS?$AAS?$AAA?$AAG?$AAI?$AAN?$AAG?$AA_?$AAS?$AAE?$AAN?$AAD?$AAR?$AAE?$AAC?$AAV?$AAO?$AAP?$AAT?$AA_?$AAO?$AAU?$AAT?$AAR?$AAE?$AAQ?$AAU?$AAI?$AAR?$AAE@|
	DCD	|??_C@_1FA@JFHECEBO@?$AAM?$AAE?$AAS?$AAS?$AAA?$AAG?$AAI?$AAN?$AAG?$AA_?$AAS?$AAE?$AAN?$AAD?$AAR?$AAE?$AAC?$AAV?$AAO?$AAP?$AAT?$AA_?$AAO?$AAU?$AAT?$AAN?$AAO?$AAT?$AAI?$AAN?$AA_?$AAE@|
	DCD	|??_C@_1EG@LHFKIGH@?$AAM?$AAE?$AAS?$AAS?$AAA?$AAG?$AAI?$AAN?$AAG?$AA_?$AAS?$AAE?$AAN?$AAD?$AAR?$AAE?$AAC?$AAV?$AAO?$AAP?$AAT?$AA_?$AAO?$AAU?$AAT?$AAN?$AAO?$AAT?$AAI?$AAN?$AA_?$AAS@|
	DCD	|??_C@_1EG@NKIHKBGB@?$AAM?$AAE?$AAS?$AAS?$AAA?$AAG?$AAI?$AAN?$AAG?$AA_?$AAS?$AAE?$AAN?$AAD?$AAR?$AAE?$AAC?$AAV?$AAO?$AAP?$AAT?$AA_?$AAO?$AAU?$AAT?$AAN?$AAO?$AAT?$AAI?$AAN?$AA_?$AAP@|
	DCD	|??_C@_1EI@EHCOGANM@?$AAM?$AAE?$AAS?$AAS?$AAA?$AAG?$AAI?$AAN?$AAG?$AA_?$AAS?$AAE?$AAN?$AAD?$AAR?$AAE?$AAC?$AAV?$AAO?$AAP?$AAT?$AA_?$AAO?$AAU?$AAT?$AAN?$AAO?$AAT?$AAI?$AAN?$AA_?$AAI@|
	DCD	|??_C@_1EK@HJOJOMIN@?$AAM?$AAE?$AAS?$AAS?$AAA?$AAG?$AAI?$AAN?$AAG?$AA_?$AAS?$AAE?$AAN?$AAD?$AAR?$AAE?$AAC?$AAV?$AAO?$AAP?$AAT?$AA_?$AAO?$AAU?$AAT?$AAN?$AAO?$AAT?$AAI?$AAN?$AA_?$AAO@|
	DCD	|??_C@_1DA@GBPFDBHN@?$AAM?$AAE?$AAS?$AAS?$AAA?$AAG?$AAI?$AAN?$AAG?$AA_?$AAR?$AAE?$AAA?$AAD?$AA_?$AAE?$AAX?$AAC?$AAH?$AAA?$AAN?$AAG?$AAE?$AA?$AA@|
	DCD	|??_C@_1CG@PGCONIOG@?$AAM?$AAE?$AAS?$AAS?$AAA?$AAG?$AAI?$AAN?$AAG?$AA_?$AAR?$AAE?$AAA?$AAD?$AA_?$AAS?$AAM?$AAS?$AA?$AA@|
	DCD	|??_C@_1CG@CHNMNBOA@?$AAM?$AAE?$AAS?$AAS?$AAA?$AAG?$AAI?$AAN?$AAG?$AA_?$AAR?$AAE?$AAA?$AAD?$AA_?$AAP?$AAO?$AAP?$AA?$AA@|
	DCD	|??_C@_1CI@DFLDEFLB@?$AAM?$AAE?$AAS?$AAS?$AAA?$AAG?$AAI?$AAN?$AAG?$AA_?$AAR?$AAE?$AAA?$AAD?$AA_?$AAI?$AAM?$AAA?$AAP?$AA?$AA@|
	DCD	|??_C@_1CK@OCLOFPLN@?$AAM?$AAE?$AAS?$AAS?$AAA?$AAG?$AAI?$AAN?$AAG?$AA_?$AAR?$AAE?$AAA?$AAD?$AA_?$AAO?$AAT?$AAH?$AAE?$AAR?$AA?$AA@|
	DCD	|??_C@_1DG@GALELNGG@?$AAM?$AAE?$AAS?$AAS?$AAA?$AAG?$AAI?$AAN?$AAG?$AA_?$AAN?$AAU?$AAM?$AAS?$AAE?$AAN?$AAT?$AA_?$AAE?$AAX?$AAC?$AAH?$AAA?$AAN?$AAG?$AAE?$AA?$AA@|
	DCD	|??_C@_1CM@JGFFNP@?$AAM?$AAE?$AAS?$AAS?$AAA?$AAG?$AAI?$AAN?$AAG?$AA_?$AAN?$AAU?$AAM?$AAS?$AAE?$AAN?$AAT?$AA_?$AAS?$AAM?$AAS?$AA?$AA@|
	DCD	|??_C@_1CM@NBGEFMNJ@?$AAM?$AAE?$AAS?$AAS?$AAA?$AAG?$AAI?$AAN?$AAG?$AA_?$AAN?$AAU?$AAM?$AAS?$AAE?$AAN?$AAT?$AA_?$AAP?$AAO?$AAP?$AA?$AA@|
	DCD	|??_C@_1CO@KIDOMBCO@?$AAM?$AAE?$AAS?$AAS?$AAA?$AAG?$AAI?$AAN?$AAG?$AA_?$AAN?$AAU?$AAM?$AAS?$AAE?$AAN?$AAT?$AA_?$AAI?$AAM?$AAA?$AAP?$AA?$AA@|
	DCD	|??_C@_1DA@POLCBDNM@?$AAM?$AAE?$AAS?$AAS?$AAA?$AAG?$AAI?$AAN?$AAG?$AA_?$AAN?$AAU?$AAM?$AAS?$AAE?$AAN?$AAT?$AA_?$AAO?$AAT?$AAH?$AAE?$AAR?$AA?$AA@|
	DCD	|??_C@_1CC@NPMBPHGF@?$AAC?$AAA?$AAL?$AAL?$AAE?$AAR?$AA_?$AAI?$AAD?$AA_?$AAL?$AAO?$AAO?$AAK?$AAU?$AAP?$AA?$AA@|
	DCD	|??_C@_1BK@OJPAFFHM@?$AAP?$AAH?$AAO?$AAN?$AAE?$AA_?$AAT?$AAI?$AAM?$AAE?$AAR?$AAS?$AA?$AA@|
	DCD	|??_C@_1BK@CIKCAHDJ@?$AAP?$AAH?$AAO?$AAN?$AAE?$AA_?$AAE?$AAR?$AAR?$AAO?$AAR?$AAS?$AA?$AA@|
	DCD	|??_C@_1CO@KIOMMDEN@?$AAM?$AAE?$AAS?$AAS?$AAA?$AAG?$AAI?$AAN?$AAG?$AA_?$AAU?$AAS?$AAE?$AAR?$AA_?$AAA?$AAC?$AAT?$AAI?$AAO?$AAN?$AAS?$AA?$AA@|
	DCD	|??_C@_1EK@DGNIFIDO@?$AAM?$AAE?$AAS?$AAS?$AAA?$AAG?$AAI?$AAN?$AAG?$AA_?$AAC?$AAO?$AAU?$AAN?$AAT?$AA_?$AAF?$AAO?$AAL?$AAD?$AAE?$AAR?$AAS?$AAS?$AAY?$AAN?$AAC?$AA_?$AAE?$AAX?$AAC?$AAH@|
	DCD	|??_C@_1EA@NKEBOJKJ@?$AAM?$AAE?$AAS?$AAS?$AAA?$AAG?$AAI?$AAN?$AAG?$AA_?$AAC?$AAO?$AAU?$AAN?$AAT?$AA_?$AAF?$AAO?$AAL?$AAD?$AAE?$AAR?$AAS?$AAS?$AAY?$AAN?$AAC?$AA_?$AAS?$AAM?$AAS?$AA?$AA@|
	DCD	|??_C@_1EA@LLDOAKP@?$AAM?$AAE?$AAS?$AAS?$AAA?$AAG?$AAI?$AAN?$AAG?$AA_?$AAC?$AAO?$AAU?$AAN?$AAT?$AA_?$AAF?$AAO?$AAL?$AAD?$AAE?$AAR?$AAS?$AAS?$AAY?$AAN?$AAC?$AA_?$AAP?$AAO?$AAP?$AA?$AA@|
	DCD	|??_C@_1EC@BDIMDKCO@?$AAM?$AAE?$AAS?$AAS?$AAA?$AAG?$AAI?$AAN?$AAG?$AA_?$AAC?$AAO?$AAU?$AAN?$AAT?$AA_?$AAF?$AAO?$AAL?$AAD?$AAE?$AAR?$AAS?$AAS?$AAY?$AAN?$AAC?$AA_?$AAI?$AAM?$AAA?$AAP@|
	DCD	|??_C@_1EE@NENNIDPK@?$AAM?$AAE?$AAS?$AAS?$AAA?$AAG?$AAI?$AAN?$AAG?$AA_?$AAC?$AAO?$AAU?$AAN?$AAT?$AA_?$AAF?$AAO?$AAL?$AAD?$AAE?$AAR?$AAS?$AAS?$AAY?$AAN?$AAC?$AA_?$AAO?$AAT?$AAH?$AAE@|
	DCD	|??_C@_1CM@EFFABNBM@?$AAP?$AAH?$AAO?$AAN?$AAE?$AA_?$AAC?$AAP?$AAR?$AAO?$AAG?$AA_?$AAM?$AAE?$AAM?$AA_?$AAU?$AAS?$AAA?$AAG?$AAE?$AA?$AA@|
	DCD	|??_C@_1CM@DAPFPGLK@?$AAP?$AAH?$AAO?$AAN?$AAE?$AA_?$AAC?$AAD?$AAI?$AAA?$AAL?$AA_?$AAM?$AAE?$AAM?$AA_?$AAU?$AAS?$AAA?$AAG?$AAE?$AA?$AA@|
	DCD	|??_C@_1CK@OENKFNNP@?$AAD?$AAE?$AAV?$AAI?$AAC?$AAE?$AA_?$AAT?$AAI?$AAM?$AAE?$AAS?$AAI?$AAN?$AAC?$AAE?$AAB?$AAO?$AAO?$AAT?$AA?$AA@|
	DCD	|??_C@_1DC@BOJFHDHH@?$AAK?$AAE?$AAR?$AAN?$AAE?$AAL?$AA_?$AAM?$AAE?$AAM?$AAO?$AAR?$AAY?$AA_?$AAV?$AAM?$AAO?$AAO?$AAM?$AAC?$AAO?$AAU?$AAN?$AAT?$AA?$AA@|
	DCD	|??_C@_1DG@JLIFABGF@?$AAK?$AAE?$AAR?$AAN?$AAE?$AAL?$AA_?$AAM?$AAE?$AAM?$AAO?$AAR?$AAY?$AA_?$AAP?$AAH?$AAY?$AAS?$AAO?$AAO?$AAM?$AAC?$AAO?$AAU?$AAN?$AAT?$AA?$AA@|
	DCD	|??_C@_1DG@OBIIBIAL@?$AAK?$AAE?$AAR?$AAN?$AAE?$AAL?$AA_?$AAM?$AAE?$AAM?$AAO?$AAR?$AAY?$AA_?$AAV?$AAM?$AAA?$AAL?$AAL?$AAO?$AAC?$AAC?$AAO?$AAU?$AAN?$AAT?$AA?$AA@|
	DCD	|??_C@_1DM@GDBGBPFD@?$AAK?$AAE?$AAR?$AAN?$AAE?$AAL?$AA_?$AAM?$AAE?$AAM?$AAO?$AAR?$AAY?$AA_?$AAD?$AAL?$AAL?$AA_?$AAL?$AAO?$AAW?$AA_?$AAA?$AAD?$AAD?$AAR?$AAE?$AAS?$AAS?$AA?$AA@|
	DCD	|??_C@_1DM@NMMDGPHC@?$AAK?$AAE?$AAR?$AAN?$AAE?$AAL?$AA_?$AAM?$AAE?$AAM?$AAO?$AAR?$AAY?$AA_?$AAV?$AAM?$AA_?$AAH?$AAI?$AAG?$AAH?$AA_?$AAA?$AAD?$AAD?$AAR?$AAE?$AAS?$AAS?$AA?$AA@|
	DCD	|??_C@_1EC@GFDOHKPH@?$AAK?$AAE?$AAR?$AAN?$AAE?$AAL?$AA_?$AAM?$AAE?$AAM?$AAO?$AAR?$AAY?$AA_?$AAP?$AAH?$AAY?$AAS?$AAI?$AAC?$AAA?$AAL?$AA_?$AAL?$AAO?$AAW?$AA_?$AAC?$AAO?$AAU?$AAN?$AAT@|
	DCD	|??_C@_1EC@MDPDIDGD@?$AAK?$AAE?$AAR?$AAN?$AAE?$AAL?$AA_?$AAM?$AAE?$AAM?$AAO?$AAR?$AAY?$AA_?$AAR?$AAA?$AAM?$AA_?$AAB?$AAA?$AAS?$AAE?$AAL?$AAI?$AAN?$AAE?$AA_?$AAC?$AAO?$AAU?$AAN?$AAT@|
	DCD	|??_C@_1CK@FOGMGJKL@?$AAK?$AAE?$AAR?$AAN?$AAE?$AAL?$AA_?$AAM?$AAE?$AAM?$AAO?$AAR?$AAY?$AA_?$AAV?$AAM?$AA_?$AAG?$AAA?$AAP?$AA?$AA@|
	DCD	|??_C@_1CO@JNDFJJIK@?$AAM?$AAS?$AAG?$AA_?$AAN?$AAU?$AAM?$AAB?$AAE?$AAR?$AA_?$AAO?$AAF?$AA_?$AAA?$AAC?$AAC?$AAO?$AAU?$AAN?$AAT?$AAS?$AA?$AA@|
	DCD	|??_C@_1EK@FLIFMJHL@?$AAM?$AAS?$AAG?$AA_?$AAN?$AAU?$AAM?$AAB?$AAE?$AAR?$AA_?$AAO?$AAF?$AA_?$AAA?$AAC?$AAC?$AAO?$AAU?$AAN?$AAT?$AAS?$AA_?$AAM?$AAA?$AAP?$AAP?$AAI?$AAN?$AAG?$AA_?$AAD@|
	DCD	|??_C@_1EK@PJLDCDFP@?$AAM?$AAS?$AAG?$AA_?$AAA?$AAC?$AAC?$AAO?$AAU?$AAN?$AAT?$AA_?$AAU?$AAS?$AAA?$AAG?$AAE?$AA_?$AAT?$AAY?$AAP?$AAE?$AA_?$AAM?$AAA?$AAP?$AAP?$AAI?$AAN?$AAG?$AA_?$AAD@|
	DCD	|??_C@_1EI@OOKNOJJA@?$AAM?$AAS?$AAG?$AA_?$AAE?$AAX?$AAC?$AAH?$AAA?$AAN?$AAG?$AAE?$AA_?$AAE?$AAM?$AAA?$AAI?$AAL?$AA_?$AAP?$AAA?$AAR?$AAT?$AAN?$AAE?$AAR?$AAS?$AAH?$AAI?$AAP?$AA_?$AAT@|
	DCD	|??_C@_1EI@MPCFNPJI@?$AAM?$AAS?$AAG?$AA_?$AAN?$AAU?$AAM?$AAB?$AAE?$AAR?$AA_?$AAO?$AAF?$AA_?$AAT?$AAI?$AAM?$AAE?$AAS?$AA_?$AAM?$AAE?$AAS?$AAS?$AAA?$AAG?$AAE?$AAS?$AA_?$AAO?$AAP?$AAE@|
	DCD	|??_C@_1DE@HPIAADCN@?$AAM?$AAS?$AAG?$AA_?$AAL?$AAE?$AAF?$AAT?$AA_?$AAR?$AAI?$AAG?$AAH?$AAT?$AA_?$AAU?$AAS?$AAE?$AAD?$AA_?$AAI?$AAN?$AA_?$AAR?$AAF?$AA?$AA@|
	DCD	|??_C@_1EI@EECKEEHN@?$AAM?$AAS?$AAG?$AA_?$AAE?$AAV?$AAE?$AAR?$AAY?$AA_?$AAT?$AAE?$AAN?$AA_?$AAP?$AAE?$AAR?$AAC?$AAE?$AAN?$AAT?$AA_?$AAM?$AAA?$AAP?$AAP?$AAI?$AAN?$AAG?$AA_?$AAD?$AAU@|
	DCD	|??_C@_1CA@EHKLBLFK@?$AAM?$AAS?$AAG?$AA_?$AAL?$AAV?$AA_?$AAN?$AAE?$AAW?$AA_?$AAU?$AAS?$AAE?$AAD?$AA?$AA@|
	DCD	|??_C@_1CE@EGJAFMMM@?$AAM?$AAS?$AAG?$AA_?$AAL?$AAV?$AA_?$AAR?$AAE?$AAP?$AAL?$AAY?$AA_?$AAU?$AAS?$AAE?$AAD?$AA?$AA@|
	DCD	|??_C@_1CM@FCMEODIF@?$AAM?$AAS?$AAG?$AA_?$AAL?$AAV?$AA_?$AAR?$AAE?$AAP?$AAL?$AAY?$AA_?$AAA?$AAL?$AAL?$AA_?$AAU?$AAS?$AAE?$AAD?$AA?$AA@|
	DCD	|??_C@_1CI@BEOLOBKG@?$AAM?$AAS?$AAG?$AA_?$AAL?$AAV?$AA_?$AAF?$AAO?$AAR?$AAW?$AAA?$AAR?$AAD?$AA_?$AAU?$AAS?$AAE?$AAD?$AA?$AA@|
	DCD	|??_C@_1CG@DOCPHIKI@?$AAM?$AAS?$AAG?$AA_?$AAL?$AAV?$AA_?$AAD?$AAE?$AAL?$AAE?$AAT?$AAE?$AA_?$AAU?$AAS?$AAE?$AAD?$AA?$AA@|
	DCD	|??_C@_1DA@LIKGHMPF@?$AAM?$AAS?$AAG?$AA_?$AAL?$AAV?$AA_?$AAM?$AAA?$AAR?$AAK?$AA_?$AAU?$AAN?$AAR?$AAE?$AAA?$AAD?$AA_?$AAU?$AAS?$AAE?$AAD?$AA?$AA@|
	DCD	|??_C@_1CC@MNGDDMKD@?$AAM?$AAS?$AAG?$AA_?$AAL?$AAV?$AA_?$AAF?$AAL?$AAA?$AAG?$AA_?$AAU?$AAS?$AAE?$AAD?$AA?$AA@|
	DCD	|??_C@_1CC@OPCHHIPP@?$AAM?$AAS?$AAG?$AA_?$AAL?$AAV?$AA_?$AAM?$AAO?$AAV?$AAE?$AA_?$AAU?$AAS?$AAE?$AAD?$AA?$AA@|
	DCD	|??_C@_1CI@DBBGHACC@?$AAM?$AAS?$AAG?$AA_?$AAL?$AAV?$AA_?$AAF?$AAO?$AAL?$AAD?$AAE?$AAR?$AAS?$AA_?$AAU?$AAS?$AAE?$AAD?$AA?$AA@|
	DCD	|??_C@_1DI@GKJIGBDM@?$AAM?$AAS?$AAG?$AA_?$AAL?$AAV?$AA_?$AAS?$AAW?$AAI?$AAT?$AAC?$AAH?$AA_?$AAA?$AAC?$AAC?$AAO?$AAU?$AAN?$AAT?$AAS?$AA_?$AAU?$AAS?$AAE?$AAD?$AA?$AA@|
	DCD	|??_C@_1CE@GJJPIEJJ@?$AAM?$AAS?$AAG?$AA_?$AAL?$AAV?$AA_?$AAT?$AAO?$AAO?$AAL?$AAS?$AA_?$AAU?$AAS?$AAE?$AAD?$AA?$AA@|
	DCD	|??_C@_1DK@GBJOAFBB@?$AAM?$AAS?$AAG?$AA_?$AAL?$AAV?$AA_?$AAD?$AAO?$AAW?$AAN?$AAL?$AAO?$AAA?$AAD?$AA_?$AAM?$AAE?$AAS?$AAS?$AAA?$AAG?$AAE?$AA_?$AAU?$AAS?$AAE?$AAD?$AA?$AA@|
	DCD	|??_C@_1DC@FEEICIMD@?$AAM?$AAS?$AAG?$AA_?$AAL?$AAV?$AA_?$AAS?$AAE?$AAN?$AAD?$AA_?$AAR?$AAE?$AAC?$AAE?$AAI?$AAV?$AAE?$AA_?$AAU?$AAS?$AAE?$AAD?$AA?$AA@|
	DCD	|??_C@_1CE@PPIODAMC@?$AAM?$AAS?$AAG?$AA_?$AAR?$AAF?$AA_?$AAR?$AAE?$AAP?$AAL?$AAY?$AA_?$AAU?$AAS?$AAE?$AAD?$AA?$AA@|
	DCD	|??_C@_1CM@CPFDNOKI@?$AAM?$AAS?$AAG?$AA_?$AAR?$AAF?$AA_?$AAR?$AAE?$AAP?$AAL?$AAY?$AA_?$AAA?$AAL?$AAL?$AA_?$AAU?$AAS?$AAE?$AAD?$AA?$AA@|
	DCD	|??_C@_1CI@NDAFJACG@?$AAM?$AAS?$AAG?$AA_?$AAR?$AAF?$AA_?$AAF?$AAO?$AAR?$AAW?$AAA?$AAR?$AAD?$AA_?$AAU?$AAS?$AAE?$AAD?$AA?$AA@|
	DCD	|??_C@_1CG@OEKIMBEL@?$AAM?$AAS?$AAG?$AA_?$AAR?$AAF?$AA_?$AAD?$AAE?$AAL?$AAE?$AAT?$AAE?$AA_?$AAU?$AAS?$AAE?$AAD?$AA?$AA@|
	DCD	|??_C@_1DA@NGPJGMIJ@?$AAM?$AAS?$AAG?$AA_?$AAR?$AAF?$AA_?$AAM?$AAA?$AAR?$AAK?$AA_?$AAU?$AAN?$AAR?$AAE?$AAA?$AAD?$AA_?$AAU?$AAS?$AAE?$AAD?$AA?$AA@|
	DCD	|??_C@_1CC@HCKNOIOL@?$AAM?$AAS?$AAG?$AA_?$AAR?$AAF?$AA_?$AAF?$AAL?$AAA?$AAG?$AA_?$AAU?$AAS?$AAE?$AAD?$AA?$AA@|
	DCD	|??_C@_1CC@FAOJKMLH@?$AAM?$AAS?$AAG?$AA_?$AAR?$AAF?$AA_?$AAM?$AAO?$AAV?$AAE?$AA_?$AAU?$AAS?$AAE?$AAD?$AA?$AA@|
	DCD	|??_C@_1CC@MEBCFCMC@?$AAM?$AAS?$AAG?$AA_?$AAR?$AAF?$AA_?$AAV?$AAI?$AAE?$AAW?$AA_?$AAU?$AAS?$AAE?$AAD?$AA?$AA@|
	DCD	|??_C@_1DK@HGKEPEKE@?$AAM?$AAS?$AAG?$AA_?$AAR?$AAF?$AA_?$AAD?$AAO?$AAW?$AAN?$AAL?$AAO?$AAA?$AAD?$AA_?$AAM?$AAE?$AAS?$AAS?$AAA?$AAG?$AAE?$AA_?$AAU?$AAS?$AAE?$AAD?$AA?$AA@|
	DCD	|??_C@_1DC@MKHFGAAC@?$AAM?$AAS?$AAG?$AA_?$AAR?$AAF?$AA_?$AAS?$AAE?$AAN?$AAD?$AA_?$AAR?$AAE?$AAC?$AAE?$AAI?$AAV?$AAE?$AA_?$AAU?$AAS?$AAE?$AAD?$AA?$AA@|
	DCD	|??_C@_1EK@ONEGIGNI@?$AAM?$AAS?$AAG?$AA_?$AAE?$AAV?$AAE?$AAR?$AAY?$AA_?$AAF?$AAI?$AAV?$AAE?$AA_?$AAP?$AAE?$AAR?$AAC?$AAE?$AAN?$AAT?$AA_?$AAM?$AAA?$AAP?$AAP?$AAI?$AAN?$AAG?$AA_?$AAD@|
	DCD	|??_C@_1FA@BDOHGECC@?$AAM?$AAS?$AAG?$AA_?$AAL?$AAE?$AAF?$AAT?$AA_?$AAR?$AAI?$AAG?$AAH?$AAT?$AA_?$AAU?$AAS?$AAA?$AAG?$AAE?$AA_?$AAT?$AAY?$AAP?$AAE?$AA_?$AAM?$AAA?$AAP?$AAP?$AAI?$AAN@|
	DCD	|??_C@_1CO@CDBKKPFE@?$AAM?$AAS?$AAG?$AA_?$AAL?$AAV?$AA_?$AAM?$AAE?$AAN?$AAU?$AA_?$AAU?$AAS?$AAE?$AAD?$AA_?$AAT?$AAO?$AAT?$AAA?$AAL?$AA?$AA@|
	DCD	|??_C@_1CO@FLFIMEDN@?$AAM?$AAS?$AAG?$AA_?$AAR?$AAF?$AA_?$AAM?$AAE?$AAN?$AAU?$AA_?$AAU?$AAS?$AAE?$AAD?$AA_?$AAT?$AAO?$AAT?$AAA?$AAL?$AA?$AA@|
	DCD	|??_C@_1CI@LLHJDIJF@?$AAM?$AAS?$AAG?$AA_?$AAL?$AAV?$AA_?$AAS?$AAO?$AAR?$AAT?$AA_?$AAO?$AAP?$AAT?$AAI?$AAO?$AAN?$AAS?$AA?$AA@|
	DCD	|??_C@_1CM@NFKMKFJJ@?$AAM?$AAS?$AAG?$AA_?$AAF?$AAU?$AAN?$AAC?$AAT?$AAI?$AAO?$AAN?$AAS?$AA_?$AAE?$AAN?$AAA?$AAB?$AAL?$AAE?$AAD?$AA?$AA@|
	DCD	|??_C@_1EO@FDFBIBNG@?$AAD?$AAE?$AAV?$AAE?$AAX?$AA_?$AAA?$AAP?$AAP?$AAC?$AAO?$AAM?$AAP?$AAA?$AAT?$AA_?$AAI?$AAN?$AAS?$AAT?$AAA?$AAL?$AAL?$AAE?$AAD?$AA_?$AAA?$AAP?$AAP?$AAS?$AA_?$AAC@|
	DCD	|??_C@_1CA@KPFGFGJB@?$AAC?$AAA?$AAL?$AA_?$AAT?$AAO?$AAT?$AAA?$AAL?$AA_?$AAC?$AAO?$AAU?$AAN?$AAT?$AA?$AA@|
	DCD	|??_C@_1DO@CAGJGBNC@?$AAC?$AAA?$AAL?$AA_?$AAA?$AAP?$AAP?$AAT?$AA_?$AAS?$AAI?$AAN?$AAG?$AAL?$AAE?$AA_?$AAI?$AAN?$AAS?$AAT?$AAA?$AAN?$AAC?$AAE?$AA_?$AAC?$AAO?$AAU?$AAN?$AAT?$AA?$AA@|
	DCD	|??_C@_1DK@OBAGEICH@?$AAC?$AAA?$AAL?$AA_?$AAA?$AAP?$AAP?$AAT?$AA_?$AAR?$AAE?$AAC?$AAU?$AAR?$AAR?$AAS?$AA_?$AAD?$AAA?$AAI?$AAL?$AAY?$AA_?$AAC?$AAO?$AAU?$AAN?$AAT?$AA?$AA@|
	DCD	|??_C@_1DK@JEHNBKKE@?$AAC?$AAA?$AAL?$AA_?$AAA?$AAP?$AAP?$AAT?$AA_?$AAR?$AAE?$AAC?$AAU?$AAR?$AAS?$AA_?$AAW?$AAE?$AAE?$AAK?$AAL?$AAY?$AA_?$AAC?$AAO?$AAU?$AAN?$AAT?$AA?$AA@|
	DCD	|??_C@_1DM@PEJIKMHK@?$AAC?$AAA?$AAL?$AA_?$AAA?$AAP?$AAP?$AAT?$AA_?$AAR?$AAE?$AAC?$AAU?$AAR?$AAS?$AA_?$AAM?$AAO?$AAN?$AAT?$AAH?$AAL?$AAY?$AA_?$AAC?$AAO?$AAU?$AAN?$AAT?$AA?$AA@|
	DCD	|??_C@_1DK@LKFBDPHI@?$AAC?$AAA?$AAL?$AA_?$AAA?$AAP?$AAP?$AAT?$AA_?$AAR?$AAE?$AAC?$AAU?$AAR?$AAS?$AA_?$AAY?$AAE?$AAA?$AAR?$AAL?$AAY?$AA_?$AAC?$AAO?$AAU?$AAN?$AAT?$AA?$AA@|
	DCD	|??_C@_1DK@PEBPMMIB@?$AAC?$AAA?$AAL?$AA_?$AAA?$AAP?$AAP?$AAT?$AA_?$AAR?$AAE?$AAC?$AAU?$AAR?$AAS?$AA_?$AAC?$AAU?$AAS?$AAT?$AAO?$AAM?$AA_?$AAC?$AAO?$AAU?$AAN?$AAT?$AA?$AA@|
	DCD	|??_C@_1CE@MLFBEFPJ@?$AAT?$AAA?$AAS?$AAK?$AAS?$AA_?$AAT?$AAO?$AAT?$AAA?$AAL?$AA_?$AAC?$AAO?$AAU?$AAN?$AAT?$AA?$AA@|
	DCD	|??_C@_1DK@NILNLI@?$AAC?$AAA?$AAL?$AA_?$AAT?$AAA?$AAS?$AAK?$AA_?$AAR?$AAE?$AAC?$AAU?$AAR?$AAS?$AA_?$AAW?$AAE?$AAE?$AAK?$AAL?$AAY?$AA_?$AAC?$AAO?$AAU?$AAN?$AAT?$AA?$AA@|
	DCD	|??_C@_1DM@FKFNFDMJ@?$AAC?$AAA?$AAL?$AA_?$AAT?$AAA?$AAS?$AAK?$AA_?$AAR?$AAE?$AAC?$AAU?$AAR?$AAS?$AA_?$AAM?$AAO?$AAN?$AAT?$AAH?$AAL?$AAY?$AA_?$AAC?$AAO?$AAU?$AAN?$AAT?$AA?$AA@|
	DCD	|??_C@_1DK@COPEJIGE@?$AAC?$AAA?$AAL?$AA_?$AAT?$AAA?$AAS?$AAK?$AA_?$AAR?$AAE?$AAC?$AAU?$AAR?$AAS?$AA_?$AAY?$AAE?$AAA?$AAR?$AAL?$AAY?$AA_?$AAC?$AAO?$AAU?$AAN?$AAT?$AA?$AA@|
	DCD	|??_C@_1DO@MCIDNNOB@?$AAC?$AAA?$AAL?$AA_?$AAT?$AAA?$AAS?$AAK?$AA_?$AAS?$AAI?$AAN?$AAG?$AAL?$AAE?$AA_?$AAI?$AAN?$AAS?$AAT?$AAA?$AAN?$AAC?$AAE?$AA_?$AAC?$AAO?$AAU?$AAN?$AAT?$AA?$AA@|
	DCD	|??_C@_1CA@HCECKEBM@?$AAC?$AAA?$AAL?$AA_?$AAS?$AAY?$AAN?$AAC?$AA_?$AAF?$AAI?$AAL?$AAT?$AAE?$AAR?$AA?$AA@|
	DCD	|??_C@_1CI@COGLFKMJ@?$AAC?$AAA?$AAL?$AA_?$AAV?$AAI?$AAE?$AAW?$AA_?$AAM?$AAE?$AAN?$AAU?$AA_?$AAT?$AAO?$AAT?$AAA?$AAL?$AA?$AA@|
	DCD	|??_C@_1DA@MAAJKFKP@?$AAC?$AAA?$AAL?$AA_?$AAV?$AAI?$AAE?$AAW?$AA_?$AAM?$AAE?$AAN?$AAU?$AA_?$AAG?$AAO?$AAT?$AAO?$AAT?$AAO?$AAD?$AAA?$AAY?$AA?$AA@|
	DCD	|??_C@_1CK@OOHPMJJE@?$AAC?$AAA?$AAL?$AA_?$AAV?$AAI?$AAE?$AAW?$AA_?$AAM?$AAE?$AAN?$AAU?$AA_?$AAD?$AAE?$AAL?$AAE?$AAT?$AAE?$AA?$AA@|
	DCD	|??_C@_1CI@IJGHNFGJ@?$AAC?$AAA?$AAL?$AA_?$AAV?$AAI?$AAE?$AAW?$AA_?$AAM?$AAE?$AAN?$AAU?$AA_?$AAR?$AAE?$AAP?$AAL?$AAY?$AA?$AA@|
	DCD	|??_C@_1CO@GKJEKOOP@?$AAC?$AAA?$AAL?$AA_?$AAV?$AAI?$AAE?$AAW?$AA_?$AAM?$AAE?$AAN?$AAU?$AA_?$AAR?$AAE?$AAP?$AAL?$AAY?$AAA?$AAL?$AAL?$AA?$AA@|
	DCD	|??_C@_1CM@FKIOIJLM@?$AAC?$AAA?$AAL?$AA_?$AAV?$AAI?$AAE?$AAW?$AA_?$AAM?$AAE?$AAN?$AAU?$AA_?$AAF?$AAO?$AAR?$AAW?$AAA?$AAR?$AAD?$AA?$AA@|
	DCD	|??_C@_1CO@HKJBLBPD@?$AAC?$AAA?$AAL?$AA_?$AAV?$AAI?$AAE?$AAW?$AA_?$AAM?$AAE?$AAN?$AAU?$AA_?$AAG?$AAO?$AAT?$AAO?$AAD?$AAA?$AAT?$AAE?$AA?$AA@|
	DCD	|??_C@_1CM@MNNJKELH@?$AAC?$AAA?$AAL?$AA_?$AAV?$AAI?$AAE?$AAW?$AA_?$AAM?$AAE?$AAN?$AAU?$AA_?$AAO?$AAP?$AAT?$AAI?$AAO?$AAN?$AAS?$AA?$AA@|
	DCD	|??_C@_1CE@FIGGIPCP@?$AAC?$AAA?$AAL?$AA_?$AAV?$AAI?$AAE?$AAW?$AA_?$AAM?$AAE?$AAN?$AAU?$AA_?$AAN?$AAE?$AAW?$AA?$AA@|
	DCD	|??_C@_1CO@FJJJCLLO@?$AAC?$AAA?$AAL?$AA_?$AAS?$AAU?$AAM?$AAM?$AAA?$AAR?$AAY?$AA_?$AAM?$AAE?$AAN?$AAU?$AA_?$AAT?$AAO?$AAT?$AAA?$AAL?$AA?$AA@|
	DCD	|??_C@_1DA@LINAMGEM@?$AAC?$AAA?$AAL?$AA_?$AAS?$AAU?$AAM?$AAM?$AAA?$AAR?$AAY?$AA_?$AAM?$AAE?$AAN?$AAU?$AA_?$AAC?$AAA?$AAN?$AAC?$AAE?$AAL?$AA?$AA@|
	DCD	|??_C@_1DA@KJADBAPN@?$AAC?$AAA?$AAL?$AA_?$AAS?$AAU?$AAM?$AAM?$AAA?$AAR?$AAY?$AA_?$AAM?$AAE?$AAN?$AAU?$AA_?$AAD?$AAE?$AAL?$AAE?$AAT?$AAE?$AA?$AA@|
	DCD	|??_C@_1CO@POJFKEBO@?$AAC?$AAA?$AAL?$AA_?$AAS?$AAU?$AAM?$AAM?$AAA?$AAR?$AAY?$AA_?$AAM?$AAE?$AAN?$AAU?$AA_?$AAR?$AAE?$AAP?$AAL?$AAY?$AA?$AA@|
	DCD	|??_C@_1DE@MFNAPKBA@?$AAC?$AAA?$AAL?$AA_?$AAS?$AAU?$AAM?$AAM?$AAA?$AAR?$AAY?$AA_?$AAM?$AAE?$AAN?$AAU?$AA_?$AAR?$AAE?$AAP?$AAL?$AAY?$AAA?$AAL?$AAL?$AA?$AA@|
	DCD	|??_C@_1DC@BBLOHEFO@?$AAC?$AAA?$AAL?$AA_?$AAS?$AAU?$AAM?$AAM?$AAA?$AAR?$AAY?$AA_?$AAM?$AAE?$AAN?$AAU?$AA_?$AAF?$AAO?$AAR?$AAW?$AAA?$AAR?$AAD?$AA?$AA@|
	DCD	|??_C@_1CM@IHPDCJAF@?$AAC?$AAA?$AAL?$AA_?$AAS?$AAU?$AAM?$AAM?$AAA?$AAR?$AAY?$AA_?$AAM?$AAE?$AAN?$AAU?$AA_?$AAB?$AAE?$AAA?$AAM?$AA?$AA@|
	DCD	|??_C@_1CM@GIMHKIJK@?$AAC?$AAA?$AAL?$AA_?$AAS?$AAU?$AAM?$AAM?$AAA?$AAR?$AAY?$AA_?$AAM?$AAE?$AAN?$AAU?$AA_?$AAE?$AAD?$AAI?$AAT?$AA?$AA@|
	DCD	|??_C@_1DG@NIIELIMI@?$AAD?$AAA?$AAT?$AAA?$AAI?$AAD?$AA_?$AAC?$AAA?$AAL?$AA_?$AAP?$AAA?$AAI?$AAN?$AAT?$AA_?$AAA?$AAP?$AAP?$AAT?$AA_?$AAL?$AAI?$AAS?$AAT?$AA?$AA@|
	DCD	|??_C@_1DK@FHPBGMCN@?$AAC?$AAA?$AAL?$AA_?$AAP?$AAE?$AAR?$AAF?$AA_?$AAM?$AAE?$AAE?$AAT?$AAI?$AAN?$AAG?$AAR?$AAE?$AAQ?$AAU?$AAE?$AAS?$AAT?$AA_?$AAO?$AAP?$AAE?$AAN?$AA?$AA@|
	DCD	|??_C@_1DM@NPJFNCMG@?$AAO?$AAf?$AAf?$AAi?$AAc?$AAe?$AAM?$AAo?$AAb?$AAi?$AAl?$AAe?$AA_?$AAW?$AAo?$AAr?$AAd?$AA_?$AAA?$AAp?$AAp?$AA_?$AAV?$AAe?$AAr?$AAs?$AAi?$AAo?$AAn?$AA?$AA@|
	DCD	|??_C@_1EG@FDPEMNIM@?$AAO?$AAf?$AAf?$AAi?$AAc?$AAe?$AAM?$AAo?$AAb?$AAi?$AAl?$AAe?$AA_?$AAW?$AAo?$AAr?$AAd?$AA_?$AAF?$AAi?$AAl?$AAe?$AA_?$AAI?$AAn?$AAf?$AAo?$AAr?$AAm?$AAa?$AAt?$AAi@|
	DCD	|??_C@_1DI@KCKLLAGM@?$AAO?$AAf?$AAf?$AAi?$AAc?$AAe?$AAM?$AAo?$AAb?$AAi?$AAl?$AAe?$AA_?$AAW?$AAo?$AAr?$AAd?$AA_?$AAF?$AAi?$AAl?$AAe?$AA_?$AAS?$AAi?$AAz?$AAe?$AA?$AA@|
	DCD	|??_C@_1EC@MNCDJDNO@?$AAO?$AAf?$AAf?$AAi?$AAc?$AAe?$AAM?$AAo?$AAb?$AAi?$AAl?$AAe?$AA_?$AAW?$AAo?$AAr?$AAd?$AA_?$AAP?$AAa?$AAg?$AAe?$AA_?$AAL?$AAo?$AAa?$AAd?$AA_?$AAT?$AAi?$AAm?$AAe@|
	DCD	|??_C@_1EC@JOFMMNEA@?$AAO?$AAf?$AAf?$AAi?$AAc?$AAe?$AAM?$AAo?$AAb?$AAi?$AAl?$AAe?$AA_?$AAW?$AAo?$AAr?$AAd?$AA_?$AAF?$AAi?$AAl?$AAe?$AA_?$AAL?$AAo?$AAa?$AAd?$AA_?$AAT?$AAi?$AAm?$AAe@|
	DCD	|??_C@_1DI@JACNMILC@?$AAO?$AAf?$AAf?$AAi?$AAc?$AAe?$AAM?$AAo?$AAb?$AAi?$AAl?$AAe?$AA_?$AAW?$AAo?$AAr?$AAd?$AA_?$AAS?$AAa?$AAv?$AAe?$AA_?$AAT?$AAi?$AAm?$AAe?$AA?$AA@|
	DCD	|??_C@_1EG@DKJLFFOL@?$AAO?$AAf?$AAf?$AAi?$AAc?$AAe?$AAM?$AAo?$AAb?$AAi?$AAl?$AAe?$AA_?$AAW?$AAo?$AAr?$AAd?$AA_?$AAC?$AAa?$AAn?$AAc?$AAe?$AAl?$AA_?$AAL?$AAo?$AAa?$AAd?$AA_?$AAT?$AAi@|
	DCD	|??_C@_1DK@MOGDPBPJ@?$AAO?$AAf?$AAf?$AAi?$AAc?$AAe?$AAM?$AAo?$AAb?$AAi?$AAl?$AAe?$AA_?$AAW?$AAo?$AAr?$AAd?$AA_?$AAC?$AAl?$AAo?$AAs?$AAe?$AA_?$AAT?$AAi?$AAm?$AAe?$AA?$AA@|
	DCD	|??_C@_1DI@OEMFMEAM@?$AAO?$AAf?$AAf?$AAi?$AAc?$AAe?$AAM?$AAo?$AAb?$AAi?$AAl?$AAe?$AA_?$AAW?$AAo?$AAr?$AAd?$AA_?$AAV?$AAi?$AAe?$AAw?$AA_?$AAT?$AAi?$AAm?$AAe?$AA?$AA@|
	DCD	|??_C@_1DI@IDECBLBL@?$AAO?$AAf?$AAf?$AAi?$AAc?$AAe?$AAM?$AAo?$AAb?$AAi?$AAl?$AAe?$AA_?$AAW?$AAo?$AAr?$AAd?$AA_?$AAE?$AAd?$AAi?$AAt?$AA_?$AAT?$AAi?$AAm?$AAe?$AA?$AA@|
	DCD	|??_C@_1CM@FABOALCI@?$AAM?$AAS?$AAG?$AA_?$AAS?$AAM?$AAS?$AA_?$AAR?$AAE?$AAC?$AAE?$AAI?$AAV?$AAE?$AAD?$AA_?$AAS?$AAE?$AAN?$AAT?$AA?$AA@|
	DCD	|??_C@_1EI@OFGEEACA@?$AAM?$AAS?$AAG?$AA_?$AAS?$AAM?$AAS?$AA_?$AAR?$AAE?$AAC?$AAE?$AAI?$AAV?$AAE?$AAD?$AA_?$AAS?$AAE?$AAN?$AAT?$AA_?$AAM?$AAA?$AAP?$AAP?$AAI?$AAN?$AAG?$AA_?$AAD?$AAU@|
	DCD	|??_C@_1BM@ILELMCFO@?$AAM?$AAS?$AAG?$AA_?$AAI?$AAR?$AAM?$AA_?$AAU?$AAS?$AAA?$AAG?$AAE?$AA?$AA@|
	DCD	|??_C@_1EE@HLLPLDOK@?$AAM?$AAS?$AAG?$AA_?$AAE?$AAX?$AAC?$AAH?$AAA?$AAN?$AAG?$AAE?$AA_?$AAM?$AAE?$AAS?$AAS?$AAA?$AAG?$AAE?$AAS?$AA_?$AAO?$AAP?$AAE?$AAN?$AAE?$AAD?$AA_?$AAS?$AAE?$AAN@|
	DCD	|??_C@_1DK@NMKLFPFE@?$AAM?$AAS?$AAG?$AA_?$AAS?$AAE?$AAA?$AAR?$AAC?$AAH?$AA_?$AAS?$AAM?$AAA?$AAR?$AAT?$AAF?$AAI?$AAL?$AAT?$AAE?$AAR?$AA_?$AAU?$AAS?$AAA?$AAG?$AAE?$AA?$AA@|
	DCD	|??_C@_1DI@MECLOJDJ@?$AAM?$AAS?$AAG?$AA_?$AAI?$AAR?$AAM?$AA_?$AAU?$AAS?$AAA?$AAG?$AAE?$AA_?$AAM?$AAA?$AAP?$AAP?$AAI?$AAN?$AAG?$AA_?$AAD?$AAU?$AAM?$AAM?$AAY?$AA?$AA@|
	DCD	|??_C@_1EE@JJHOLKLD@?$AAM?$AAS?$AAG?$AA_?$AAS?$AAE?$AAA?$AAR?$AAC?$AAH?$AA_?$AAE?$AAX?$AAC?$AAH?$AAA?$AAN?$AAG?$AAE?$AA_?$AAM?$AAA?$AAP?$AAP?$AAI?$AAN?$AAG?$AA_?$AAD?$AAU?$AAM?$AAM@|
	DCD	|??_C@_1DM@BJHGCPGD@?$AAM?$AAS?$AAG?$AA_?$AAS?$AAM?$AAA?$AAR?$AAT?$AAF?$AAI?$AAL?$AAT?$AAE?$AAR?$AA_?$AAM?$AAA?$AAP?$AAP?$AAI?$AAN?$AAG?$AA_?$AAD?$AAU?$AAM?$AAM?$AAY?$AA?$AA@|
	DCD	|??_C@_1DG@GNDFPHAJ@?$AAC?$AAO?$AAN?$AAT?$AAA?$AAC?$AAT?$AAS?$AA_?$AAT?$AAO?$AAT?$AAA?$AAL?$AAO?$AAF?$AA_?$AAS?$AAO?$AAU?$AAR?$AAC?$AAE?$AAI?$AAD?$AAS?$AA?$AA@|
	DCD	|??_C@_1EG@MFOMLDCM@?$AAC?$AAO?$AAN?$AAT?$AAA?$AAC?$AAT?$AAS?$AA_?$AAT?$AAO?$AAT?$AAA?$AAL?$AA_?$AAR?$AAE?$AAG?$AAI?$AAS?$AAT?$AAE?$AAR?$AAE?$AAD?$AA_?$AAS?$AAO?$AAU?$AAR?$AAC?$AAE@|
	DCD	|??_C@_1EK@PBNIPCMD@?$AAC?$AAO?$AAN?$AAT?$AAA?$AAC?$AAT?$AAS?$AA_?$AAT?$AAO?$AAT?$AAA?$AAL?$AA_?$AAU?$AAN?$AAR?$AAE?$AAG?$AAI?$AAS?$AAT?$AAE?$AAR?$AAE?$AAD?$AA_?$AAS?$AAO?$AAU?$AAR@|
	DCD	|??_C@_1CK@OCIFHOAB@?$AAC?$AAO?$AAN?$AAT?$AAA?$AAC?$AAT?$AAS?$AA_?$AAA?$AAC?$AAC?$AAO?$AAU?$AAN?$AAT?$AA_?$AAM?$AAM?$AAS?$AA?$AA@|
	DCD	|??_C@_1DE@EKHGIIIA@?$AAC?$AAO?$AAN?$AAT?$AAA?$AAC?$AAT?$AAS?$AA_?$AAB?$AAD?$AAA?$AAY?$AA_?$AAA?$AAN?$AAN?$AAI?$AAV?$AAE?$AAR?$AAS?$AAA?$AAR?$AAY?$AA?$AA@|
	DCD	|??_C@_1DA@PMJKBNJN@?$AAC?$AAO?$AAN?$AAT?$AAA?$AAC?$AAT?$AAS?$AA_?$AAM?$AAN?$AAG?$AAR?$AA_?$AAA?$AAS?$AAS?$AAT?$AA_?$AAN?$AAA?$AAM?$AAE?$AA?$AA@|
	DCD	|??_C@_1DG@KMOGBIFB@?$AAC?$AAO?$AAN?$AAT?$AAA?$AAC?$AAT?$AAS?$AA_?$AAA?$AAS?$AAS?$AAT?$AA_?$AAP?$AAA?$AAG?$AAE?$AAR?$AA_?$AAN?$AAU?$AAM?$AAB?$AAE?$AAR?$AA?$AA@|
	DCD	|??_C@_1DI@IDLMJJN@?$AAC?$AAO?$AAN?$AAT?$AAA?$AAC?$AAT?$AAS?$AA_?$AAC?$AAO?$AAM?$AAP?$AAA?$AAN?$AAY?$AA_?$AAC?$AAA?$AAR?$AA_?$AAN?$AAU?$AAM?$AAB?$AAE?$AAR?$AA?$AA@|
	DCD	|??_C@_1DC@MNIJDPOD@?$AAC?$AAO?$AAN?$AAT?$AAA?$AAC?$AAT?$AAS?$AA_?$AAC?$AAH?$AAI?$AAL?$AAD?$AAR?$AAE?$AAN?$AA_?$AAS?$AAP?$AAO?$AAU?$AAS?$AAE?$AA?$AA@|
	DCD	|??_C@_1CC@KJMOCFKC@?$AAC?$AAO?$AAN?$AAT?$AAA?$AAC?$AAT?$AAS?$AA_?$AAC?$AAO?$AAM?$AAP?$AAA?$AAN?$AAY?$AA?$AA@|
	DCD	|??_C@_1DE@KMLHGALA@?$AAC?$AAO?$AAN?$AAT?$AAA?$AAC?$AAT?$AAS?$AA_?$AAP?$AAI?$AAC?$AAT?$AAU?$AAR?$AAE?$AA_?$AAR?$AAI?$AAN?$AAG?$AAT?$AAO?$AAN?$AAE?$AA?$AA@|
	DCD	|??_C@_1CM@PLHMLFKL@?$AAC?$AAO?$AAN?$AAT?$AAA?$AAC?$AAT?$AAS?$AA_?$AAI?$AAD?$AA_?$AAC?$AAU?$AAS?$AAT?$AA_?$AAG?$AAO?$AAV?$AAT?$AA?$AA@|
	DCD	|??_C@_1CI@EPKPNMPM@?$AAC?$AAO?$AAN?$AAT?$AAA?$AAC?$AAT?$AAS?$AA_?$AAD?$AAE?$AAP?$AAT?$AA_?$AAT?$AAI?$AAT?$AAL?$AAE?$AA?$AA@|
	DCD	|??_C@_1CI@ICGKCIPH@?$AAC?$AAO?$AAN?$AAT?$AAA?$AAC?$AAT?$AAS?$AA_?$AAE?$AAM?$AAA?$AAI?$AAL?$AA_?$AAI?$AAM?$AA_?$AA1?$AA?$AA@|
	DCD	|??_C@_1CI@JANPIHBJ@?$AAC?$AAO?$AAN?$AAT?$AAA?$AAC?$AAT?$AAS?$AA_?$AAE?$AAM?$AAA?$AAI?$AAL?$AA_?$AAI?$AAM?$AA_?$AA2?$AA?$AA@|
	DCD	|??_C@_1CI@CIGDOAHM@?$AAC?$AAO?$AAN?$AAT?$AAA?$AAC?$AAT?$AAS?$AA_?$AAE?$AAM?$AAA?$AAI?$AAL?$AA_?$AAI?$AAM?$AA_?$AA3?$AA?$AA@|
	DCD	|??_C@_1CA@PFJLJPGF@?$AAC?$AAO?$AAN?$AAT?$AAA?$AAC?$AAT?$AAS?$AA_?$AAF?$AAI?$AAL?$AAE?$AAA?$AAS?$AA?$AA@|
	DCD	|??_C@_1CG@DGCEKFCD@?$AAC?$AAO?$AAN?$AAT?$AAA?$AAC?$AAT?$AAS?$AA_?$AAF?$AAI?$AAR?$AAS?$AAT?$AAN?$AAA?$AAM?$AAE?$AA?$AA@|
	DCD	|??_C@_1CE@LDEBACBB@?$AAC?$AAO?$AAN?$AAT?$AAA?$AAC?$AAT?$AAS?$AA_?$AAL?$AAA?$AAS?$AAT?$AAN?$AAA?$AAM?$AAE?$AA?$AA@|
	DCD	|??_C@_1CG@EFHMODDA@?$AAC?$AAO?$AAN?$AAT?$AAA?$AAC?$AAT?$AAS?$AA_?$AAS?$AAM?$AAA?$AAR?$AAT?$AAP?$AAR?$AAO?$AAP?$AA?$AA@|
	DCD	|??_C@_1CM@EBKEHNBD@?$AAC?$AAO?$AAN?$AAT?$AAA?$AAC?$AAT?$AAS?$AA_?$AAT?$AAI?$AAT?$AAL?$AAE?$AA_?$AAS?$AAU?$AAF?$AAF?$AAI?$AAX?$AA?$AA@|
	DCD	|??_C@_1CO@GFBBAAPJ@?$AAC?$AAO?$AAN?$AAT?$AAA?$AAC?$AAT?$AAS?$AA_?$AAO?$AAT?$AAH?$AAE?$AAR?$AA_?$AAZ?$AAI?$AAP?$AA_?$AAW?$AAW?$AAW?$AA?$AA@|
	DCD	|??_C@_1DA@LACBDLEN@?$AAC?$AAO?$AAN?$AAT?$AAA?$AAC?$AAT?$AAS?$AA_?$AAC?$AAI?$AAT?$AAY?$AA_?$AAH?$AAO?$AAM?$AAE?$AA_?$AAW?$AAO?$AAR?$AAK?$AA?$AA@|
	DCD	|??_C@_1DE@PPKKPFAE@?$AAC?$AAO?$AAN?$AAT?$AAA?$AAC?$AAT?$AAS?$AA_?$AAS?$AAT?$AAR?$AAE?$AAE?$AAT?$AA_?$AAH?$AAO?$AAM?$AAE?$AA_?$AAW?$AAO?$AAR?$AAK?$AA?$AA@|
	DCD	|??_C@_1DG@PMMNGOBH@?$AAC?$AAO?$AAN?$AAT?$AAA?$AAC?$AAT?$AAS?$AA_?$AAC?$AAO?$AAU?$AAN?$AAT?$AAR?$AAY?$AA_?$AAH?$AAO?$AAM?$AAE?$AA_?$AAW?$AAO?$AAR?$AAK?$AA?$AA@|
	DCD	|??_C@_1DK@NIPIPDFK@?$AAC?$AAO?$AAN?$AAT?$AAA?$AAC?$AAT?$AAS?$AA_?$AAM?$AAO?$AAB?$AAI?$AAL?$AAE?$AA_?$AAR?$AAA?$AAD?$AAI?$AAO?$AA_?$AAN?$AAU?$AAM?$AAB?$AAE?$AAR?$AA?$AA@|
	DCD	|??_C@_1DC@CNMHGFPJ@?$AAC?$AAO?$AAN?$AAT?$AAA?$AAC?$AAT?$AAS?$AA_?$AAM?$AAI?$AAD?$AAD?$AAL?$AAE?$AA_?$AAN?$AAI?$AAC?$AAK?$AAN?$AAA?$AAM?$AAE?$AA?$AA@|
	DCD	|??_C@_1DC@JFECFPID@?$AAC?$AAO?$AAN?$AAT?$AAA?$AAC?$AAT?$AAS?$AA_?$AAN?$AAO?$AAT?$AAE?$AAS?$AA_?$AAO?$AAF?$AAF?$AAI?$AAC?$AAE?$AAL?$AAO?$AAC?$AA?$AA@|
	DCD	|??_C@_1DE@HJHDKNFN@?$AAC?$AAO?$AAN?$AAT?$AAA?$AAC?$AAT?$AAS?$AA_?$AAH?$AAO?$AAM?$AAE?$AA_?$AAW?$AAO?$AAR?$AAK?$AA_?$AAN?$AAU?$AAM?$AAB?$AAE?$AAR?$AA?$AA@|
	DCD	|??_C@_1DG@POCOCMBF@?$AAC?$AAO?$AAN?$AAT?$AAA?$AAC?$AAT?$AAS?$AA_?$AAO?$AAT?$AAH?$AAE?$AAR?$AA_?$AAS?$AAT?$AAR?$AAE?$AAE?$AAT?$AA_?$AAC?$AAI?$AAT?$AAY?$AA?$AA@|
	DCD	|??_C@_1CK@JMMNJJCD@?$AAC?$AAO?$AAN?$AAT?$AAA?$AAC?$AAT?$AAS?$AA_?$AAL?$AAV?$AA_?$AAM?$AAE?$AAN?$AAU?$AA_?$AAN?$AAE?$AAW?$AA?$AA@|
	DCD	|??_C@_1DE@LEPNMAAF@?$AAC?$AAO?$AAN?$AAT?$AAA?$AAC?$AAT?$AAS?$AA_?$AAL?$AAV?$AA_?$AAM?$AAE?$AAN?$AAU?$AA_?$AAE?$AAD?$AAI?$AAT?$AA_?$AAG?$AAA?$AAL?$AA?$AA@|
	DCD	|??_C@_1CO@GDBLCIIL@?$AAC?$AAO?$AAN?$AAT?$AAA?$AAC?$AAT?$AAS?$AA_?$AAF?$AAA?$AAX?$AA_?$AAH?$AAO?$AAM?$AAE?$AA_?$AAW?$AAO?$AAR?$AAK?$AA?$AA@|
	DCD	|??_C@_1DC@MOBDNOJB@?$AAC?$AAO?$AAN?$AAT?$AAA?$AAC?$AAT?$AAS?$AA_?$AAS?$AAT?$AAA?$AAT?$AAE?$AA_?$AAH?$AAO?$AAM?$AAE?$AA_?$AAW?$AAO?$AAR?$AAK?$AA?$AA@|
	DCD	|??_C@_1DG@PNFALFBF@?$AAC?$AAO?$AAN?$AAT?$AAA?$AAC?$AAT?$AAS?$AA_?$AAH?$AAO?$AAM?$AAE?$AA_?$AAW?$AAO?$AAR?$AAK?$AA_?$AAN?$AAU?$AAM?$AAB?$AAE?$AAR?$AA2?$AA?$AA@|
	DCD	|??_C@_1CO@PEBIPEMF@?$AAC?$AAO?$AAN?$AAT?$AAA?$AAC?$AAT?$AAS?$AA_?$AAZ?$AAI?$AAP?$AA_?$AAH?$AAO?$AAM?$AAE?$AA_?$AAW?$AAO?$AAR?$AAK?$AA?$AA@|
	DCD	|??_C@_1DK@FNMHHEMG@?$AAC?$AAO?$AAN?$AAT?$AAA?$AAC?$AAT?$AAS?$AA_?$AAO?$AAT?$AAH?$AAE?$AAR?$AA_?$AAS?$AAT?$AAA?$AAT?$AAE?$AA_?$AAC?$AAO?$AAU?$AAN?$AAT?$AAR?$AAY?$AA?$AA@|
	DCD	|??_C@_1EI@PHNCCGFH@?$AAC?$AAO?$AAN?$AAT?$AAA?$AAC?$AAT?$AAS?$AA_?$AAL?$AAV?$AA_?$AAM?$AAE?$AAN?$AAU?$AA_?$AAV?$AAI?$AAE?$AAW?$AAB?$AAY?$AA_?$AAN?$AAA?$AAM?$AAE?$AAC?$AAO?$AAM?$AAP@|
	DCD	|??_C@_1EE@JAMPAOOG@?$AAC?$AAO?$AAN?$AAT?$AAA?$AAC?$AAT?$AAS?$AA_?$AAL?$AAV?$AA_?$AAM?$AAE?$AAN?$AAU?$AA_?$AAF?$AAI?$AAL?$AAT?$AAE?$AAR?$AA_?$AAA?$AAN?$AAY?$AAR?$AAE?$AAC?$AAE?$AAN@|
	DCD	|??_C@_1EG@JCCPNPLE@?$AAC?$AAO?$AAN?$AAT?$AAA?$AAC?$AAT?$AAS?$AA_?$AAL?$AAV?$AA_?$AAM?$AAE?$AAN?$AAU?$AA_?$AAM?$AAE?$AAN?$AAU?$AA_?$AAS?$AAE?$AAN?$AAD?$AA_?$AAB?$AAE?$AAA?$AAM?$AAS@|
	DCD	|??_C@_1DI@IGGHCFAK@?$AAC?$AAO?$AAN?$AAT?$AAA?$AAC?$AAT?$AAS?$AA_?$AAL?$AAV?$AA_?$AAM?$AAE?$AAN?$AAU?$AA_?$AAD?$AAE?$AAL?$AAE?$AAT?$AAE?$AAC?$AAO?$AAP?$AAY?$AA?$AA@|
	DCD	|??_C@_1DK@FIMILAMD@?$AAC?$AAO?$AAN?$AAT?$AAA?$AAC?$AAT?$AAS?$AA_?$AAL?$AAV?$AA_?$AAM?$AAE?$AAN?$AAU?$AA_?$AAT?$AAO?$AAT?$AAA?$AAL?$AAC?$AAL?$AAI?$AAC?$AAK?$AAS?$AA?$AA@|
	DCD	|??_C@_1EK@PEJFEIJK@?$AAC?$AAO?$AAN?$AAT?$AAA?$AAC?$AAT?$AAS?$AA_?$AAL?$AAV?$AA_?$AAC?$AAO?$AAN?$AAT?$AAE?$AAX?$AAT?$AA_?$AAS?$AAM?$AAS?$AA_?$AAA?$AAD?$AAD?$AAS?$AAP?$AAE?$AAE?$AAD@|
	DCD	|??_C@_1EC@MMCLGIBP@?$AAC?$AAO?$AAN?$AAT?$AAA?$AAC?$AAT?$AAS?$AA_?$AAL?$AAV?$AA_?$AAC?$AAO?$AAN?$AAT?$AAE?$AAX?$AAT?$AA_?$AAS?$AAE?$AAN?$AAD?$AA_?$AAB?$AAE?$AAA?$AAM?$AAS?$AAM?$AAS@|
	DCD	|??_C@_1DO@DHOFJPA@?$AAC?$AAO?$AAN?$AAT?$AAA?$AAC?$AAT?$AAS?$AA_?$AAL?$AAV?$AA_?$AAC?$AAO?$AAN?$AAT?$AAE?$AAX?$AAT?$AA_?$AAD?$AAE?$AAL?$AAE?$AAT?$AAE?$AAC?$AAO?$AAP?$AAY?$AA?$AA@|
	DCD	|??_C@_1EC@FHAPEDEA@?$AAC?$AAO?$AAN?$AAT?$AAA?$AAC?$AAT?$AAS?$AA_?$AAS?$AAU?$AAM?$AAC?$AAA?$AAR?$AAD?$AA_?$AAM?$AAE?$AAN?$AAU?$AAA?$AAC?$AAT?$AAI?$AAO?$AAN?$AA_?$AAE?$AAD?$AAI?$AAT@|
	DCD	|??_C@_1EO@COFGCAAF@?$AAC?$AAO?$AAN?$AAT?$AAA?$AAC?$AAT?$AAS?$AA_?$AAS?$AAU?$AAM?$AAC?$AAA?$AAR?$AAD?$AA_?$AAM?$AAE?$AAN?$AAU?$AA_?$AAD?$AAE?$AAL?$AAE?$AAT?$AAE?$AA_?$AAS?$AAA?$AAV@|
	DCD	|??_C@_1EA@FHIHPOFE@?$AAC?$AAO?$AAN?$AAT?$AAA?$AAC?$AAT?$AAS?$AA_?$AAS?$AAU?$AAM?$AAC?$AAA?$AAR?$AAD?$AA_?$AAM?$AAE?$AAN?$AAU?$AAA?$AAC?$AAT?$AAI?$AAO?$AAN?$AA_?$AAS?$AAM?$AAS?$AA?$AA@|
	DCD	|??_C@_1FC@KBKPNKKF@?$AAC?$AAO?$AAN?$AAT?$AAA?$AAC?$AAT?$AAS?$AA_?$AAS?$AAU?$AAM?$AAC?$AAA?$AAR?$AAD?$AA_?$AAM?$AAE?$AAN?$AAU?$AAA?$AAC?$AAT?$AAI?$AAO?$AAN?$AA_?$AAV?$AAI?$AAE?$AAW@|
	DCD	|??_C@_1FA@OKJFPMMI@?$AAC?$AAO?$AAN?$AAT?$AAA?$AAC?$AAT?$AAS?$AA_?$AAS?$AAU?$AAM?$AAC?$AAA?$AAR?$AAD?$AA_?$AAM?$AAE?$AAN?$AAU?$AA_?$AAA?$AAD?$AAD?$AAE?$AAD?$AAI?$AAT?$AA_?$AAS?$AAP@|
	DCD	|??_C@_1EE@ENLFJIIA@?$AAC?$AAO?$AAN?$AAT?$AAA?$AAC?$AAT?$AAS?$AA_?$AAS?$AAU?$AAM?$AAC?$AAA?$AAR?$AAD?$AA_?$AAM?$AAE?$AAN?$AAU?$AA_?$AAA?$AAD?$AAD?$AAV?$AAO?$AAI?$AAC?$AAE?$AAT?$AAA@|
	DCD	|??_C@_1EG@FEMLJBKD@?$AAC?$AAO?$AAN?$AAT?$AAA?$AAC?$AAT?$AAS?$AA_?$AAS?$AAU?$AAM?$AAC?$AAA?$AAR?$AAD?$AA_?$AAM?$AAE?$AAN?$AAU?$AA_?$AAS?$AAE?$AAN?$AAD?$AA_?$AAB?$AAE?$AAA?$AAM?$AAS@|
	DCD	|??_C@_1DE@IBAMDACJ@?$AAC?$AAO?$AAN?$AAT?$AAA?$AAC?$AAT?$AAS?$AA_?$AAG?$AAA?$AAL?$AA_?$AAL?$AAV?$AA_?$AAN?$AAE?$AAW?$AAS?$AAE?$AAA?$AAR?$AAC?$AAH?$AA?$AA@|
	DCD	|??_C@_1DO@NBNEBLEL@?$AAC?$AAO?$AAN?$AAT?$AAA?$AAC?$AAT?$AAS?$AA_?$AAG?$AAA?$AAL?$AA_?$AAL?$AAV?$AA_?$AAS?$AAA?$AAV?$AAE?$AAT?$AAO?$AAC?$AAO?$AAN?$AAT?$AAA?$AAC?$AAT?$AAS?$AA?$AA@|
	DCD	|??_C@_1DG@FCNDALNK@?$AAC?$AAO?$AAN?$AAT?$AAA?$AAC?$AAT?$AAS?$AA_?$AAG?$AAA?$AAL?$AAC?$AAA?$AAR?$AAD?$AA_?$AAM?$AAE?$AAN?$AAU?$AA_?$AAS?$AAA?$AAV?$AAE?$AA?$AA@|
	DCD	|??_C@_1EA@CEAENPOI@?$AAC?$AAO?$AAN?$AAT?$AAA?$AAC?$AAT?$AAS?$AA_?$AAG?$AAA?$AAL?$AAC?$AAA?$AAR?$AAD?$AA_?$AAM?$AAE?$AAN?$AAU?$AAA?$AAC?$AAT?$AAI?$AAO?$AAN?$AA_?$AAS?$AAM?$AAS?$AA?$AA@|
	DCD	|??_C@_1EE@OOEEKANG@?$AAC?$AAO?$AAN?$AAT?$AAA?$AAC?$AAT?$AAS?$AA_?$AAS?$AAU?$AAM?$AAC?$AAA?$AAR?$AAD?$AA_?$AAM?$AAE?$AAN?$AAU?$AA_?$AAT?$AAO?$AAT?$AAA?$AAL?$AAC?$AAL?$AAI?$AAC?$AAK@|
	DCD	|??_C@_1EC@KKKLFLGD@?$AAC?$AAO?$AAN?$AAT?$AAA?$AAC?$AAT?$AAS?$AA_?$AAS?$AAI?$AAM?$AAC?$AAA?$AAR?$AAD?$AA_?$AAM?$AAE?$AAN?$AAU?$AAA?$AAC?$AAT?$AAI?$AAO?$AAN?$AA_?$AAE?$AAD?$AAI?$AAT@|
	DCD	|??_C@_1FI@PLBFPFDA@?$AAC?$AAO?$AAN?$AAT?$AAA?$AAC?$AAT?$AAS?$AA_?$AAS?$AAI?$AAM?$AAC?$AAA?$AAR?$AAD?$AA_?$AAM?$AAE?$AAN?$AAU?$AA_?$AAD?$AAE?$AAL?$AAE?$AAT?$AAE?$AA_?$AAS?$AAA?$AAV@|
	DCD	|??_C@_1EA@LKAHFGGO@?$AAC?$AAO?$AAN?$AAT?$AAA?$AAC?$AAT?$AAS?$AA_?$AAS?$AAI?$AAM?$AAC?$AAA?$AAR?$AAD?$AA_?$AAM?$AAE?$AAN?$AAU?$AAA?$AAC?$AAT?$AAI?$AAO?$AAN?$AA_?$AAS?$AAM?$AAS?$AA?$AA@|
	DCD	|??_C@_1EG@PNBOJEPH@?$AAC?$AAO?$AAN?$AAT?$AAA?$AAC?$AAT?$AAS?$AA_?$AAS?$AAI?$AAM?$AAC?$AAA?$AAR?$AAD?$AA_?$AAM?$AAE?$AAN?$AAU?$AA_?$AAS?$AAE?$AAN?$AAD?$AA_?$AAB?$AAE?$AAA?$AAM?$AAS@|
	DCD	|??_C@_1FA@IMDDHBHA@?$AAC?$AAO?$AAN?$AAT?$AAA?$AAC?$AAT?$AAS?$AA_?$AAS?$AAI?$AAM?$AAC?$AAA?$AAR?$AAD?$AA_?$AAM?$AAE?$AAN?$AAU?$AA_?$AAA?$AAD?$AAD?$AAE?$AAD?$AAI?$AAT?$AA_?$AAS?$AAP@|
	DCD	|??_C@_1FC@BOLKGHCO@?$AAC?$AAO?$AAN?$AAT?$AAA?$AAC?$AAT?$AAS?$AA_?$AAS?$AAI?$AAM?$AAC?$AAA?$AAR?$AAD?$AA_?$AAM?$AAE?$AAN?$AAU?$AAA?$AAC?$AAT?$AAI?$AAO?$AAN?$AA_?$AAV?$AAI?$AAE?$AAW@|
	DCD	|??_C@_1DO@DIFJJFJM@?$AAO?$AAf?$AAf?$AAi?$AAc?$AAe?$AAM?$AAo?$AAb?$AAi?$AAl?$AAe?$AA_?$AAE?$AAx?$AAc?$AAe?$AAl?$AA_?$AAA?$AAp?$AAp?$AA_?$AAV?$AAe?$AAr?$AAs?$AAi?$AAo?$AAn?$AA?$AA@|
	DCD	|??_C@_1EI@KMDPHPCC@?$AAO?$AAf?$AAf?$AAi?$AAc?$AAe?$AAM?$AAo?$AAb?$AAi?$AAl?$AAe?$AA_?$AAE?$AAx?$AAc?$AAe?$AAl?$AA_?$AAF?$AAi?$AAl?$AAe?$AA_?$AAI?$AAn?$AAf?$AAo?$AAr?$AAm?$AAa?$AAt@|
	DCD	|??_C@_1DK@JBCHGGAF@?$AAO?$AAf?$AAf?$AAi?$AAc?$AAe?$AAM?$AAo?$AAb?$AAi?$AAl?$AAe?$AA_?$AAE?$AAx?$AAc?$AAe?$AAl?$AA_?$AAF?$AAi?$AAl?$AAe?$AA_?$AAS?$AAi?$AAz?$AAe?$AA?$AA@|
	DCD	|??_C@_1EE@EJKMPFBD@?$AAO?$AAf?$AAf?$AAi?$AAc?$AAe?$AAM?$AAo?$AAb?$AAi?$AAl?$AAe?$AA_?$AAE?$AAx?$AAc?$AAe?$AAl?$AA_?$AAF?$AAi?$AAl?$AAe?$AA_?$AAL?$AAo?$AAa?$AAd?$AA_?$AAT?$AAi?$AAm@|
	DCD	|??_C@_1DK@KDKBBONL@?$AAO?$AAf?$AAf?$AAi?$AAc?$AAe?$AAM?$AAo?$AAb?$AAi?$AAl?$AAe?$AA_?$AAE?$AAx?$AAc?$AAe?$AAl?$AA_?$AAS?$AAa?$AAv?$AAe?$AA_?$AAT?$AAi?$AAm?$AAe?$AA?$AA@|
	DCD	|??_C@_1DM@BFOMGFHK@?$AAO?$AAf?$AAf?$AAi?$AAc?$AAe?$AAM?$AAo?$AAb?$AAi?$AAl?$AAe?$AA_?$AAE?$AAx?$AAc?$AAe?$AAl?$AA_?$AAC?$AAl?$AAo?$AAs?$AAe?$AA_?$AAT?$AAi?$AAm?$AAe?$AA?$AA@|
	DCD	|??_C@_1EI@MFFAOHEF@?$AAO?$AAf?$AAf?$AAi?$AAc?$AAe?$AAM?$AAo?$AAb?$AAi?$AAl?$AAe?$AA_?$AAE?$AAx?$AAc?$AAe?$AAl?$AA_?$AAC?$AAa?$AAn?$AAc?$AAe?$AAl?$AA_?$AAL?$AAo?$AAa?$AAd?$AA_?$AAT@|
	DCD	|??_C@_1EI@BFHEPCJJ@?$AAO?$AAf?$AAf?$AAi?$AAc?$AAe?$AAM?$AAo?$AAb?$AAi?$AAl?$AAe?$AA_?$AAP?$AAo?$AAw?$AAe?$AAr?$AAp?$AAo?$AAi?$AAn?$AAt?$AA_?$AAA?$AAp?$AAp?$AA_?$AAV?$AAe?$AAr?$AAs@|
	DCD	|??_C@_1EE@MACAOMJA@?$AAO?$AAf?$AAf?$AAi?$AAc?$AAe?$AAM?$AAo?$AAb?$AAi?$AAl?$AAe?$AA_?$AAP?$AAP?$AAT?$AA_?$AAC?$AAa?$AAn?$AAc?$AAe?$AAl?$AA_?$AAL?$AAo?$AAa?$AAd?$AA_?$AAT?$AAi?$AAm@|
	DCD	|??_C@_1EG@PCBIBNEG@?$AAO?$AAf?$AAf?$AAi?$AAc?$AAe?$AAM?$AAo?$AAb?$AAi?$AAl?$AAe?$AA_?$AAP?$AAo?$AAw?$AAe?$AAr?$AAp?$AAo?$AAi?$AAn?$AAt?$AA_?$AAC?$AAl?$AAo?$AAs?$AAe?$AA_?$AAT?$AAi@|
	DCD	|??_C@_1FC@LOANHHNA@?$AAO?$AAf?$AAf?$AAi?$AAc?$AAe?$AAM?$AAo?$AAb?$AAi?$AAl?$AAe?$AA_?$AAP?$AAo?$AAw?$AAe?$AAr?$AAp?$AAo?$AAi?$AAn?$AAt?$AA_?$AAF?$AAi?$AAl?$AAe?$AA_?$AAI?$AAn?$AAf@|
	DCD	|??_C@_1EO@FALOGNKN@?$AAO?$AAf?$AAf?$AAi?$AAc?$AAe?$AAM?$AAo?$AAb?$AAi?$AAl?$AAe?$AA_?$AAP?$AAo?$AAw?$AAe?$AAr?$AAp?$AAo?$AAi?$AAn?$AAt?$AA_?$AAF?$AAi?$AAl?$AAe?$AA_?$AAL?$AAo?$AAa@|
	DCD	|??_C@_1EE@KNAMDGCE@?$AAO?$AAf?$AAf?$AAi?$AAc?$AAe?$AAM?$AAo?$AAb?$AAi?$AAl?$AAe?$AA_?$AAP?$AAo?$AAw?$AAe?$AAr?$AAp?$AAo?$AAi?$AAn?$AAt?$AA_?$AAF?$AAi?$AAl?$AAe?$AA_?$AAS?$AAi?$AAz@|
	DCD	|??_C@_1EE@JPIKEOPK@?$AAO?$AAf?$AAf?$AAi?$AAc?$AAe?$AAM?$AAo?$AAb?$AAi?$AAl?$AAe?$AA_?$AAP?$AAo?$AAw?$AAe?$AAr?$AAp?$AAo?$AAi?$AAn?$AAt?$AA_?$AAS?$AAa?$AAv?$AAe?$AA_?$AAT?$AAi?$AAm@|
	DCD	|??_C@_1FM@JIOKEJHD@?$AAO?$AAf?$AAf?$AAi?$AAc?$AAe?$AAM?$AAo?$AAb?$AAi?$AAl?$AAe?$AA_?$AAP?$AAo?$AAw?$AAe?$AAr?$AAp?$AAo?$AAi?$AAn?$AAt?$AA_?$AAF?$AAi?$AAr?$AAs?$AAt?$AA_?$AAS?$AAl@|
	DCD	|??_C@_1CC@HJANKMFE@?$AAT?$AAA?$AAS?$AAK?$AAS?$AA_?$AAT?$AAI?$AAM?$AAE?$AA_?$AAT?$AAO?$AAT?$AAA?$AAL?$AA?$AA@|
	DCD	|??_C@_1BO@MEDAFIAA@?$AAC?$AAA?$AAL?$AA_?$AAT?$AAI?$AAM?$AAE?$AA_?$AAT?$AAO?$AAT?$AAA?$AAL?$AA?$AA@|
	DCD	|??_C@_1DA@HKELEJGN@?$AAC?$AAA?$AAL?$AA_?$AAT?$AAI?$AAM?$AAE?$AA_?$AAP?$AAE?$AAR?$AAC?$AAE?$AAN?$AAT?$AA_?$AAA?$AAG?$AAE?$AAN?$AAD?$AAA?$AA?$AA@|
	DCD	|??_C@_1CK@MPKKCOHL@?$AAC?$AAA?$AAL?$AA_?$AAT?$AAI?$AAM?$AAE?$AA_?$AAP?$AAE?$AAR?$AAC?$AAE?$AAN?$AAT?$AA_?$AAD?$AAA?$AAY?$AA?$AA@|
	DCD	|??_C@_1CM@GAMPELJF@?$AAC?$AAA?$AAL?$AA_?$AAT?$AAI?$AAM?$AAE?$AA_?$AAP?$AAE?$AAR?$AAC?$AAE?$AAN?$AAT?$AA_?$AAW?$AAE?$AAE?$AAK?$AA?$AA@|
	DCD	|??_C@_1CO@ONHPMPBG@?$AAC?$AAA?$AAL?$AA_?$AAT?$AAI?$AAM?$AAE?$AA_?$AAP?$AAE?$AAR?$AAC?$AAE?$AAN?$AAT?$AA_?$AAM?$AAO?$AAN?$AAT?$AAH?$AA?$AA@|
	DCD	|??_C@_1CM@MIIGCBCF@?$AAC?$AAA?$AAL?$AA_?$AAT?$AAI?$AAM?$AAE?$AA_?$AAP?$AAE?$AAR?$AAC?$AAE?$AAN?$AAT?$AA_?$AAY?$AAE?$AAA?$AAR?$AA?$AA@|
	DCD	|??_C@_1DK@JPJDCOCK@?$AAC?$AAA?$AAL?$AA_?$AAT?$AAI?$AAM?$AAE?$AA_?$AAP?$AAE?$AAR?$AAC?$AAE?$AAN?$AAT?$AA_?$AAM?$AAO?$AAN?$AAT?$AAH?$AA_?$AAL?$AAU?$AAN?$AAA?$AAR?$AA?$AA@|
	DCD	|??_C@_1DG@KOKMFGIJ@?$AAC?$AAA?$AAL?$AA_?$AAA?$AAP?$AAP?$AAT?$AA_?$AAM?$AAU?$AAL?$AAT?$AAI?$AAN?$AAO?$AAN?$AAA?$AAL?$AAL?$AA_?$AAC?$AAO?$AAU?$AAN?$AAT?$AA?$AA@|
	DCD	|??_C@_1DK@JNBEEMOM@?$AAM?$AAS?$AAG?$AA_?$AAL?$AAV?$AA_?$AAS?$AAO?$AAR?$AAT?$AA_?$AAB?$AAY?$AA_?$AAM?$AAA?$AAP?$AAP?$AAI?$AAN?$AAG?$AA_?$AAD?$AAU?$AAM?$AAM?$AAY?$AA?$AA@|
	DCD	|??_C@_1EA@EPEBOFJL@?$AAM?$AAS?$AAG?$AA_?$AAL?$AAV?$AA_?$AAS?$AAO?$AAR?$AAT?$AA_?$AAO?$AAR?$AAD?$AAE?$AAR?$AA_?$AAM?$AAA?$AAP?$AAP?$AAI?$AAN?$AAG?$AA_?$AAD?$AAU?$AAM?$AAM?$AAY?$AA?$AA@|
	DCD	|??_C@_1EM@IHCFEHKH@?$AAM?$AAS?$AAG?$AA_?$AAE?$AAV?$AAE?$AAR?$AAY?$AA_?$AAO?$AAN?$AAE?$AA_?$AAU?$AAP?$AA_?$AAT?$AAO?$AA_?$AAT?$AAE?$AAN?$AA_?$AAM?$AAA?$AAP?$AAP?$AAI?$AAN?$AAG?$AA_@|
	DCD	|??_C@_1FE@KMKJGBEI@?$AAM?$AAS?$AAG?$AA_?$AAE?$AAV?$AAE?$AAR?$AAY?$AA_?$AAT?$AAE?$AAN?$AA_?$AAU?$AAP?$AA_?$AAT?$AAO?$AA_?$AAH?$AAU?$AAN?$AAD?$AAR?$AAE?$AAD?$AA_?$AAM?$AAA?$AAP?$AAP@|
	DCD	|??_C@_1FC@GDNNLDJL@?$AAM?$AAS?$AAG?$AA_?$AAE?$AAV?$AAE?$AAR?$AAY?$AA_?$AAF?$AAI?$AAV?$AAE?$AA_?$AAU?$AAP?$AA_?$AAT?$AAO?$AA_?$AAF?$AAI?$AAF?$AAT?$AAY?$AA_?$AAM?$AAA?$AAP?$AAP?$AAI@|
	DCD	|??_C@_1CK@GFOKACNK@?$AAD?$AAA?$AAT?$AAA?$AAI?$AAD?$AA_?$AAC?$AAA?$AAL?$AA_?$AAP?$AAA?$AAI?$AAN?$AAT?$AA_?$AAD?$AAV?$AAS?$AA?$AA@|
	DCD	|??_C@_1CK@LPEOMPBF@?$AAC?$AAA?$AAL?$AA_?$AAV?$AAI?$AAE?$AAW?$AA_?$AAM?$AAE?$AAN?$AAU?$AA_?$AAF?$AAI?$AAL?$AAT?$AAE?$AAR?$AA?$AA@|
	DCD	|??_C@_1CG@BEAJLOGC@?$AAC?$AAA?$AAL?$AA_?$AAV?$AAI?$AAE?$AAW?$AA_?$AAM?$AAE?$AAN?$AAU?$AA_?$AAV?$AAI?$AAE?$AAW?$AA?$AA@|
	DCD	|??_C@_1CG@CGOCPOMN@?$AAC?$AAA?$AAL?$AA_?$AAV?$AAI?$AAE?$AAW?$AA_?$AAM?$AAE?$AAN?$AAU?$AA_?$AAE?$AAD?$AAI?$AAT?$AA?$AA@|
	DCD	|??_C@_1BG@GIDECOCK@?$AAS?$AAY?$AAN?$AAC?$AA_?$AAE?$AAR?$AAR?$AAO?$AAR?$AA?$AA@|
	DCD	|??_C@_1CA@ILEAEFGE@?$AAP?$AAO?$AAW?$AAE?$AAR?$AA_?$AAB?$AAK?$AAL?$AA_?$AAT?$AAO?$AAT?$AAA?$AAL?$AA?$AA@|
	DCD	|??_C@_1BK@FIGKPCNB@?$AAP?$AAO?$AAW?$AAE?$AAR?$AA_?$AAB?$AAK?$AAL?$AA_?$AAO?$AAN?$AA?$AA@|
	DCD	|??_C@_1BM@JJLMLKII@?$AAP?$AAO?$AAW?$AAE?$AAR?$AA_?$AAB?$AAK?$AAL?$AA_?$AAO?$AAF?$AAF?$AA?$AA@|
	DCD	|??_C@_1CC@OLJJJJFN@?$AAP?$AAO?$AAW?$AAE?$AAR?$AA_?$AAB?$AAA?$AAT?$AA_?$AAC?$AAH?$AAA?$AAR?$AAG?$AAE?$AA?$AA@|
	DCD	|??_C@_1CA@KALILDDH@?$AAP?$AAO?$AAW?$AAE?$AAR?$AA_?$AAB?$AAA?$AAT?$AA_?$AAD?$AAR?$AAA?$AAI?$AAN?$AA?$AA@|
	DCD	|??_C@_1CK@LNBAPHLK@?$AAP?$AAO?$AAW?$AAE?$AAR?$AA_?$AAU?$AAS?$AAE?$AAR?$AA_?$AAS?$AAH?$AAU?$AAT?$AAD?$AAO?$AAW?$AAN?$AAS?$AA?$AA@|
	DCD	|??_C@_1DK@KGFCCCDE@?$AAP?$AAO?$AAW?$AAE?$AAR?$AA_?$AAB?$AAA?$AAT?$AA_?$AAS?$AAT?$AAA?$AAR?$AAT?$AA_?$AAC?$AAH?$AAA?$AAR?$AAG?$AAE?$AA_?$AAL?$AAE?$AAV?$AAE?$AAL?$AA?$AA@|
	DCD	|??_C@_1CM@PJKFLJIM@?$AAC?$AAE?$AAL?$AAL?$AAC?$AAO?$AAR?$AAE?$AA_?$AAR?$AAI?$AAL?$AA_?$AAS?$AAM?$AAS?$AA_?$AAS?$AAE?$AAN?$AAD?$AA?$AA@|
	DCD	|??_C@_1DC@CLMPHOMM@?$AAC?$AAE?$AAL?$AAL?$AAC?$AAO?$AAR?$AAE?$AA_?$AAR?$AAI?$AAL?$AA_?$AAS?$AAM?$AAS?$AA_?$AAR?$AAE?$AAC?$AAE?$AAI?$AAV?$AAE?$AA?$AA@|
	DCD	|??_C@_1DE@IIFEGBJI@?$AAC?$AAE?$AAL?$AAL?$AAC?$AAO?$AAR?$AAE?$AA_?$AAF?$AAL?$AAI?$AAG?$AAH?$AAT?$AA_?$AAM?$AAO?$AAD?$AAE?$AA_?$AAT?$AAI?$AAM?$AAE?$AA?$AA@|
	DCD	|??_C@_1DE@BLNKGCC@?$AAC?$AAE?$AAL?$AAL?$AAC?$AAO?$AAR?$AAE?$AA_?$AAR?$AAI?$AAL?$AA_?$AAU?$AAN?$AAR?$AAE?$AAG?$AAI?$AAS?$AAT?$AAE?$AAR?$AAE?$AAD?$AA?$AA@|
	DCD	|??_C@_1CK@OIFNJBHA@?$AAC?$AAE?$AAL?$AAL?$AAC?$AAO?$AAR?$AAE?$AA_?$AAR?$AAI?$AAL?$AA_?$AAR?$AAO?$AAA?$AAM?$AAI?$AAN?$AAG?$AA?$AA@|
	DCD	|??_C@_1CG@BJAKEIJD@?$AAC?$AAE?$AAL?$AAL?$AAC?$AAO?$AAR?$AAE?$AA_?$AAR?$AAI?$AAL?$AA_?$AAE?$AAR?$AAR?$AAO?$AAR?$AA?$AA@|
	DCD	|??_C@_1CK@MIIEJLFN@?$AAC?$AAE?$AAL?$AAL?$AAC?$AAO?$AAR?$AAE?$AA_?$AAR?$AAA?$AAD?$AAI?$AAO?$AA_?$AAR?$AAE?$AAS?$AAE?$AAT?$AA?$AA@|
	DCD	|??_C@_1DK@IBOGGAIE@?$AAN?$AAE?$AAT?$AAW?$AAO?$AAR?$AAK?$AAI?$AAN?$AAG?$AA_?$AAB?$AAY?$AAT?$AAE?$AAS?$AA_?$AAT?$AAR?$AAA?$AAN?$AAS?$AAF?$AAE?$AAR?$AAR?$AAE?$AAD?$AA?$AA@|
	DCD	|??_C@_1DE@LMPDKIPM@?$AAN?$AAE?$AAT?$AAW?$AAO?$AAR?$AAK?$AAI?$AAN?$AAG?$AA_?$AAW?$AAI?$AAF?$AAI?$AA_?$AAA?$AAS?$AAS?$AAO?$AAC?$AAI?$AAA?$AAT?$AAE?$AA?$AA@|
	DCD	|??_C@_1EC@BFAFKMAL@?$AAN?$AAE?$AAT?$AAW?$AAO?$AAR?$AAK?$AAI?$AAN?$AAG?$AA_?$AAW?$AAI?$AAF?$AAI?$AA_?$AAU?$AAN?$AAA?$AAB?$AAL?$AAE?$AA_?$AAA?$AAS?$AAS?$AAO?$AAC?$AAI?$AAA?$AAT?$AAE@|
	DCD	|??_C@_1DE@OPAJNLGE@?$AAN?$AAE?$AAT?$AAW?$AAO?$AAR?$AAK?$AAI?$AAN?$AAG?$AA_?$AAB?$AAA?$AAC?$AAK?$AA_?$AAB?$AAA?$AAC?$AAK?$AA_?$AAC?$AAA?$AAL?$AAL?$AA?$AA@|
	DCD	|??_C@_1EK@FFIAHDCN@?$AAN?$AAE?$AAT?$AAW?$AAO?$AAR?$AAK?$AAI?$AAN?$AAG?$AA_?$AAC?$AAM?$AA_?$AAE?$AAS?$AAT?$AAA?$AAB?$AAL?$AAI?$AAS?$AAH?$AAE?$AAD?$AA_?$AAC?$AAO?$AAN?$AAN?$AAE?$AAC@|
	DCD	|??_C@_1EA@NNALCGIC@?$AAN?$AAE?$AAT?$AAW?$AAO?$AAR?$AAK?$AAI?$AAN?$AAG?$AA_?$AAC?$AAM?$AA_?$AAF?$AAA?$AAI?$AAL?$AAE?$AAD?$AA_?$AAC?$AAO?$AAN?$AAN?$AAE?$AAC?$AAT?$AAI?$AAO?$AAN?$AA?$AA@|
	DCD	|??_C@_1FA@EGOCKOKH@?$AAS?$AAY?$AAN?$AAC?$AA_?$AAP?$AAI?$AAN?$AAG?$AA_?$AAT?$AAW?$AAE?$AAN?$AAT?$AAY?$AA_?$AAT?$AAO?$AA_?$AAT?$AAW?$AAE?$AAN?$AAT?$AAY?$AA_?$AAS?$AAE?$AAV?$AAE?$AAN@|
	DCD	|??_C@_1EE@EDIBLCEF@?$AAC?$AAO?$AAN?$AAT?$AAA?$AAC?$AAT?$AAS?$AA_?$AAS?$AAI?$AAM?$AAC?$AAA?$AAR?$AAD?$AA_?$AAM?$AAE?$AAN?$AAU?$AA_?$AAT?$AAO?$AAT?$AAA?$AAL?$AAC?$AAL?$AAI?$AAC?$AAK@|
	DCD	|??_C@_1EC@OMFMHIKM@?$AAC?$AAO?$AAN?$AAT?$AAA?$AAC?$AAT?$AAS?$AA_?$AAG?$AAA?$AAL?$AA_?$AAL?$AAV?$AA_?$AAM?$AAE?$AAN?$AAU?$AA_?$AAT?$AAO?$AAT?$AAA?$AAL?$AAC?$AAL?$AAI?$AAC?$AAK?$AAS@|
	DCD	|??_C@_1EE@FJMNJGCN@?$AAC?$AAO?$AAN?$AAT?$AAA?$AAC?$AAT?$AAS?$AA_?$AAG?$AAA?$AAL?$AAC?$AAA?$AAR?$AAD?$AA_?$AAM?$AAE?$AAN?$AAU?$AA_?$AAT?$AAO?$AAT?$AAA?$AAL?$AAC?$AAL?$AAI?$AAC?$AAK@|
	DCD	|??_C@_1EA@OPCIABPK@?$AAC?$AAO?$AAN?$AAT?$AAA?$AAC?$AAT?$AAS?$AA_?$AAL?$AAV?$AA_?$AAC?$AAO?$AAN?$AAT?$AAE?$AAX?$AAT?$AA_?$AAT?$AAO?$AAT?$AAA?$AAL?$AAC?$AAL?$AAI?$AAC?$AAK?$AAS?$AA?$AA@|
	DCD	|??_C@_1DC@MJPDBIKN@?$AAM?$AAS?$AAG?$AA_?$AAY?$AAE?$AAS?$AA_?$AAN?$AAO?$AA_?$AAM?$AAA?$AAP?$AAP?$AAI?$AAN?$AAG?$AA_?$AAD?$AAU?$AAM?$AAM?$AAY?$AA?$AA@|
	DCD	|??_C@_1DM@OBPJGDN@?$AAS?$AAY?$AAN?$AAC?$AA_?$AAO?$AAT?$AAA?$AA_?$AAE?$AAX?$AAC?$AAH?$AAA?$AAN?$AAG?$AAE?$AA_?$AAR?$AAE?$AAL?$AAI?$AAA?$AAB?$AAI?$AAL?$AAI?$AAT?$AAY?$AA?$AA@|
	DCD	|??_C@_1EC@MNNHNJMI@?$AAS?$AAY?$AAN?$AAC?$AA_?$AAD?$AAE?$AAS?$AAK?$AAT?$AAO?$AAP?$AA_?$AAO?$AAU?$AAT?$AAL?$AAO?$AAO?$AAK?$AA_?$AAR?$AAE?$AAL?$AAI?$AAA?$AAB?$AAI?$AAL?$AAI?$AAT?$AAY@|
	DCD	|??_C@_1DA@KMBBEIKM@?$AAS?$AAY?$AAN?$AAC?$AA_?$AAS?$AAT?$AAA?$AAT?$AAS?$AA_?$AAE?$AAR?$AAR?$AAO?$AAR?$AAC?$AAO?$AAN?$AAT?$AAE?$AAX?$AAT?$AA?$AA@|
	DCD	|??_C@_1CK@GGJDMEMI@?$AAS?$AAY?$AAN?$AAC?$AA_?$AAM?$AAA?$AAX?$AA_?$AAP?$AAI?$AAN?$AAG?$AAT?$AAI?$AAM?$AAE?$AAO?$AAU?$AAT?$AA?$AA@|
	DCD	|??_C@_1DO@IOLBIAOA@?$AAS?$AAY?$AAN?$AAC?$AA_?$AAO?$AAP?$AAT?$AAI?$AAO?$AAN?$AAS?$AA_?$AAP?$AAA?$AAR?$AAT?$AAN?$AAE?$AAR?$AAS?$AAH?$AAI?$AAP?$AA_?$AAS?$AAT?$AAA?$AAT?$AAS?$AA?$AA@|
	DCD	|??_C@_1EA@KKALNJPD@?$AAS?$AAY?$AAN?$AAC?$AA_?$AAO?$AAP?$AAT?$AAI?$AAO?$AAN?$AAS?$AA_?$AAE?$AAX?$AAC?$AAH?$AAA?$AAN?$AAG?$AAE?$AA_?$AAD?$AAA?$AAT?$AAA?$AAT?$AAY?$AAP?$AAE?$AAS?$AA?$AA@|
	DCD	|??_C@_1DG@CCCJFKII@?$AAS?$AAY?$AAN?$AAC?$AA_?$AAO?$AAP?$AAT?$AAI?$AAO?$AAN?$AAS?$AA_?$AAP?$AAC?$AA1?$AA_?$AAD?$AAA?$AAT?$AAA?$AAT?$AAY?$AAP?$AAE?$AAS?$AA?$AA@|
	DCD	|??_C@_1DG@HKDHPDKA@?$AAS?$AAY?$AAN?$AAC?$AA_?$AAO?$AAP?$AAT?$AAI?$AAO?$AAN?$AAS?$AA_?$AAP?$AAC?$AA2?$AA_?$AAD?$AAA?$AAT?$AAA?$AAT?$AAY?$AAP?$AAE?$AAS?$AA?$AA@|
	DCD	|??_C@_1BM@DEEPGNEK@?$AAS?$AAY?$AAN?$AAC?$AA_?$AAS?$AAC?$AAH?$AAE?$AAD?$AAU?$AAL?$AAE?$AA?$AA@|
	DCD	|??_C@_1BK@PENHAPPD@?$AAR?$AAA?$AAD?$AAI?$AAO?$AAV?$AAE?$AAR?$AAS?$AAI?$AAO?$AAN?$AA?$AA@|
	DCD	|??_C@_1DG@BKNJODGA@?$AAS?$AAY?$AAN?$AAC?$AA_?$AAP?$AAC?$AA2?$AA_?$AAA?$AAC?$AAT?$AAI?$AAV?$AAE?$AAS?$AAY?$AAN?$AAC?$AAV?$AAE?$AAR?$AAS?$AAI?$AAO?$AAN?$AA?$AA@|
	DCD	|??_C@_1DG@DAGFFDOI@?$AAS?$AAY?$AAN?$AAC?$AA_?$AAP?$AAC?$AA1?$AA_?$AAA?$AAC?$AAT?$AAI?$AAV?$AAE?$AAS?$AAY?$AAN?$AAC?$AAV?$AAE?$AAR?$AAS?$AAI?$AAO?$AAN?$AA?$AA@|
	DCD	|??_C@_1DA@PBAPKCKM@?$AAS?$AAY?$AAN?$AAC?$AA_?$AAP?$AAC?$AA2?$AA_?$AAA?$AAI?$AAR?$AAS?$AAY?$AAN?$AAC?$AAV?$AAE?$AAR?$AAS?$AAI?$AAO?$AAN?$AA?$AA@|
	DCD	|??_C@_1DA@JMIJFBPG@?$AAS?$AAY?$AAN?$AAC?$AA_?$AAP?$AAC?$AA1?$AA_?$AAA?$AAI?$AAR?$AAS?$AAY?$AAN?$AAC?$AAV?$AAE?$AAR?$AAS?$AAI?$AAO?$AAN?$AA?$AA@|
	DCD	|??_C@_1DK@HPCKPEKO@?$AAS?$AAY?$AAN?$AAC?$AA_?$AAE?$AAX?$AAC?$AAH?$AAA?$AAN?$AAG?$AAE?$AA_?$AAA?$AAI?$AAR?$AAS?$AAY?$AAN?$AAC?$AAV?$AAE?$AAR?$AAS?$AAI?$AAO?$AAN?$AA?$AA@|
	DCD	|??_C@_1BO@ENCDNMCO@?$AAM?$AAO?$AAB?$AAI?$AAL?$AAE?$AAO?$AAP?$AAE?$AAR?$AAA?$AAT?$AAO?$AAR?$AA?$AA@|
	DCD	|??_C@_1CO@PEHOOECL@?$AAS?$AAY?$AAN?$AAC?$AA_?$AAS?$AAT?$AAA?$AAT?$AAS?$AA_?$AAE?$AAM?$AAA?$AAI?$AAL?$AA_?$AAR?$AAE?$AAA?$AAD?$AAS?$AA?$AA@|
	DCD	|??_C@_1EA@FEMJBAFL@?$AAS?$AAY?$AAN?$AAC?$AA_?$AAS?$AAT?$AAA?$AAT?$AAS?$AA_?$AAE?$AAM?$AAA?$AAI?$AAL?$AA_?$AAC?$AAL?$AAI?$AAE?$AAN?$AAT?$AAR?$AAE?$AAC?$AAE?$AAI?$AAV?$AAE?$AAS?$AA?$AA@|
	DCD	|??_C@_1DK@GMKDPEFH@?$AAS?$AAY?$AAN?$AAC?$AA_?$AAS?$AAT?$AAA?$AAT?$AAS?$AA_?$AAE?$AAM?$AAA?$AAI?$AAL?$AA_?$AAC?$AAL?$AAI?$AAE?$AAN?$AAT?$AAS?$AAE?$AAN?$AAD?$AAS?$AA?$AA@|
	DCD	|??_C@_1DO@MKOCKDCP@?$AAS?$AAY?$AAN?$AAC?$AA_?$AAS?$AAT?$AAA?$AAT?$AAS?$AA_?$AAE?$AAM?$AAA?$AAI?$AAL?$AA_?$AAC?$AAL?$AAI?$AAE?$AAN?$AAT?$AAR?$AAE?$AAM?$AAO?$AAV?$AAE?$AAS?$AA?$AA@|
	DCD	|??_C@_1DI@IMIIJCNF@?$AAS?$AAY?$AAN?$AAC?$AA_?$AAS?$AAT?$AAA?$AAT?$AAS?$AA_?$AAC?$AAA?$AAL?$AAE?$AAN?$AAD?$AAA?$AAR?$AA_?$AAD?$AAE?$AAL?$AAE?$AAT?$AAE?$AAS?$AA?$AA@|
	DCD	|??_C@_1EG@JGPKCENM@?$AAS?$AAY?$AAN?$AAC?$AA_?$AAS?$AAT?$AAA?$AAT?$AAS?$AA_?$AAC?$AAA?$AAL?$AAE?$AAN?$AAD?$AAA?$AAR?$AA_?$AAM?$AAE?$AAE?$AAT?$AAI?$AAN?$AAG?$AAR?$AAE?$AAQ?$AAU?$AAE@|
	DCD	|??_C@_1DC@JKFMJFEM@?$AAS?$AAY?$AAN?$AAC?$AA_?$AAS?$AAT?$AAA?$AAT?$AAS?$AA_?$AAC?$AAA?$AAL?$AAE?$AAN?$AAD?$AAA?$AAR?$AA_?$AAA?$AAD?$AAD?$AAS?$AA?$AA@|
	DCD	|??_C@_1CO@FFCGONMB@?$AAS?$AAY?$AAN?$AAC?$AA_?$AAS?$AAT?$AAA?$AAT?$AAS?$AA_?$AAE?$AAM?$AAA?$AAI?$AAL?$AA_?$AAF?$AAE?$AAT?$AAC?$AAH?$AA?$AA@|
	DCD	|??_C@_1CE@CHCFDLOJ@?$AAS?$AAY?$AAN?$AAC?$AA_?$AAS?$AAT?$AAA?$AAT?$AAS?$AA_?$AAS?$AAE?$AAA?$AAR?$AAC?$AAH?$AA?$AA@|
	DCD	|??_C@_1CE@FKJIPELC@?$AAS?$AAY?$AAN?$AAC?$AA_?$AAF?$AAO?$AAL?$AAD?$AAE?$AAR?$AAS?$AAY?$AAN?$AAC?$AAE?$AAD?$AA?$AA@|
	DCD	|??_C@_1EM@KIFPCIBH@?$AAO?$AAF?$AAF?$AAI?$AAC?$AAE?$AAM?$AAO?$AAB?$AAI?$AAL?$AAE?$AA_?$AAE?$AAX?$AAC?$AAE?$AAL?$AA_?$AAZ?$AAO?$AAO?$AAM?$AAL?$AAE?$AAV?$AAE?$AAL?$AA_?$AAA?$AAT?$AA_@|
	DCD	|??_C@_1FC@POPNJLAM@?$AAO?$AAF?$AAF?$AAI?$AAC?$AAE?$AAM?$AAO?$AAB?$AAI?$AAL?$AAE?$AA_?$AAP?$AAP?$AAT?$AA_?$AAF?$AAI?$AAR?$AAS?$AAT?$AA_?$AAS?$AAL?$AAI?$AAD?$AAE?$AA_?$AAR?$AAE?$AAN@|
	DCD	|??_C@_1EI@OEKDCBHH@?$AAO?$AAF?$AAF?$AAI?$AAC?$AAE?$AAM?$AAO?$AAB?$AAI?$AAL?$AAE?$AA_?$AAP?$AAP?$AAT?$AA_?$AAN?$AAE?$AAX?$AAT?$AA_?$AAS?$AAL?$AAI?$AAD?$AAE?$AA_?$AAA?$AAV?$AA_?$AAT@|
	DCD	|??_C@_1EI@JEMKOHNO@?$AAO?$AAF?$AAF?$AAI?$AAC?$AAE?$AAM?$AAO?$AAB?$AAI?$AAL?$AAE?$AA_?$AAP?$AAP?$AAT?$AA_?$AAP?$AAR?$AAE?$AAV?$AA_?$AAS?$AAL?$AAI?$AAD?$AAE?$AA_?$AAA?$AAV?$AA_?$AAT@|
	DCD	|??_C@_1EI@KJNEPDED@?$AAO?$AAF?$AAF?$AAI?$AAC?$AAE?$AAM?$AAO?$AAB?$AAI?$AAL?$AAE?$AA_?$AAP?$AAP?$AAT?$AA_?$AAZ?$AAO?$AAO?$AAM?$AA_?$AAI?$AAN?$AA_?$AAL?$AA1?$AA_?$AAA?$AAV?$AA_?$AAT@|
	DCD	|??_C@_1EI@GHNLOIJ@?$AAO?$AAF?$AAF?$AAI?$AAC?$AAE?$AAM?$AAO?$AAB?$AAI?$AAL?$AAE?$AA_?$AAP?$AAP?$AAT?$AA_?$AAZ?$AAO?$AAO?$AAM?$AA_?$AAI?$AAN?$AA_?$AAL?$AA2?$AA_?$AAA?$AAV?$AA_?$AAT@|
	DCD	|??_C@_1EK@CIIABIMB@?$AAO?$AAF?$AAF?$AAI?$AAC?$AAE?$AAM?$AAO?$AAB?$AAI?$AAL?$AAE?$AA_?$AAP?$AAP?$AAT?$AA_?$AAZ?$AAO?$AAO?$AAM?$AA_?$AAO?$AAU?$AAT?$AA_?$AAL?$AA1?$AA_?$AAA?$AAV?$AA_@|
	DCD	|??_C@_1EK@IHCJFFAL@?$AAO?$AAF?$AAF?$AAI?$AAC?$AAE?$AAM?$AAO?$AAB?$AAI?$AAL?$AAE?$AA_?$AAP?$AAP?$AAT?$AA_?$AAZ?$AAO?$AAO?$AAM?$AA_?$AAO?$AAU?$AAT?$AA_?$AAL?$AA2?$AA_?$AAA?$AAV?$AA_@|
	DCD	|??_C@_1EA@FGGODFKG@?$AAO?$AAF?$AAF?$AAI?$AAC?$AAE?$AAM?$AAO?$AAB?$AAI?$AAL?$AAE?$AA_?$AAP?$AAP?$AAT?$AA_?$AAO?$AAR?$AAI?$AAE?$AAN?$AAT?$AA_?$AAA?$AAV?$AA_?$AAT?$AAI?$AAM?$AAE?$AA?$AA@|
	DCD	|??_C@_1EE@JMGJJAPN@?$AAO?$AAF?$AAF?$AAI?$AAC?$AAE?$AAM?$AAO?$AAB?$AAI?$AAL?$AAE?$AA_?$AAP?$AAP?$AAT?$AA_?$AAZ?$AAO?$AAO?$AAM?$AA_?$AAI?$AAN?$AA_?$AAL?$AA1?$AA_?$AAC?$AAO?$AAU?$AAN@|
	DCD	|??_C@_1EE@LFKBCEAP@?$AAO?$AAF?$AAF?$AAI?$AAC?$AAE?$AAM?$AAO?$AAB?$AAI?$AAL?$AAE?$AA_?$AAP?$AAP?$AAT?$AA_?$AAZ?$AAO?$AAO?$AAM?$AA_?$AAI?$AAN?$AA_?$AAL?$AA2?$AA_?$AAC?$AAO?$AAU?$AAN@|
	DCD	|??_C@_1DG@IAPEEJJK@?$AAO?$AAF?$AAF?$AAI?$AAC?$AAE?$AAM?$AAO?$AAB?$AAI?$AAL?$AAE?$AA_?$AAP?$AAP?$AAT?$AA_?$AAO?$AAS?$AA_?$AAO?$AAR?$AAI?$AAE?$AAN?$AAT?$AA?$AA@|
	DCD	|??_C@_1DG@LDAENPFE@?$AAO?$AAF?$AAF?$AAI?$AAC?$AAE?$AAM?$AAO?$AAB?$AAI?$AAL?$AAE?$AA_?$AAP?$AAP?$AAT?$AA_?$AAS?$AAS?$AA_?$AAO?$AAR?$AAI?$AAE?$AAN?$AAT?$AA?$AA@|
	DCD	|??_C@_1CI@MHHNEBOJ@?$AAT?$AAA?$AAS?$AAK?$AAS?$AA_?$AAC?$AAA?$AAT?$AAE?$AAG?$AAO?$AAR?$AAY?$AA_?$AAS?$AAO?$AAM?$AAE?$AA?$AA@|
	DCD	|??_C@_1BO@KIGJPGJM@?$AAT?$AAA?$AAS?$AAK?$AAS?$AA_?$AAD?$AAU?$AAE?$AA_?$AAN?$AAO?$AAN?$AAE?$AA?$AA@|
	DCD	|??_C@_1CA@NDFBCBDN@?$AAT?$AAA?$AAS?$AAK?$AAS?$AA_?$AAD?$AAU?$AAE?$AA_?$AAT?$AAO?$AAD?$AAA?$AAY?$AA?$AA@|
	DCD	|??_C@_1CG@LIGLFNNJ@?$AAT?$AAA?$AAS?$AAK?$AAS?$AA_?$AAD?$AAU?$AAE?$AA_?$AAT?$AAO?$AAM?$AAO?$AAR?$AAR?$AAO?$AAW?$AA?$AA@|
	DCD	|??_C@_1CI@LOMPGLCH@?$AAT?$AAA?$AAS?$AAK?$AAS?$AA_?$AAD?$AAU?$AAE?$AA_?$AAN?$AAE?$AAX?$AAT?$AA_?$AAW?$AAE?$AAE?$AAK?$AA?$AA@|
	DCD	|??_C@_1CI@NHDFKKBI@?$AAT?$AAA?$AAS?$AAK?$AAS?$AA_?$AAD?$AAU?$AAE?$AA_?$AAT?$AAH?$AAI?$AAS?$AA_?$AAW?$AAE?$AAE?$AAK?$AA?$AA@|
	DCD	|??_C@_1CK@LEFPEMAE@?$AAT?$AAA?$AAS?$AAK?$AAS?$AA_?$AAD?$AAU?$AAE?$AA_?$AAT?$AAH?$AAI?$AAS?$AA_?$AAM?$AAO?$AAN?$AAT?$AAH?$AA?$AA@|
	DCD	|??_C@_1CK@OCPNOE@?$AAT?$AAA?$AAS?$AAK?$AAS?$AA_?$AAD?$AAU?$AAE?$AA_?$AAN?$AAE?$AAX?$AAT?$AA_?$AAM?$AAO?$AAN?$AAT?$AAH?$AA?$AA@|
	DCD	|??_C@_1CA@PHKHHOLA@?$AAT?$AAA?$AAS?$AAK?$AAS?$AA_?$AAD?$AAU?$AAE?$AA_?$AAL?$AAA?$AAT?$AAE?$AAR?$AA?$AA@|
	DCD	|??_C@_1CM@HOLAAEKH@?$AAT?$AAA?$AAS?$AAK?$AAS?$AA_?$AAC?$AAO?$AAM?$AAP?$AAL?$AAE?$AAT?$AAE?$AAD?$AA_?$AAT?$AAO?$AAD?$AAA?$AAY?$AA?$AA@|
	DCD	|??_C@_1DE@KBFPIHBK@?$AAT?$AAA?$AAS?$AAK?$AAS?$AA_?$AAC?$AAO?$AAM?$AAP?$AAL?$AAE?$AAT?$AAE?$AAD?$AA_?$AAT?$AAH?$AAI?$AAS?$AA_?$AAW?$AAE?$AAE?$AAK?$AA?$AA@|
	DCD	|??_C@_1DE@FDBIMMBC@?$AAT?$AAA?$AAS?$AAK?$AAS?$AA_?$AAC?$AAO?$AAM?$AAP?$AAL?$AAE?$AAT?$AAE?$AAD?$AA_?$AAL?$AAA?$AAS?$AAT?$AA_?$AAW?$AAE?$AAE?$AAK?$AA?$AA@|
	DCD	|??_C@_1DA@FDOICPBN@?$AAT?$AAA?$AAS?$AAK?$AAS?$AA_?$AAC?$AAO?$AAM?$AAP?$AAL?$AAE?$AAT?$AAE?$AAD?$AA_?$AAE?$AAA?$AAR?$AAL?$AAI?$AAE?$AAR?$AA?$AA@|
	DCD	|??_C@_1CG@LCNEAJM@?$AAT?$AAA?$AAS?$AAK?$AA_?$AAN?$AAE?$AAW?$AA_?$AAE?$AAN?$AAT?$AAR?$AAY?$AA_?$AAB?$AAA?$AAR?$AA?$AA@|
	DCD	|??_C@_1BK@MDOHAIID@?$AAP?$AAL?$AAA?$AAT?$AAF?$AAO?$AAR?$AAM?$AAT?$AAY?$AAP?$AAE?$AA?$AA@|
	DCD	|??_C@_1BC@HMFDNACO@?$AAO?$AAE?$AAM?$AA_?$AAI?$AAN?$AAF?$AAO?$AA?$AA@|
	DCD	|??_C@_1DC@BPJPJLOF@?$AAD?$AAI?$AAS?$AAC?$AAR?$AAE?$AAT?$AAE?$AA_?$AAV?$AAA?$AAR?$AAI?$AAA?$AAB?$AAL?$AAE?$AA_?$AAM?$AAA?$AAP?$AAP?$AAE?$AAR?$AA?$AA@|
	DCD	|??_C@_1DO@FGKNPDGB@?$AAC?$AAO?$AAN?$AAT?$AAI?$AAN?$AAU?$AAO?$AAU?$AAS?$AAV?$AAA?$AAR?$AAI?$AAA?$AAB?$AAL?$AAE?$AAM?$AAA?$AAP?$AAP?$AAI?$AAN?$AAG?$AAD?$AAU?$AAM?$AAM?$AAY?$AA?$AA@|
	DCD	|??_C@_1BE@CAOFPPHO@?$AAO?$AAE?$AAM?$AAI?$AAN?$AAF?$AAO?$AA_?$AA1?$AA?$AA@|
	DCD	|??_C@_1BE@DCFAFAJA@?$AAO?$AAE?$AAM?$AAI?$AAN?$AAF?$AAO?$AA_?$AA2?$AA?$AA@|
	DCD	|??_C@_1BE@IKOMDHPF@?$AAO?$AAE?$AAM?$AAI?$AAN?$AAF?$AAO?$AA_?$AA3?$AA?$AA@|
	DCD	|??_C@_1BE@BHDLAPEM@?$AAO?$AAE?$AAM?$AAI?$AAN?$AAF?$AAO?$AA_?$AA4?$AA?$AA@|
	DCD	|??_C@_1BE@KPIHGICJ@?$AAO?$AAE?$AAM?$AAI?$AAN?$AAF?$AAO?$AA_?$AA5?$AA?$AA@|
	DCD	|??_C@_1BE@LNDCMHMH@?$AAO?$AAE?$AAM?$AAI?$AAN?$AAF?$AAO?$AA_?$AA6?$AA?$AA@|
	DCD	|??_C@_1BE@FIOKAKC@?$AAO?$AAE?$AAM?$AAI?$AAN?$AAF?$AAO?$AA_?$AA7?$AA?$AA@|
	DCD	|??_C@_1BE@FNONLAPE@?$AAO?$AAE?$AAM?$AAI?$AAN?$AAF?$AAO?$AA_?$AA8?$AA?$AA@|
	DCD	|??_C@_1BE@OFFBNHJB@?$AAO?$AAE?$AAM?$AAI?$AAN?$AAF?$AAO?$AA_?$AA9?$AA?$AA@|
	DCD	|??_C@_1BC@EBFIPGIC@?$AAI?$AAM?$AAE?$AAI?$AA_?$AAT?$AAA?$AAC?$AA?$AA@|
	DCD	|??_C@_1BA@HNJALMCF@?$AAM?$AAE?$AAI?$AAD?$AA_?$AAM?$AAC?$AA?$AA@|
	DCD	|??_C@_1O@JGKJKPEA@?$AAE?$AAS?$AAN?$AA_?$AAM?$AAC?$AA?$AA@|
	DCD	|??_C@_1CM@ONCMGNBO@?$AAM?$AAA?$AAN?$AAA?$AAG?$AAE?$AAD?$AA_?$AAD?$AAE?$AAV?$AAI?$AAC?$AAE?$AA_?$AAS?$AAT?$AAA?$AAT?$AAU?$AAS?$AA?$AA@|
	DCD	|??_C@_1GK@NMBCBEDP@?$AAM?$AAE?$AAD?$AAI?$AAA?$AA_?$AAL?$AAI?$AAB?$AAR?$AAA?$AAR?$AAY?$AA_?$AAN?$AAU?$AAM?$AAB?$AAE?$AAR?$AA_?$AAT?$AAY?$AAP?$AAE?$AA_?$AAA?$AAU?$AAD?$AAI?$AAO?$AA_@|
	DCD	|??_C@_1HK@LDHDOHH@?$AAM?$AAE?$AAD?$AAI?$AAA?$AA_?$AAL?$AAI?$AAB?$AAR?$AAA?$AAR?$AAY?$AA_?$AAN?$AAU?$AAM?$AAB?$AAE?$AAR?$AA_?$AAT?$AAY?$AAP?$AAE?$AA_?$AAP?$AAH?$AAO?$AAT?$AAO?$AAS@|
	DCD	|??_C@_1HC@HJIDCJBD@?$AAM?$AAE?$AAD?$AAI?$AAA?$AA_?$AAL?$AAI?$AAB?$AAR?$AAA?$AAR?$AAY?$AA_?$AAN?$AAU?$AAM?$AAB?$AAE?$AAR?$AA_?$AAT?$AAY?$AAP?$AAE?$AA_?$AAV?$AAI?$AAD?$AAE?$AAO?$AAS@|
	DCD	|??_C@_1EG@KCIPMEEC@?$AAM?$AAE?$AAD?$AAI?$AAA?$AA_?$AAL?$AAI?$AAB?$AAR?$AAA?$AAR?$AAY?$AA_?$AAN?$AAU?$AAM?$AAB?$AAE?$AAR?$AA_?$AAP?$AAH?$AAO?$AAT?$AAO?$AAS?$AA_?$AAT?$AAA?$AAG?$AAG@|
	DCD	|??_C@_1CG@FBHOBI@?$AAP?$AAH?$AAO?$AAT?$AAO?$AAS?$AA_?$AAT?$AAA?$AAG?$AA_?$AAA?$AAC?$AAT?$AAI?$AAO?$AAN?$AAS?$AA?$AA@|
	DCD	|??_C@_1CG@EGMKIABM@?$AAP?$AAL?$AAA?$AAY?$AAB?$AAA?$AAC?$AAK?$AA_?$AAF?$AAI?$AAL?$AAE?$AA_?$AAI?$AAN?$AAF?$AAO?$AA?$AA@|
	DCD	|??_C@_1DI@IDAHEOHD@?$AAC?$AAO?$AAN?$AAT?$AAA?$AAC?$AAT?$AAS?$AA_?$AAL?$AAV?$AA_?$AAM?$AAE?$AAN?$AAU?$AA_?$AAO?$AAP?$AAE?$AAN?$AAS?$AAK?$AAC?$AAO?$AAM?$AAM?$AA?$AA@|
	DCD	|??_C@_1DK@GENCIBNP@?$AAC?$AAO?$AAN?$AAT?$AAA?$AAC?$AAT?$AAS?$AA_?$AAL?$AAV?$AA_?$AAM?$AAE?$AAN?$AAU?$AA_?$AAC?$AAO?$AAM?$AAM?$AAM?$AAO?$AAB?$AAH?$AAO?$AAM?$AAE?$AA?$AA@|
	DCD	|??_C@_1DI@DEIEEL@?$AAC?$AAO?$AAN?$AAT?$AAA?$AAC?$AAT?$AAS?$AA_?$AAL?$AAV?$AA_?$AAM?$AAE?$AAN?$AAU?$AA_?$AAC?$AAO?$AAM?$AAM?$AAW?$AAR?$AAK?$AAT?$AAX?$AAT?$AA?$AA@|
	DCD	|??_C@_1DG@PDDAAAHK@?$AAC?$AAO?$AAN?$AAT?$AAA?$AAC?$AAT?$AAS?$AA_?$AAL?$AAV?$AA_?$AAM?$AAE?$AAN?$AAU?$AA_?$AAC?$AAO?$AAM?$AAM?$AAE?$AAM?$AAA?$AAI?$AAL?$AA?$AA@|
	DCD	|??_C@_1DG@HJELKGCJ@?$AAC?$AAO?$AAN?$AAT?$AAA?$AAC?$AAT?$AAS?$AA_?$AAL?$AAV?$AA_?$AAM?$AAE?$AAN?$AAU?$AA_?$AAC?$AAA?$AAT?$AAE?$AAG?$AAF?$AAA?$AAV?$AAE?$AA?$AA@|
	DCD	|??_C@_1DI@OJMGHEHI@?$AAC?$AAO?$AAN?$AAT?$AAA?$AAC?$AAT?$AAS?$AA_?$AAL?$AAV?$AA_?$AAM?$AAE?$AAN?$AAU?$AA_?$AAV?$AAI?$AAE?$AAW?$AAR?$AAE?$AAC?$AAE?$AAN?$AAT?$AA?$AA@|
	DCD	|??_C@_1DK@FFBAKNNN@?$AAC?$AAO?$AAN?$AAT?$AAA?$AAC?$AAT?$AAS?$AA_?$AAS?$AAU?$AAM?$AAC?$AAA?$AAR?$AAD?$AA_?$AAM?$AAE?$AAN?$AAU?$AA_?$AAS?$AAK?$AAC?$AAO?$AAM?$AAM?$AA?$AA@|
	DCD	|??_C@_1DM@LBBLBDEB@?$AAC?$AAO?$AAN?$AAT?$AAA?$AAC?$AAT?$AAS?$AA_?$AAS?$AAU?$AAM?$AAC?$AAA?$AAR?$AAD?$AA_?$AAM?$AAE?$AAN?$AAU?$AA_?$AAA?$AAD?$AAD?$AAF?$AAA?$AAV?$AAE?$AA?$AA@|
	DCD	|??_C@_1EE@NCFOJBMK@?$AAC?$AAO?$AAN?$AAT?$AAA?$AAC?$AAT?$AAS?$AA_?$AAS?$AAU?$AAM?$AAC?$AAA?$AAR?$AAD?$AA_?$AAM?$AAE?$AAN?$AAU?$AA_?$AAC?$AAO?$AAM?$AAM?$AAM?$AAO?$AAB?$AAH?$AAO?$AAM@|
	DCD	|??_C@_1EC@IEBHBDOD@?$AAC?$AAO?$AAN?$AAT?$AAA?$AAC?$AAT?$AAS?$AA_?$AAT?$AAE?$AAM?$AAP?$AAC?$AAA?$AAR?$AAD?$AA_?$AAM?$AAE?$AAN?$AAU?$AA_?$AAF?$AAI?$AAN?$AAD?$AAE?$AAM?$AAA?$AAI?$AAL@|
	DCD	|??_C@_1EC@BLHBEKPO@?$AAC?$AAO?$AAN?$AAT?$AAA?$AAC?$AAT?$AAS?$AA_?$AAT?$AAE?$AAM?$AAP?$AAC?$AAA?$AAR?$AAD?$AA_?$AAM?$AAE?$AAN?$AAU?$AA_?$AAS?$AAA?$AAV?$AAE?$AAT?$AAO?$AAT?$AAA?$AAL@|
	DCD	|??_C@_1DG@HNJAFENF@?$AAC?$AAO?$AAN?$AAT?$AAA?$AAC?$AAT?$AAS?$AA_?$AAS?$AAI?$AAM?$AAC?$AAA?$AAR?$AAD?$AA_?$AAM?$AAE?$AAN?$AAU?$AA_?$AAC?$AAA?$AAL?$AAL?$AA?$AA@|
	DCD	|??_C@_1DM@OPAONCJP@?$AAC?$AAO?$AAN?$AAT?$AAA?$AAC?$AAT?$AAS?$AA_?$AAS?$AAI?$AAM?$AAC?$AAA?$AAR?$AAD?$AA_?$AAM?$AAE?$AAN?$AAU?$AA_?$AAA?$AAD?$AAD?$AAF?$AAA?$AAV?$AAE?$AA?$AA@|
	DCD	|??_C@_1EC@COIEDHIC@?$AAC?$AAO?$AAN?$AAT?$AAA?$AAC?$AAT?$AAS?$AA_?$AAG?$AAA?$AAL?$AAC?$AAA?$AAR?$AAD?$AA_?$AAM?$AAE?$AAN?$AAU?$AA_?$AAS?$AAK?$AAC?$AAO?$AAM?$AAM?$AAH?$AAO?$AAM?$AAE@|
	DCD	|??_C@_1DC@DJGAFKM@?$AAC?$AAO?$AAN?$AAT?$AAA?$AAC?$AAT?$AAS?$AA_?$AAG?$AAA?$AAL?$AAL?$AAV?$AA_?$AAM?$AAE?$AAN?$AAU?$AA_?$AAO?$AAP?$AAE?$AAN?$AA?$AA@|
	DCD	|??_C@_1EC@BBALECMF@?$AAC?$AAO?$AAN?$AAT?$AAA?$AAC?$AAT?$AAS?$AA_?$AAG?$AAA?$AAL?$AAC?$AAA?$AAR?$AAD?$AA_?$AAM?$AAE?$AAN?$AAU?$AA_?$AAC?$AAO?$AAM?$AAM?$AAM?$AAO?$AAB?$AAW?$AAR?$AAK@|
	DCD	|??_C@_1EG@IKDOKOEG@?$AAC?$AAO?$AAN?$AAT?$AAA?$AAC?$AAT?$AAS?$AA_?$AAG?$AAA?$AAL?$AAC?$AAA?$AAR?$AAD?$AA_?$AAM?$AAE?$AAN?$AAU?$AA_?$AAC?$AAO?$AAM?$AAM?$AAE?$AAM?$AAA?$AAI?$AAL?$AAT@|
	DCD	|??_C@_1EC@OIFLICMP@?$AAC?$AAO?$AAN?$AAT?$AAA?$AAC?$AAT?$AAS?$AA_?$AAS?$AAU?$AAM?$AAC?$AAA?$AAR?$AAD?$AA_?$AAM?$AAE?$AAN?$AAU?$AA_?$AAC?$AAO?$AAM?$AAM?$AAW?$AAR?$AAK?$AAT?$AAX?$AAT@|
	DCD	|??_C@_1EA@CMFFKJJL@?$AAC?$AAO?$AAN?$AAT?$AAA?$AAC?$AAT?$AAS?$AA_?$AAS?$AAU?$AAM?$AAC?$AAA?$AAR?$AAD?$AA_?$AAM?$AAE?$AAN?$AAU?$AA_?$AAC?$AAO?$AAM?$AAM?$AAE?$AAM?$AAA?$AAI?$AAL?$AA?$AA@|
	DCD	|??_C@_1DO@MCPKBBOD@?$AAC?$AAO?$AAN?$AAT?$AAA?$AAC?$AAT?$AAS?$AA_?$AAG?$AAA?$AAL?$AAL?$AAV?$AA_?$AAM?$AAE?$AAN?$AAU?$AA_?$AAC?$AAO?$AAM?$AAM?$AAM?$AAO?$AAB?$AAW?$AAR?$AAK?$AA?$AA@|
	DCD	|??_C@_1EC@HDOAJNNP@?$AAC?$AAO?$AAN?$AAT?$AAA?$AAC?$AAT?$AAS?$AA_?$AAG?$AAA?$AAL?$AAL?$AAV?$AA_?$AAM?$AAE?$AAN?$AAU?$AA_?$AAC?$AAO?$AAM?$AAM?$AAE?$AAM?$AAA?$AAI?$AAL?$AAT?$AAX?$AAT@|
	DCD	|??_C@_1CM@JHMGAGOE@?$AAP?$AAL?$AAA?$AAY?$AAB?$AAA?$AAC?$AAK?$AA_?$AAC?$AAO?$AAU?$AAN?$AAT?$AA_?$AAN?$AAO?$AA_?$AAD?$AAR?$AAM?$AA?$AA@|
	DCD	|??_C@_1DO@FBMCADAA@?$AAP?$AAL?$AAA?$AAY?$AAB?$AAA?$AAC?$AAK?$AA_?$AAC?$AAO?$AAU?$AAN?$AAT?$AA_?$AAS?$AAT?$AAR?$AAE?$AAA?$AAM?$AAI?$AAN?$AAG?$AA_?$AAM?$AAE?$AAD?$AAI?$AAA?$AA?$AA@|
	DCD	|??_C@_1EK@JHGCOBKM@?$AAP?$AAL?$AAA?$AAY?$AAB?$AAA?$AAC?$AAK?$AA_?$AAC?$AAO?$AAU?$AAN?$AAT?$AA_?$AAM?$AAS?$AA_?$AAD?$AAR?$AAM?$AA_?$AAA?$AAN?$AAD?$AA_?$AAO?$AAT?$AAH?$AAE?$AAR?$AAS@|
	DCD	|??_C@_1HA@FLKBNIAG@?$AAC?$AAA?$AAM?$AAE?$AAR?$AAA?$AA_?$AAN?$AAU?$AAM?$AAB?$AAE?$AAR?$AA_?$AAC?$AAA?$AAP?$AAT?$AAU?$AAR?$AAE?$AAD?$AA_?$AAP?$AAH?$AAO?$AAT?$AAO?$AAS?$AA_?$AAA?$AAN@|
	DCD	|??_C@_1EA@CGFBBHOM@?$AAP?$AAL?$AAA?$AAY?$AAB?$AAA?$AAC?$AAK?$AA_?$AAC?$AAO?$AAU?$AAN?$AAT?$AA_?$AAM?$AAU?$AAS?$AAI?$AAC?$AA_?$AAA?$AAN?$AAD?$AA_?$AAV?$AAI?$AAD?$AAE?$AAO?$AAS?$AA?$AA@|
	DCD	|??_C@_1CC@PFBCBNGC@?$AAP?$AAH?$AAO?$AAN?$AAE?$AA_?$AAE?$AAR?$AAR?$AAO?$AAR?$AAC?$AAO?$AAU?$AAN?$AAT?$AA?$AA@|
	DCD	|??_C@_1BA@KBLKJDJD@?$AAI?$AAM?$AAE?$AAI?$AA_?$AAS?$AAN?$AA?$AA@|
	DCD	|??_C@_1BE@OHJENLDB@?$AAT?$AAA?$AAS?$AAK?$AAS?$AA_?$AAN?$AAE?$AAW?$AA?$AA@|
	DCD	|??_C@_1CG@GOMOLAPA@?$AAP?$AAI?$AAM?$AA_?$AAC?$AAA?$AAT?$AAE?$AAG?$AAO?$AAR?$AAY?$AA_?$AAT?$AAO?$AAT?$AAA?$AAL?$AA?$AA@|
	DCD	|??_C@_1CM@NGMLLFKM@?$AAT?$AAA?$AAS?$AAK?$AAS?$AA_?$AAC?$AAA?$AAT?$AAE?$AAG?$AAO?$AAR?$AAY?$AA_?$AAP?$AAI?$AAV?$AAO?$AAT?$AAS?$AA?$AA@|
	DCD	|??_C@_1CC@KJEANGJK@?$AAP?$AAI?$AAM?$AA_?$AAC?$AAA?$AAT?$AAE?$AAG?$AAO?$AAR?$AAY?$AA_?$AAN?$AAE?$AAW?$AA?$AA@|
	DCD	|??_C@_1CI@JDLJDJBP@?$AAT?$AAA?$AAS?$AAK?$AAS?$AA_?$AAC?$AAA?$AAT?$AAE?$AAG?$AAO?$AAR?$AAY?$AA_?$AAN?$AAO?$AAN?$AAE?$AA?$AA@|
	DCD	|??_C@_1CG@ELODEAAA@?$AAT?$AAA?$AAS?$AAK?$AAS?$AA_?$AAC?$AAA?$AAT?$AAE?$AAG?$AAO?$AAR?$AAY?$AA_?$AAO?$AAN?$AAE?$AA?$AA@|
	DCD	|??_C@_1DG@HKLLNMEO@?$AAT?$AAA?$AAS?$AAK?$AAS?$AA_?$AAC?$AAA?$AAT?$AAE?$AAG?$AAO?$AAR?$AAY?$AA_?$AAT?$AAW?$AAO?$AA_?$AAO?$AAR?$AA_?$AAM?$AAO?$AAR?$AAE?$AA?$AA@|
	DCD	|??_C@_1CE@LDKHFGOK@?$AAT?$AAA?$AAS?$AAK?$AAS?$AA_?$AAD?$AAU?$AAE?$AA_?$AAO?$AAV?$AAE?$AAR?$AAD?$AAU?$AAE?$AA?$AA@|
	DCD	|??_C@_1CO@DNAKEEEA@?$AAT?$AAA?$AAS?$AAK?$AAS?$AA_?$AAD?$AAU?$AAE?$AA_?$AAT?$AAO?$AAD?$AAA?$AAY?$AA_?$AAH?$AAE?$AAA?$AAD?$AAE?$AAR?$AA?$AA@|
	DCD	|??_C@_1DE@IGKNKBPG@?$AAT?$AAA?$AAS?$AAK?$AAS?$AA_?$AAD?$AAU?$AAE?$AA_?$AAT?$AAO?$AAM?$AAO?$AAR?$AAR?$AAO?$AAW?$AA_?$AAH?$AAE?$AAA?$AAD?$AAE?$AAR?$AA?$AA@|
	DCD	|??_C@_1DG@KIODOMLE@?$AAT?$AAA?$AAS?$AAK?$AAS?$AA_?$AAD?$AAU?$AAE?$AA_?$AAT?$AAH?$AAI?$AAS?$AA_?$AAW?$AAE?$AAE?$AAK?$AA_?$AAH?$AAE?$AAA?$AAD?$AAE?$AAR?$AA?$AA@|
	DCD	|??_C@_1DG@BAPDNPAH@?$AAT?$AAA?$AAS?$AAK?$AAS?$AA_?$AAD?$AAU?$AAE?$AA_?$AAN?$AAE?$AAX?$AAT?$AA_?$AAW?$AAE?$AAE?$AAK?$AA_?$AAH?$AAE?$AAA?$AAD?$AAE?$AAR?$AA?$AA@|
	DCD	|??_C@_1DI@OBILBFDB@?$AAT?$AAA?$AAS?$AAK?$AAS?$AA_?$AAD?$AAU?$AAE?$AA_?$AAT?$AAH?$AAI?$AAS?$AA_?$AAM?$AAO?$AAN?$AAT?$AAH?$AA_?$AAH?$AAE?$AAA?$AAD?$AAE?$AAR?$AA?$AA@|
	DCD	|??_C@_1DI@JBLDDBEM@?$AAT?$AAA?$AAS?$AAK?$AAS?$AA_?$AAD?$AAU?$AAE?$AA_?$AAN?$AAE?$AAX?$AAT?$AA_?$AAM?$AAO?$AAN?$AAT?$AAH?$AA_?$AAH?$AAE?$AAA?$AAD?$AAE?$AAR?$AA?$AA@|
	DCD	|??_C@_1CO@LKIMIOBM@?$AAT?$AAA?$AAS?$AAK?$AAS?$AA_?$AAD?$AAU?$AAE?$AA_?$AAL?$AAA?$AAT?$AAE?$AAR?$AA_?$AAH?$AAE?$AAA?$AAD?$AAE?$AAR?$AA?$AA@|
	DCD	|??_C@_1DC@OAPAJGIC@?$AAT?$AAA?$AAS?$AAK?$AAS?$AA_?$AAD?$AAU?$AAE?$AA_?$AAN?$AAO?$AA_?$AAD?$AAA?$AAT?$AAE?$AA_?$AAH?$AAE?$AAA?$AAD?$AAE?$AAR?$AA?$AA@|
	DCD	|??_C@_1DK@ENHEANHL@?$AAT?$AAA?$AAS?$AAK?$AAS?$AA_?$AAC?$AAO?$AAM?$AAP?$AAL?$AAE?$AAT?$AAE?$AAD?$AA_?$AAT?$AAO?$AAD?$AAA?$AAY?$AA_?$AAH?$AAE?$AAA?$AAD?$AAE?$AAR?$AA?$AA@|
	DCD	|??_C@_1EC@GJCNBPEL@?$AAT?$AAA?$AAS?$AAK?$AAS?$AA_?$AAC?$AAO?$AAM?$AAP?$AAL?$AAE?$AAT?$AAE?$AAD?$AA_?$AAT?$AAH?$AAI?$AAS?$AA_?$AAW?$AAE?$AAE?$AAK?$AA_?$AAH?$AAE?$AAA?$AAD?$AAE?$AAR@|
	DCD	|??_C@_1DO@JECOGGMC@?$AAT?$AAA?$AAS?$AAK?$AAS?$AA_?$AAC?$AAO?$AAM?$AAP?$AAL?$AAE?$AAT?$AAE?$AAD?$AA_?$AAE?$AAA?$AAR?$AAL?$AAI?$AAE?$AAR?$AA_?$AAH?$AAE?$AAA?$AAD?$AAE?$AAR?$AA?$AA@|
	DCD	|??_C@_1CE@LHGLAAEP@?$AAT?$AAA?$AAS?$AAK?$AAS?$AA_?$AAN?$AAE?$AAW?$AA_?$AAS?$AAU?$AAB?$AAJ?$AAE?$AAC?$AAT?$AA?$AA@|
	DCD	|??_C@_1CG@FFLCELDK@?$AAT?$AAA?$AAS?$AAK?$AAS?$AA_?$AAN?$AAE?$AAW?$AA_?$AAP?$AAR?$AAI?$AAO?$AAR?$AAI?$AAT?$AAY?$AA?$AA@|
	DCD	|??_C@_1CK@CCFELGIK@?$AAT?$AAA?$AAS?$AAK?$AAS?$AA_?$AAN?$AAE?$AAW?$AA_?$AAC?$AAA?$AAT?$AAE?$AAG?$AAO?$AAR?$AAI?$AAE?$AAS?$AA?$AA@|
	DCD	|??_C@_1CG@EIDHEGLN@?$AAT?$AAA?$AAS?$AAK?$AAS?$AA_?$AAN?$AAE?$AAW?$AA_?$AAD?$AAU?$AAE?$AA_?$AAD?$AAA?$AAT?$AAE?$AA?$AA@|
	DCD	|??_C@_1CG@EDFOOCB@?$AAT?$AAA?$AAS?$AAK?$AAS?$AA_?$AAN?$AAE?$AAW?$AA_?$AAR?$AAE?$AAM?$AAI?$AAN?$AAD?$AAE?$AAR?$AA?$AA@|
	DCD	|??_C@_1CA@KFNIFACC@?$AAT?$AAA?$AAS?$AAK?$AAS?$AA_?$AAN?$AAE?$AAW?$AA_?$AAN?$AAO?$AAT?$AAE?$AAS?$AA?$AA@|
	DCD	|??_C@_1CK@MDAOLLMJ@?$AAT?$AAA?$AAS?$AAK?$AAS?$AA_?$AAN?$AAE?$AAW?$AA_?$AAS?$AAT?$AAA?$AAR?$AAT?$AA_?$AAD?$AAA?$AAT?$AAE?$AA?$AA@|
	DCD	|??_C@_1CK@OHPGNNHF@?$AAT?$AAA?$AAS?$AAK?$AAS?$AA_?$AAN?$AAE?$AAW?$AA_?$AAR?$AAE?$AAC?$AAU?$AAR?$AAR?$AAE?$AAN?$AAC?$AAE?$AA?$AA@|
	DCD	|??_C@_1CI@CNKAHBDE@?$AAT?$AAA?$AAS?$AAK?$AAS?$AA_?$AAN?$AAE?$AAW?$AA_?$AAC?$AAO?$AAM?$AAP?$AAL?$AAE?$AAT?$AAE?$AAD?$AA?$AA@|
	DCD	|??_C@_1CG@CGEOOEBL@?$AAT?$AAA?$AAS?$AAK?$AAS?$AA_?$AAE?$AAD?$AAI?$AAT?$AA_?$AAS?$AAU?$AAB?$AAJ?$AAE?$AAC?$AAT?$AA?$AA@|
	DCD	|??_C@_1CI@CMACGECO@?$AAT?$AAA?$AAS?$AAK?$AAS?$AA_?$AAE?$AAD?$AAI?$AAT?$AA_?$AAP?$AAR?$AAI?$AAO?$AAR?$AAI?$AAT?$AAY?$AA?$AA@|
	DCD	|??_C@_1CM@DCCBALP@?$AAT?$AAA?$AAS?$AAK?$AAS?$AA_?$AAE?$AAD?$AAI?$AAT?$AA_?$AAC?$AAA?$AAT?$AAE?$AAG?$AAO?$AAR?$AAI?$AAE?$AAS?$AA?$AA@|
	DCD	|??_C@_1CI@DBIHGJKJ@?$AAT?$AAA?$AAS?$AAK?$AAS?$AA_?$AAE?$AAD?$AAI?$AAT?$AA_?$AAD?$AAU?$AAE?$AA_?$AAD?$AAA?$AAT?$AAE?$AA?$AA@|
	DCD	|??_C@_1CI@HNIFMBDF@?$AAT?$AAA?$AAS?$AAK?$AAS?$AA_?$AAE?$AAD?$AAI?$AAT?$AA_?$AAR?$AAE?$AAM?$AAI?$AAN?$AAD?$AAE?$AAR?$AA?$AA@|
	DCD	|??_C@_1CC@EHKAPMDD@?$AAT?$AAA?$AAS?$AAK?$AAS?$AA_?$AAE?$AAD?$AAI?$AAT?$AA_?$AAN?$AAO?$AAT?$AAE?$AAS?$AA?$AA@|
	DCD	|??_C@_1CM@OCHIBNPM@?$AAT?$AAA?$AAS?$AAK?$AAS?$AA_?$AAE?$AAD?$AAI?$AAT?$AA_?$AAS?$AAT?$AAA?$AAR?$AAT?$AA_?$AAD?$AAA?$AAT?$AAE?$AA?$AA@|
	DCD	|??_C@_1CM@MGIAHLEA@?$AAT?$AAA?$AAS?$AAK?$AAS?$AA_?$AAE?$AAD?$AAI?$AAT?$AA_?$AAR?$AAE?$AAC?$AAU?$AAR?$AAR?$AAE?$AAN?$AAC?$AAE?$AA?$AA@|
	DCD	|??_C@_1CK@KINPOCII@?$AAT?$AAA?$AAS?$AAK?$AAS?$AA_?$AAE?$AAD?$AAI?$AAT?$AA_?$AAC?$AAO?$AAM?$AAP?$AAL?$AAE?$AAT?$AAE?$AAD?$AA?$AA@|
	DCD	|??_C@_1BM@HJBGBKNG@?$AAT?$AAA?$AAS?$AAK?$AAS?$AA_?$AAL?$AAV?$AA_?$AAO?$AAP?$AAE?$AAN?$AA?$AA@|
	DCD	|??_C@_1CE@FOPLBGBA@?$AAT?$AAA?$AAS?$AAK?$AAS?$AA_?$AAL?$AAV?$AA_?$AAC?$AAO?$AAM?$AAP?$AAL?$AAE?$AAT?$AAE?$AA?$AA@|
	DCD	|??_C@_1CE@CAPLNPGF@?$AAT?$AAA?$AAS?$AAK?$AAS?$AA_?$AAS?$AAC?$AA_?$AAC?$AAO?$AAM?$AAP?$AAL?$AAE?$AAT?$AAE?$AA?$AA@|
	DCD	|??_C@_1CE@BBJOKFMB@?$AAT?$AAA?$AAS?$AAK?$AAS?$AA_?$AAL?$AAV?$AA_?$AAA?$AAC?$AAT?$AAI?$AAV?$AAA?$AAT?$AAE?$AA?$AA@|
	DCD	|??_C@_1CE@GPJOGMLE@?$AAT?$AAA?$AAS?$AAK?$AAS?$AA_?$AAS?$AAC?$AA_?$AAA?$AAC?$AAT?$AAI?$AAV?$AAA?$AAT?$AAE?$AA?$AA@|
	DCD	|??_C@_1CA@GGOGMINP@?$AAT?$AAA?$AAS?$AAK?$AAS?$AA_?$AAL?$AAV?$AA_?$AAD?$AAE?$AAL?$AAE?$AAT?$AAE?$AA?$AA@|
	DCD	|??_C@_1CA@DAOGCOCE@?$AAT?$AAA?$AAS?$AAK?$AAS?$AA_?$AAS?$AAC?$AA_?$AAD?$AAE?$AAL?$AAE?$AAT?$AAE?$AA?$AA@|
	DCD	|??_C@_1BM@NOKDMCEO@?$AAT?$AAA?$AAS?$AAK?$AAS?$AA_?$AAL?$AAV?$AA_?$AAE?$AAD?$AAI?$AAT?$AA?$AA@|
	DCD	|??_C@_1BM@FEHPMJOL@?$AAT?$AAA?$AAS?$AAK?$AAS?$AA_?$AAS?$AAC?$AA_?$AAE?$AAD?$AAI?$AAT?$AA?$AA@|
	DCD	|??_C@_1BM@LLELEIHE@?$AAT?$AAA?$AAS?$AAK?$AAS?$AA_?$AAS?$AAC?$AA_?$AAB?$AAE?$AAA?$AAM?$AA?$AA@|
	DCD	|??_C@_1DA@MLHFGJBF@?$AAT?$AAA?$AAS?$AAK?$AAS?$AA_?$AAL?$AAV?$AA_?$AAP?$AAO?$AAS?$AAT?$AAP?$AAO?$AAN?$AAE?$AA_?$AA1?$AA_?$AAD?$AAA?$AAY?$AA?$AA@|
	DCD	|??_C@_1DC@HDAJNNFA@?$AAT?$AAA?$AAS?$AAK?$AAS?$AA_?$AAL?$AAV?$AA_?$AAP?$AAO?$AAS?$AAT?$AAP?$AAO?$AAN?$AAE?$AA_?$AA1?$AA_?$AAW?$AAE?$AAE?$AAK?$AA?$AA@|
	DCD	|??_C@_1DM@BHBJAPKD@?$AAT?$AAA?$AAS?$AAK?$AAS?$AA_?$AAL?$AAV?$AA_?$AAP?$AAO?$AAS?$AAT?$AAP?$AAO?$AAN?$AAE?$AA_?$AAS?$AAE?$AAL?$AAE?$AAC?$AAT?$AA_?$AAD?$AAA?$AAT?$AAE?$AA?$AA@|
	DCD	|??_C@_1DE@EGCJGDAA@?$AAT?$AAA?$AAS?$AAK?$AAS?$AA_?$AAL?$AAV?$AA_?$AAP?$AAO?$AAS?$AAT?$AAP?$AAO?$AAN?$AAE?$AA_?$AAN?$AAO?$AA_?$AAD?$AAA?$AAT?$AAE?$AA?$AA@|
	DCD	|??_C@_1CK@GEBPIBEH@?$AAT?$AAA?$AAS?$AAK?$AAS?$AA_?$AAL?$AAV?$AA_?$AAV?$AAI?$AAE?$AAW?$AA_?$AAA?$AAC?$AAT?$AAI?$AAV?$AAE?$AA?$AA@|
	DCD	|??_C@_1DA@IAFANHDN@?$AAT?$AAA?$AAS?$AAK?$AAS?$AA_?$AAL?$AAV?$AA_?$AAV?$AAI?$AAE?$AAW?$AA_?$AAC?$AAO?$AAM?$AAP?$AAL?$AAE?$AAT?$AAE?$AAD?$AA?$AA@|
	DCD	|??_C@_1CI@BJJMKNNF@?$AAT?$AAA?$AAS?$AAK?$AAS?$AA_?$AAL?$AAV?$AA_?$AAC?$AAA?$AAT?$AAE?$AAG?$AAO?$AAR?$AAI?$AAE?$AAS?$AA?$AA@|
	DCD	|??_C@_1CK@JJHDJDJ@?$AAT?$AAA?$AAS?$AAK?$AAS?$AA_?$AAL?$AAV?$AA_?$AAS?$AAM?$AAA?$AAR?$AAT?$AAS?$AAE?$AAA?$AAR?$AAC?$AAH?$AA?$AA@|
	DCD	|??_C@_1BG@JOKFOLAN@?$AAT?$AAA?$AAS?$AAK?$AAS?$AA_?$AAE?$AAD?$AAI?$AAT?$AA?$AA@|
	DCD	|??_C@_1EC@HHDMHBB@?$AAT?$AAA?$AAS?$AAK?$AAS?$AA_?$AAC?$AAO?$AAM?$AAP?$AAL?$AAE?$AAT?$AAE?$AAD?$AA_?$AAY?$AAE?$AAS?$AAT?$AAE?$AAR?$AAD?$AAA?$AAY?$AA_?$AAH?$AAE?$AAA?$AAD?$AAE?$AAR@|
	DCD	|??_C@_1EE@FGBLIKCL@?$AAT?$AAA?$AAS?$AAK?$AAS?$AA_?$AAC?$AAO?$AAM?$AAP?$AAL?$AAE?$AAT?$AAE?$AAD?$AA_?$AAT?$AAH?$AAI?$AAS?$AA_?$AAM?$AAO?$AAN?$AAT?$AAH?$AA_?$AAH?$AAE?$AAA?$AAD?$AAE@|
	DCD	|??_C@_1EE@GPLBHJAO@?$AAT?$AAA?$AAS?$AAK?$AAS?$AA_?$AAC?$AAO?$AAM?$AAP?$AAL?$AAE?$AAT?$AAE?$AAD?$AA_?$AAL?$AAA?$AAS?$AAT?$AA_?$AAM?$AAO?$AAN?$AAT?$AAH?$AA_?$AAH?$AAE?$AAA?$AAD?$AAE@|
	DCD	|??_C@_1DM@PBGOBGOB@?$AAD?$AAA?$AAT?$AAA?$AAC?$AAC?$AAE?$AAS?$AAS?$AA_?$AAT?$AAA?$AAS?$AAK?$AAS?$AA_?$AAA?$AAC?$AAT?$AAI?$AAV?$AAE?$AA_?$AAI?$AAN?$AAV?$AAO?$AAK?$AAE?$AA?$AA@|
	DCD	|??_C@_1EC@GLAHOBD@?$AAD?$AAA?$AAT?$AAA?$AAC?$AAC?$AAE?$AAS?$AAS?$AA_?$AAT?$AAA?$AAS?$AAK?$AAS?$AA_?$AAC?$AAO?$AAM?$AAP?$AAL?$AAE?$AAT?$AAE?$AAD?$AA_?$AAI?$AAN?$AAV?$AAO?$AAK?$AAE@|
	DCD	|??_C@_1EE@LPKPPMNC@?$AAD?$AAA?$AAT?$AAA?$AAC?$AAC?$AAE?$AAS?$AAS?$AA_?$AAC?$AAA?$AAL?$AAE?$AAN?$AAD?$AAA?$AAR?$AA_?$AAC?$AAU?$AAR?$AAR?$AAE?$AAN?$AAT?$AA_?$AAI?$AAN?$AAV?$AAO?$AAK@|
	DCD	|??_C@_1DO@FALLOOOC@?$AAD?$AAA?$AAT?$AAA?$AAC?$AAC?$AAE?$AAS?$AAS?$AA_?$AAC?$AAA?$AAL?$AAE?$AAN?$AAD?$AAA?$AAR?$AA_?$AAP?$AAA?$AAS?$AAT?$AA_?$AAI?$AAN?$AAV?$AAO?$AAK?$AAE?$AA?$AA@|
	DCD	|??_C@_1EG@OLBPBBHJ@?$AAD?$AAA?$AAT?$AAA?$AAC?$AAC?$AAE?$AAS?$AAS?$AA_?$AAC?$AAO?$AAN?$AAT?$AAA?$AAC?$AAT?$AAS?$AA_?$AAO?$AAN?$AAF?$AAI?$AAL?$AAE?$AAA?$AAS?$AA_?$AAI?$AAN?$AAV?$AAO@|
	DCD	|??_C@_1EG@HGBMBPFE@?$AAD?$AAA?$AAT?$AAA?$AAC?$AAC?$AAE?$AAS?$AAS?$AA_?$AAC?$AAO?$AAN?$AAT?$AAA?$AAC?$AAT?$AAS?$AA_?$AAO?$AAN?$AAN?$AAU?$AAM?$AAB?$AAE?$AAR?$AA_?$AAI?$AAN?$AAV?$AAO@|
	DCD	|??_C@_1EI@BCCLLPEC@?$AAD?$AAA?$AAT?$AAA?$AAC?$AAC?$AAE?$AAS?$AAS?$AA_?$AAC?$AAO?$AAN?$AAT?$AAA?$AAC?$AAT?$AAS?$AA_?$AAG?$AAA?$AAL?$AAS?$AAE?$AAA?$AAR?$AAC?$AAH?$AA_?$AAI?$AAN?$AAV@|
	DCD	|??_C@_1DE@OCOLOCGC@?$AAD?$AAA?$AAT?$AAA?$AAC?$AAC?$AAE?$AAS?$AAS?$AA_?$AAC?$AAO?$AAN?$AAT?$AAA?$AAC?$AAT?$AAS?$AA_?$AAI?$AAN?$AAV?$AAO?$AAK?$AAE?$AA?$AA@|
	DCD	|??_C@_1DK@KNLFEDIC@?$AAD?$AAA?$AAT?$AAA?$AAC?$AAC?$AAE?$AAS?$AAS?$AA_?$AAC?$AAA?$AAL?$AAL?$AAH?$AAI?$AAS?$AAT?$AAO?$AAR?$AAY?$AA_?$AAI?$AAN?$AAV?$AAO?$AAK?$AAE?$AA?$AA@|
	DCD	|??_C@_1BK@FDKPGLJN@?$AAM?$AAU?$AAL?$AAT?$AAI?$AA_?$AAH?$AAO?$AAM?$AAI?$AAN?$AAG?$AA?$AA@|
	DCD	|??_C@_1CK@HGOIMNBK@?$AAS?$AAA?$AAV?$AAE?$AA_?$AAD?$AAE?$AAV?$AAI?$AAC?$AAE?$AA_?$AAP?$AAA?$AAS?$AAS?$AAW?$AAO?$AAR?$AAD?$AA?$AA@|
	DCD	|??_C@_19BCKJFNGN@?$AAD?$AAT?$AAP?$AAT?$AA?$AA@|
	DCD	|??_C@_1CO@HNBKAOIM@?$AAS?$AAE?$AAR?$AAI?$AAA?$AAL?$AA_?$AAC?$AAO?$AAN?$AAN?$AAE?$AAC?$AAT?$AAI?$AAO?$AAN?$AA_?$AAT?$AAY?$AAP?$AAE?$AA?$AA@|
	DCD	|??_C@_1DC@CDEPHFGE@?$AAO?$AAS?$AA_?$AAM?$AAA?$AAJ?$AAO?$AAR?$AA_?$AAV?$AAE?$AAR?$AAS?$AAI?$AAO?$AAN?$AA_?$AAD?$AAE?$AAS?$AAK?$AAT?$AAO?$AAP?$AA?$AA@|
	DCD	|??_C@_1DA@HEKKDKGA@?$AAO?$AAS?$AA_?$AAM?$AAA?$AAJ?$AAO?$AAR?$AA_?$AAV?$AAE?$AAR?$AAS?$AAI?$AAO?$AAN?$AA_?$AAD?$AAE?$AAV?$AAI?$AAC?$AAE?$AA?$AA@|
	DCD	|??_C@_1DC@PKFFACAM@?$AAO?$AAS?$AA_?$AAM?$AAI?$AAN?$AAO?$AAR?$AA_?$AAV?$AAE?$AAR?$AAS?$AAI?$AAO?$AAN?$AA_?$AAD?$AAE?$AAS?$AAK?$AAT?$AAO?$AAP?$AA?$AA@|
	DCD	|??_C@_1DA@FFGJEGNE@?$AAO?$AAS?$AA_?$AAM?$AAI?$AAN?$AAO?$AAR?$AA_?$AAV?$AAE?$AAR?$AAS?$AAI?$AAO?$AAN?$AA_?$AAD?$AAE?$AAV?$AAI?$AAC?$AAE?$AA?$AA@|
	DCD	|??_C@_1CC@MJEJNCFP@?$AAN?$AAU?$AAM?$AA_?$AAC?$AAO?$AAN?$AAN?$AA_?$AAA?$AAT?$AAT?$AAE?$AAM?$AAP?$AAT?$AA?$AA@|
	DCD	|??_C@_1CC@IIPJANEC@?$AAN?$AAU?$AAM?$AA_?$AAC?$AAO?$AAN?$AAN?$AA_?$AAS?$AAU?$AAC?$AAC?$AAE?$AAS?$AAS?$AA?$AA@|
	DCD	|??_C@_1BO@DKCOFGIB@?$AAN?$AAU?$AAM?$AA_?$AAC?$AAO?$AAN?$AAN?$AA_?$AAE?$AAR?$AAR?$AAO?$AAR?$AA?$AA@|
	DCD	|??_C@_1BO@KLANIPEA@?$AAN?$AAU?$AAM?$AA_?$AAC?$AAO?$AAN?$AAN?$AA_?$AAR?$AAN?$AAD?$AAI?$AAS?$AA?$AA@|
	DCD	|??_C@_1CA@NEIPIKHL@?$AAN?$AAU?$AAM?$AA_?$AAC?$AAO?$AAN?$AAN?$AA_?$AAS?$AAE?$AAR?$AAI?$AAA?$AAL?$AA?$AA@|
	DCD	|??_C@_1BI@BCFJJBGD@?$AAN?$AAU?$AAM?$AA_?$AAC?$AAO?$AAN?$AAN?$AA_?$AAB?$AAT?$AA?$AA@|
	DCD	|??_C@_1EO@NBGMHNAO@?$AAA?$AAL?$AAL?$AAO?$AAW?$AA_?$AAU?$AAS?$AAB?$AA_?$AAC?$AAO?$AAN?$AAN?$AA_?$AAA?$AAN?$AAD?$AA_?$AAS?$AAY?$AAS?$AA_?$AAT?$AAR?$AAA?$AAY?$AA_?$AAI?$AAC?$AAO?$AAN@|
	DCD	|??_C@_1DG@PGEIKNIG@?$AAF?$AAI?$AAL?$AAE?$AAP?$AAI?$AAC?$AAK?$AAE?$AAR?$AA_?$AAS?$AAA?$AAV?$AAE?$AAD?$AAT?$AAO?$AA_?$AAS?$AAT?$AAO?$AAR?$AAA?$AAG?$AAE?$AA?$AA@|
	DCD	|??_C@_1DE@FLFIPFHB@?$AAF?$AAI?$AAL?$AAE?$AAP?$AAI?$AAC?$AAK?$AAE?$AAR?$AA_?$AAS?$AAA?$AAV?$AAE?$AAD?$AAT?$AAO?$AA_?$AAD?$AAE?$AAV?$AAI?$AAC?$AAE?$AA?$AA@|
	DCD	|??_C@_1DM@OBJAKDND@?$AAF?$AAI?$AAL?$AAE?$AAP?$AAI?$AAC?$AAK?$AAE?$AAR?$AA_?$AAO?$AAP?$AAE?$AAN?$AAE?$AAD?$AAF?$AAR?$AAO?$AAM?$AA_?$AAS?$AAT?$AAO?$AAR?$AAA?$AAG?$AAE?$AA?$AA@|
	DCD	|??_C@_1DK@FLDJIKKH@?$AAF?$AAI?$AAL?$AAE?$AAP?$AAI?$AAC?$AAK?$AAE?$AAR?$AA_?$AAO?$AAP?$AAE?$AAN?$AAE?$AAD?$AAF?$AAR?$AAO?$AAM?$AA_?$AAD?$AAE?$AAV?$AAI?$AAC?$AAE?$AA?$AA@|
	DCD	|??_C@_1DE@GLCLNCB@?$AAF?$AAI?$AAL?$AAE?$AAP?$AAI?$AAC?$AAK?$AAE?$AAR?$AA_?$AAO?$AAV?$AAE?$AAR?$AAW?$AAR?$AAI?$AAT?$AAE?$AA_?$AAF?$AAI?$AAL?$AAE?$AA?$AA@|
	DCD	|??_C@_1DM@CJBNCKFJ@?$AAR?$AAE?$AAG?$AAI?$AAO?$AAN?$AAA?$AAL?$AAC?$AAP?$AAL?$AA_?$AAC?$AAU?$AAS?$AAT?$AAO?$AAM?$AAI?$AAZ?$AAE?$AA_?$AAN?$AAU?$AAM?$AAB?$AAE?$AAR?$AAS?$AA?$AA@|
	DCD	|??_C@_1DO@OBJAMKIM@?$AAR?$AAE?$AAG?$AAI?$AAO?$AAN?$AAA?$AAL?$AAC?$AAP?$AAL?$AA_?$AAC?$AAU?$AAS?$AAT?$AAO?$AAM?$AAI?$AAZ?$AAE?$AA_?$AAC?$AAU?$AAR?$AAR?$AAE?$AAN?$AAC?$AAY?$AA?$AA@|
	DCD	|??_C@_1DG@KNAIPFAN@?$AAR?$AAE?$AAG?$AAI?$AAO?$AAN?$AAA?$AAL?$AAC?$AAP?$AAL?$AA_?$AAC?$AAU?$AAS?$AAT?$AAO?$AAM?$AAI?$AAZ?$AAE?$AA_?$AAD?$AAA?$AAT?$AAE?$AA?$AA@|
	DCD	|??_C@_1DG@HNJKDMAD@?$AAR?$AAE?$AAG?$AAI?$AAO?$AAN?$AAA?$AAL?$AAC?$AAP?$AAL?$AA_?$AAC?$AAU?$AAS?$AAT?$AAO?$AAM?$AAI?$AAZ?$AAE?$AA_?$AAT?$AAI?$AAM?$AAE?$AA?$AA@|
	DCD	|??_C@_1CO@MIOJOACJ@?$AAN?$AAU?$AAM?$AA_?$AAC?$AAO?$AAN?$AAN?$AAE?$AAC?$AAT?$AAI?$AAO?$AAN?$AA_?$AAA?$AAT?$AAT?$AAE?$AAM?$AAP?$AAT?$AA?$AA@|
	DCD	|??_C@_1CE@HPHBCPDI@?$AAN?$AAU?$AAM?$AA_?$AAC?$AAO?$AAN?$AAN?$AAE?$AAC?$AAT?$AAI?$AAO?$AAN?$AA_?$AAB?$AAT?$AA?$AA@|
	DCD	|??_C@_1CK@NGBJMHGC@?$AAN?$AAU?$AAM?$AA_?$AAC?$AAO?$AAN?$AAN?$AAE?$AAC?$AAT?$AAI?$AAO?$AAN?$AA_?$AAE?$AAR?$AAR?$AAO?$AAR?$AA?$AA@|
	DCD	|??_C@_1CK@EHDKBOKD@?$AAN?$AAU?$AAM?$AA_?$AAC?$AAO?$AAN?$AAN?$AAE?$AAC?$AAT?$AAI?$AAO?$AAN?$AA_?$AAR?$AAN?$AAD?$AAI?$AAS?$AA?$AA@|
	DCD	|??_C@_1CM@CGNEGFLB@?$AAN?$AAU?$AAM?$AA_?$AAC?$AAO?$AAN?$AAN?$AAE?$AAC?$AAT?$AAI?$AAO?$AAN?$AA_?$AAS?$AAE?$AAR?$AAI?$AAA?$AAL?$AA?$AA@|
	DCD	|??_C@_1CO@IJFJDPDE@?$AAN?$AAU?$AAM?$AA_?$AAC?$AAO?$AAN?$AAN?$AAE?$AAC?$AAT?$AAI?$AAO?$AAN?$AA_?$AAS?$AAU?$AAC?$AAC?$AAE?$AAS?$AAS?$AA?$AA@|
	DCD	|??_C@_1CI@LKPLCKGL@?$AAS?$AAY?$AAN?$AAC?$AA_?$AAS?$AAT?$AAA?$AAT?$AAS?$AA_?$AAS?$AAM?$AAS?$AA_?$AAA?$AAD?$AAD?$AAS?$AA?$AA@|
	DCD	|??_C@_1DA@BCJNPGDO@?$AAM?$AAS?$AAG?$AA_?$AAN?$AAU?$AAM?$AAB?$AAE?$AAR?$AA_?$AAO?$AAF?$AA_?$AAA?$AAC?$AAC?$AAO?$AAU?$AAN?$AAT?$AAS?$AA2?$AA?$AA@|
	DCD	|??_C@_1CO@JKGNHEGA@?$AAM?$AAS?$AAG?$AA_?$AAA?$AAC?$AAC?$AAO?$AAU?$AAN?$AAT?$AAI?$AAN?$AAF?$AAO?$AA_?$AAS?$AAT?$AAR?$AAE?$AAA?$AAM?$AA?$AA@|
	DCD	|??_C@_1CO@DILFOHEN@?$AAM?$AAS?$AAG?$AA_?$AAE?$AAM?$AAA?$AAI?$AAL?$AA_?$AAS?$AAE?$AAT?$AAU?$AAP?$AA_?$AAW?$AAI?$AAZ?$AAA?$AAR?$AAD?$AA?$AA@|
	DCD	|??_C@_1BA@PBHOBKF@?$AAU?$AAD?$AAE?$AAV?$AAI?$AAD?$AA1?$AA?$AA@|
	DCD	|??_C@_1BA@BNKCEOEL@?$AAU?$AAD?$AAE?$AAV?$AAI?$AAD?$AA2?$AA?$AA@|
	DCD	|??_C@_1BA@KFBOCJCO@?$AAU?$AAD?$AAE?$AAV?$AAI?$AAD?$AA3?$AA?$AA@|
	DCD	|??_C@_1BA@DIMJBBJH@?$AAU?$AAD?$AAE?$AAV?$AAI?$AAD?$AA4?$AA?$AA@|
	DCD	|??_C@_1DK@HBGKJICK@?$AAC?$AAO?$AAN?$AAT?$AAA?$AAC?$AAT?$AAS?$AA_?$AAG?$AAA?$AAL?$AAL?$AAV?$AA_?$AAM?$AAE?$AAN?$AAU?$AA_?$AAC?$AAO?$AAM?$AAM?$AAH?$AAO?$AAM?$AAE?$AA?$AA@|
	DCD	|??_C@_1DG@JFKFBFEI@?$AAC?$AAO?$AAN?$AAT?$AAA?$AAC?$AAT?$AAS?$AA_?$AAG?$AAA?$AAL?$AAL?$AAV?$AA_?$AAM?$AAE?$AAN?$AAU?$AA_?$AAS?$AAK?$AAC?$AAO?$AAM?$AAM?$AA?$AA@|
	DCD	|??_C@_1BE@CAAGCEKK@?$AAA?$AAP?$AAP?$AA_?$AAU?$AAS?$AAA?$AAG?$AAE?$AA?$AA@|
	DCD	|??_C@_1BM@IBMCBJEF@?$AAM?$AAE?$AAN?$AAU?$AA_?$AAS?$AAE?$AAQ?$AAU?$AAE?$AAN?$AAC?$AAE?$AA?$AA@|
	DCD	|??_C@_1CC@IGGJPJP@?$AAM?$AAA?$AAX?$AA_?$AAP?$AAR?$AAO?$AAC?$AAE?$AAS?$AAS?$AAC?$AAO?$AAU?$AAN?$AAT?$AA?$AA@|
	DCD	|??_C@_1CA@EFIOLADG@?$AAM?$AAA?$AAX?$AA_?$AAM?$AAO?$AAD?$AAU?$AAL?$AAE?$AAC?$AAO?$AAU?$AAN?$AAT?$AA?$AA@|
	DCD	|??_C@_1CE@FBFABEHF@?$AAM?$AAA?$AAX?$AA_?$AAK?$AAE?$AAR?$AAN?$AAE?$AAL?$AAM?$AAO?$AAD?$AAU?$AAL?$AAE?$AAS?$AA?$AA@|
	DCD	|??_C@_1BA@JMMIFHEH@?$AAO?$AAE?$AAM?$AAI?$AAN?$AAF?$AAO?$AA?$AA@|
	DCD	|??_C@_1CK@HJMHEFK@?$AAP?$AAL?$AAA?$AAT?$AAF?$AAO?$AAR?$AAM?$AAM?$AAA?$AAN?$AAU?$AAF?$AAA?$AAC?$AAT?$AAU?$AAR?$AAE?$AAR?$AA?$AA@|
	DCD	|??_C@_1BK@ODHNCCHJ@?$AAP?$AAL?$AAA?$AAT?$AAF?$AAO?$AAR?$AAM?$AAN?$AAA?$AAM?$AAE?$AA?$AA@|
	DCD	|??_C@_1CI@PAMNAALF@?$AAO?$AAS?$AA_?$AAB?$AAU?$AAI?$AAL?$AAD?$AA_?$AAN?$AAU?$AAM?$AA_?$AAD?$AAE?$AAV?$AAI?$AAC?$AAE?$AA?$AA@|
	DCD	|??_C@_1CI@PGMDNILG@?$AAR?$AAA?$AAP?$AAI?$AA_?$AAV?$AAE?$AAR?$AAS?$AAI?$AAO?$AAN?$AA_?$AAD?$AAE?$AAV?$AAI?$AAC?$AAE?$AA?$AA@|
	DCD	|??_C@_1BI@PLJNBLLH@?$AAW?$AAA?$AAT?$AAS?$AAO?$AAN?$AA_?$AAM?$AAT?$AAT?$AAF?$AA?$AA@|
	DCD	|??_C@_1EO@KOKFKJFD@?$AAC?$AAO?$AAN?$AAT?$AAA?$AAC?$AAT?$AAS?$AAU?$AAM?$AAM?$AAA?$AAR?$AAY?$AAC?$AAA?$AAR?$AAD?$AA_?$AAR?$AAE?$AAL?$AAA?$AAT?$AAE?$AAD?$AAE?$AAM?$AAA?$AAI?$AAL?$AA_@|
	DCD	|??_C@_1FE@BLNGKNBK@?$AAC?$AAO?$AAN?$AAT?$AAA?$AAC?$AAT?$AAS?$AAU?$AAM?$AAM?$AAA?$AAR?$AAY?$AAC?$AAA?$AAR?$AAD?$AA_?$AAR?$AAE?$AAL?$AAA?$AAT?$AAE?$AAD?$AAM?$AAE?$AAS?$AAS?$AAA?$AAG@|
	DCD	|??_C@_1FE@GLFOABFA@?$AAC?$AAO?$AAN?$AAT?$AAA?$AAC?$AAT?$AAS?$AAU?$AAM?$AAM?$AAA?$AAR?$AAY?$AAC?$AAA?$AAR?$AAD?$AA_?$AAR?$AAE?$AAL?$AAA?$AAT?$AAE?$AAD?$AAM?$AAE?$AAE?$AAT?$AAI?$AAN@|
	DCD	|??_C@_1EM@OEANIFID@?$AAC?$AAO?$AAN?$AAT?$AAA?$AAC?$AAT?$AAS?$AAU?$AAM?$AAM?$AAA?$AAR?$AAY?$AAC?$AAA?$AAR?$AAD?$AA_?$AAC?$AAA?$AAL?$AAL?$AAH?$AAI?$AAS?$AAT?$AAO?$AAR?$AAY?$AA_?$AAI@|
	DCD	|??_C@_1DI@HMNLNKO@?$AAC?$AAO?$AAN?$AAT?$AAA?$AAC?$AAT?$AAS?$AA_?$AAD?$AAE?$AAV?$AAI?$AAC?$AAE?$AAC?$AAO?$AAN?$AAT?$AAA?$AAC?$AAT?$AA_?$AAO?$AAP?$AAE?$AAN?$AA?$AA@|
	DCD	|??_C@_1DC@JLHHGJOL@?$AAC?$AAO?$AAN?$AAT?$AAA?$AAC?$AAT?$AAS?$AA_?$AAG?$AAA?$AAL?$AAC?$AAO?$AAN?$AAT?$AAA?$AAC?$AAT?$AA_?$AAO?$AAP?$AAE?$AAN?$AA?$AA@|
	DCD	|??_C@_1DC@MOGHPODE@?$AAC?$AAO?$AAN?$AAT?$AAA?$AAC?$AAT?$AAS?$AA_?$AAS?$AAI?$AAM?$AAC?$AAO?$AAN?$AAT?$AAA?$AAC?$AAT?$AA_?$AAO?$AAP?$AAE?$AAN?$AA?$AA@|
	DCD	|??_C@_1DE@DAFHOMKA@?$AAC?$AAO?$AAN?$AAT?$AAA?$AAC?$AAT?$AAS?$AA_?$AAT?$AAE?$AAM?$AAP?$AAC?$AAO?$AAN?$AAT?$AAA?$AAC?$AAT?$AA_?$AAO?$AAP?$AAE?$AAN?$AA?$AA@|
	DCD	|??_C@_1DA@MGODNOCH@?$AAH?$AAO?$AAM?$AAE?$AAS?$AAC?$AAR?$AAE?$AAE?$AAN?$AA_?$AAC?$AAL?$AAO?$AAC?$AAK?$AA_?$AAA?$AAC?$AAT?$AAI?$AAO?$AAN?$AA?$AA@|
	DCD	|??_C@_1CK@FGBNHCK@?$AAH?$AAO?$AAM?$AAE?$AAS?$AAC?$AAR?$AAE?$AAE?$AAN?$AA_?$AAC?$AAL?$AAO?$AAC?$AAK?$AA_?$AAL?$AAS?$AAK?$AA?$AA@|
	DCD	|??_C@_1DG@FKBMKMPH@?$AAH?$AAO?$AAM?$AAE?$AAS?$AAC?$AAR?$AAE?$AAE?$AAN?$AA_?$AAC?$AAA?$AAL?$AAE?$AAN?$AAD?$AAA?$AAR?$AA_?$AAA?$AAC?$AAT?$AAI?$AAO?$AAN?$AA?$AA@|
	DCD	|??_C@_1EA@GKOKDFJF@?$AAH?$AAO?$AAM?$AAE?$AAS?$AAC?$AAR?$AAE?$AAE?$AAN?$AA_?$AAN?$AAO?$AAT?$AAI?$AAF?$AAI?$AAC?$AAA?$AAT?$AAI?$AAO?$AAN?$AAS?$AA_?$AAA?$AAC?$AAT?$AAI?$AAO?$AAN?$AA?$AA@|
	DCD	|??_C@_1DK@MHNIALGN@?$AAH?$AAO?$AAM?$AAE?$AAS?$AAC?$AAR?$AAE?$AAE?$AAN?$AA_?$AAN?$AAO?$AAT?$AAI?$AAF?$AAI?$AAC?$AAA?$AAT?$AAI?$AAO?$AAN?$AAS?$AA_?$AAL?$AAS?$AAK?$AA?$AA@|
	DCD	|??_C@_1DA@CEEPNEOA@?$AAS?$AAE?$AAT?$AAT?$AAI?$AAN?$AAG?$AAS?$AA_?$AAP?$AAR?$AAO?$AAF?$AAI?$AAL?$AAE?$AA_?$AAI?$AAN?$AAV?$AAO?$AAK?$AAE?$AA?$AA@|
	DCD	|??_C@_1DE@LHPOHMMA@?$AAS?$AAE?$AAT?$AAT?$AAI?$AAN?$AAG?$AAS?$AA_?$AAB?$AAL?$AAU?$AAE?$AAT?$AAO?$AAO?$AAT?$AAH?$AA_?$AAI?$AAN?$AAV?$AAO?$AAK?$AAE?$AA?$AA@|
	DCD	|??_C@_1DC@GMKBIMKB@?$AAS?$AAE?$AAT?$AAT?$AAI?$AAN?$AAG?$AAS?$AA_?$AAR?$AAI?$AAN?$AAG?$AAT?$AAO?$AAN?$AAE?$AA_?$AAI?$AAN?$AAV?$AAO?$AAK?$AAE?$AA?$AA@|
	DCD	|??_C@_1DI@KKEFNHBD@?$AAS?$AAE?$AAT?$AAT?$AAI?$AAN?$AAG?$AAS?$AA_?$AAV?$AAI?$AAS?$AAU?$AAA?$AAL?$AAT?$AAH?$AAE?$AAM?$AAE?$AA_?$AAI?$AAN?$AAV?$AAO?$AAK?$AAE?$AA?$AA@|
	DCD	|??_C@_1DG@EMKNHHKK@?$AAS?$AAE?$AAT?$AAT?$AAI?$AAN?$AAG?$AAS?$AA_?$AAF?$AAL?$AAI?$AAG?$AAH?$AAT?$AAM?$AAO?$AAD?$AAE?$AA_?$AAI?$AAN?$AAV?$AAO?$AAK?$AAE?$AA?$AA@|
	DCD	|??_C@_1DI@DKGGLCPO@?$AAS?$AAE?$AAT?$AAT?$AAI?$AAN?$AAG?$AAS?$AA_?$AAC?$AAO?$AAN?$AAN?$AAE?$AAC?$AAT?$AAI?$AAO?$AAN?$AAS?$AA_?$AAI?$AAN?$AAV?$AAO?$AAK?$AAE?$AA?$AA@|
	DCD	|??_C@_1DE@ONKPOHPE@?$AAC?$AAO?$AAN?$AAT?$AAA?$AAC?$AAT?$AAS?$AA_?$AAS?$AAP?$AAE?$AAE?$AAD?$AAD?$AAI?$AAA?$AAL?$AA_?$AAI?$AAN?$AAV?$AAO?$AAK?$AAE?$AA?$AA@|
	DCD	|??_C@_1CM@IAEJCOAN@?$AAC?$AAO?$AAN?$AAT?$AAA?$AAC?$AAT?$AAS?$AA_?$AAT?$AAO?$AAT?$AAA?$AAL?$AA_?$AAS?$AAT?$AAO?$AAR?$AAE?$AAS?$AA?$AA@|
	DCD	|??_C@_1CM@LAGIHKAI@?$AAO?$AAF?$AAF?$AAI?$AAC?$AAE?$AAM?$AAO?$AAB?$AAI?$AAL?$AAE?$AA_?$AAW?$AAO?$AAR?$AAD?$AA_?$AAT?$AAO?$AAC?$AA?$AA@|
	DCD	|??_C@_1DM@MOGCMGEI@?$AAO?$AAF?$AAF?$AAI?$AAC?$AAE?$AAM?$AAO?$AAB?$AAI?$AAL?$AAE?$AA_?$AAP?$AAP?$AAT?$AA_?$AAP?$AAR?$AAI?$AAN?$AAT?$AAE?$AAR?$AA_?$AAT?$AAY?$AAP?$AAE?$AA?$AA@|
	DCD	|??_C@_1DM@HBOOGIFA@?$AAO?$AAF?$AAF?$AAI?$AAC?$AAE?$AAM?$AAO?$AAB?$AAI?$AAL?$AAE?$AA_?$AAP?$AAP?$AAT?$AA_?$AAP?$AAR?$AAI?$AAN?$AAT?$AA_?$AAC?$AAo?$AAp?$AAi?$AAe?$AAs?$AA?$AA@|
	DCD	|??_C@_1EK@CBNEJDMF@?$AAO?$AAF?$AAF?$AAI?$AAC?$AAE?$AAM?$AAO?$AAB?$AAI?$AAL?$AAE?$AA_?$AAP?$AAP?$AAT?$AA_?$AAC?$AAL?$AAI?$AAC?$AAK?$AAE?$AAR?$AA_?$AAO?$AAU?$AAT?$AA_?$AAO?$AAF?$AA_@|
	DCD	|??_C@_1EI@PFPCOCPM@?$AAO?$AAF?$AAF?$AAI?$AAC?$AAE?$AAM?$AAO?$AAB?$AAI?$AAL?$AAE?$AA_?$AAP?$AAP?$AAT?$AA_?$AAF?$AAI?$AAL?$AAE?$AA_?$AAM?$AAA?$AAJ?$AAO?$AAR?$AA_?$AAV?$AAE?$AAR?$AAS@|
	DCD	|??_C@_1EI@MJNNFBBP@?$AAO?$AAF?$AAF?$AAI?$AAC?$AAE?$AAM?$AAO?$AAB?$AAI?$AAL?$AAE?$AA_?$AAP?$AAP?$AAT?$AA_?$AAF?$AAI?$AAL?$AAE?$AA_?$AAM?$AAI?$AAN?$AAO?$AAR?$AA_?$AAV?$AAE?$AAR?$AAS@|
	DCD	|??_C@_1DM@ICHFLAME@?$AAO?$AAF?$AAF?$AAI?$AAC?$AAE?$AAM?$AAO?$AAB?$AAI?$AAL?$AAE?$AA_?$AAS?$AAP?$AAM?$AAC?$AA_?$AAA?$AAD?$AAD?$AAR?$AAE?$AAS?$AAS?$AA_?$AAB?$AAA?$AAR?$AA?$AA@|
	DCD	|??_C@_1DC@DHKGEIFF@?$AAO?$AAF?$AAF?$AAI?$AAC?$AAE?$AAM?$AAO?$AAB?$AAI?$AAL?$AAE?$AA_?$AAS?$AAP?$AAM?$AAC?$AA_?$AAU?$AAP?$AAL?$AAO?$AAA?$AAD?$AA?$AA@|
	DCD	|??_C@_1EO@EJHEBEHP@?$AAO?$AAF?$AAF?$AAI?$AAC?$AAE?$AAM?$AAO?$AAB?$AAI?$AAL?$AAE?$AA_?$AAS?$AAP?$AAM?$AAC?$AA_?$AAS?$AAY?$AAN?$AAC?$AA_?$AAS?$AAE?$AAT?$AAT?$AAI?$AAN?$AAG?$AA_?$AAC@|
	DCD	|??_C@_1EM@NPOGGOIH@?$AAO?$AAF?$AAF?$AAI?$AAC?$AAE?$AAM?$AAO?$AAB?$AAI?$AAL?$AAE?$AA_?$AAS?$AAP?$AAM?$AAC?$AA_?$AAS?$AAY?$AAN?$AAC?$AA_?$AAF?$AAR?$AAE?$AAQ?$AAU?$AAE?$AAN?$AAC?$AAY@|
	DCD	|??_C@_1FE@ICHANHJJ@?$AAO?$AAF?$AAF?$AAI?$AAC?$AAE?$AAM?$AAO?$AAB?$AAI?$AAL?$AAE?$AA_?$AAS?$AAP?$AAM?$AAC?$AA_?$AAS?$AAY?$AAN?$AAC?$AA_?$AAF?$AAR?$AAE?$AAQ?$AAU?$AAE?$AAN?$AAC?$AAY@|
	DCD	|??_C@_1EE@PPAJMMGK@?$AAO?$AAF?$AAF?$AAI?$AAC?$AAE?$AAM?$AAO?$AAB?$AAI?$AAL?$AAE?$AA_?$AAS?$AAP?$AAM?$AAC?$AA_?$AAD?$AAA?$AAT?$AAA?$AA_?$AAS?$AAT?$AAO?$AAR?$AAE?$AA_?$AAS?$AAI?$AAZ@|
	DCD	|??_C@_1EM@PAIOAAHA@?$AAO?$AAF?$AAF?$AAI?$AAC?$AAE?$AAM?$AAO?$AAB?$AAI?$AAL?$AAE?$AA_?$AAS?$AAP?$AAM?$AAC?$AA_?$AAD?$AAA?$AAT?$AAA?$AA_?$AAS?$AAT?$AAO?$AAR?$AAE?$AA_?$AAO?$AAV?$AAE@|
	DCD	|??_C@_1EK@BGNJAMMO@?$AAO?$AAF?$AAF?$AAI?$AAC?$AAE?$AAM?$AAO?$AAB?$AAI?$AAL?$AAE?$AA_?$AAS?$AAP?$AAM?$AAC?$AA_?$AAS?$AAM?$AAA?$AAR?$AAT?$AA_?$AAS?$AAE?$AAA?$AAR?$AAC?$AAH?$AA_?$AAP@|
	DCD	|??_C@_1DG@LMDDDEGJ@?$AAO?$AAF?$AAF?$AAI?$AAC?$AAE?$AAM?$AAO?$AAB?$AAI?$AAL?$AAE?$AA_?$AAS?$AAP?$AAM?$AAC?$AA_?$AAE?$AAD?$AAI?$AAT?$AA_?$AAA?$AAP?$AAI?$AA?$AA@|
	DCD	|??_C@_1EM@BIGJPHGP@?$AAO?$AAF?$AAF?$AAI?$AAC?$AAE?$AAM?$AAO?$AAB?$AAI?$AAL?$AAE?$AA_?$AAO?$AAN?$AAE?$AAN?$AAO?$AAT?$AAE?$AA_?$AAN?$AAO?$AAT?$AAE?$AAB?$AAO?$AAO?$AAK?$AAS?$AA_?$AAS@|
	DCD	|??_C@_1GA@MCCPKJJA@?$AAO?$AAF?$AAF?$AAI?$AAC?$AAE?$AAM?$AAO?$AAB?$AAI?$AAL?$AAE?$AA_?$AAO?$AAN?$AAE?$AAN?$AAO?$AAT?$AAE?$AA_?$AAN?$AAO?$AAT?$AAE?$AAB?$AAO?$AAO?$AAK?$AAS?$AA_?$AAP@|
	DCD	|??_C@_1FK@CDJEIGMD@?$AAO?$AAF?$AAF?$AAI?$AAC?$AAE?$AAM?$AAO?$AAB?$AAI?$AAL?$AAE?$AA_?$AAO?$AAN?$AAE?$AAN?$AAO?$AAT?$AAE?$AA_?$AAC?$AAH?$AAA?$AAN?$AAG?$AAE?$AA_?$AAL?$AAO?$AAC?$AAA@|
	DCD	|??_C@_1FK@DBCBCJCN@?$AAO?$AAF?$AAF?$AAI?$AAC?$AAE?$AAM?$AAO?$AAB?$AAI?$AAL?$AAE?$AA_?$AAO?$AAN?$AAE?$AAN?$AAO?$AAT?$AAE?$AA_?$AAC?$AAH?$AAA?$AAN?$AAG?$AAE?$AA_?$AAL?$AAO?$AAC?$AAA@|
	DCD	|??_C@_1GK@DCGJMIGB@?$AAO?$AAF?$AAF?$AAI?$AAC?$AAE?$AAM?$AAO?$AAB?$AAI?$AAL?$AAE?$AA_?$AAO?$AAN?$AAE?$AAN?$AAO?$AAT?$AAE?$AA_?$AAU?$AAN?$AAF?$AAI?$AAL?$AAE?$AAD?$AA_?$AAD?$AAE?$AAF@|
	DCD	|??_C@_1DE@MGACDDHD@?$AAO?$AAF?$AAF?$AAI?$AAC?$AAE?$AAM?$AAO?$AAB?$AAI?$AAL?$AAE?$AA_?$AAO?$AAN?$AAE?$AAN?$AAO?$AAT?$AAE?$AA_?$AAE?$AAD?$AAI?$AAT?$AA?$AA@|
	DCD	|??_C@_1EE@KKNJBAOE@?$AAO?$AAF?$AAF?$AAI?$AAC?$AAE?$AAM?$AAO?$AAB?$AAI?$AAL?$AAE?$AA_?$AAO?$AAN?$AAE?$AAN?$AAO?$AAT?$AAE?$AA_?$AAP?$AAA?$AAG?$AAE?$AAS?$AA_?$AAO?$AAP?$AAE?$AAN?$AAE@|
	DCD	|??_C@_1DO@JKAPHELK@?$AAO?$AAF?$AAF?$AAI?$AAC?$AAE?$AAM?$AAO?$AAB?$AAI?$AAL?$AAE?$AA_?$AAO?$AAN?$AAE?$AAN?$AAO?$AAT?$AAE?$AA_?$AAW?$AAA?$AAR?$AAN?$AAI?$AAN?$AAG?$AA_?$AA1?$AA?$AA@|
	DCD	|??_C@_1FE@CNFECMII@?$AAO?$AAF?$AAF?$AAI?$AAC?$AAE?$AAM?$AAO?$AAB?$AAI?$AAL?$AAE?$AA_?$AAO?$AAN?$AAE?$AAN?$AAO?$AAT?$AAE?$AA_?$AAS?$AAY?$AAN?$AAC?$AA_?$AAS?$AAE?$AAT?$AAT?$AAI?$AAN@|
	DCD	|??_C@_1DK@ONNMMOPI@?$AAO?$AAF?$AAF?$AAI?$AAC?$AAE?$AAM?$AAO?$AAB?$AAI?$AAL?$AAE?$AA_?$AAP?$AAP?$AAT?$AA_?$AAF?$AAI?$AAL?$AAE?$AA_?$AAI?$AAN?$AAF?$AAO?$AA_?$AA2?$AA?$AA@|
	DCD	|??_C@_1EI@CEIHOIL@?$AAO?$AAF?$AAF?$AAI?$AAC?$AAE?$AAM?$AAO?$AAB?$AAI?$AAL?$AAE?$AA_?$AAP?$AAP?$AAT?$AA_?$AAN?$AAO?$AA_?$AAO?$AAF?$AA_?$AAN?$AAO?$AAT?$AAE?$AAS?$AA_?$AAE?$AAD?$AAI@|
	DCD	|??_C@_1DM@KFKGABBP@?$AAO?$AAF?$AAF?$AAI?$AAC?$AAE?$AAM?$AAO?$AAB?$AAI?$AAL?$AAE?$AA_?$AAW?$AAo?$AAr?$AAd?$AA_?$AAF?$AAI?$AAL?$AAE?$AA_?$AAI?$AAN?$AAF?$AAO?$AA_?$AA2?$AA?$AA@|
	DCD	|??_C@_1DO@OFCANFKG@?$AAO?$AAF?$AAF?$AAI?$AAC?$AAE?$AAM?$AAO?$AAB?$AAI?$AAL?$AAE?$AA_?$AAE?$AAX?$AAC?$AAE?$AAL?$AA_?$AAF?$AAI?$AAL?$AAE?$AA_?$AAI?$AAN?$AAF?$AAO?$AA_?$AA2?$AA?$AA@|
	DCD	|??_C@_1CO@GOHIJBBB@?$AAO?$AAF?$AAF?$AAI?$AAC?$AAE?$AAM?$AAO?$AAB?$AAI?$AAL?$AAE?$AA_?$AAS?$AAP?$AAM?$AAC?$AA_?$AAI?$AAN?$AAF?$AAO?$AA?$AA@|
	DCD	|??_C@_1DE@DLLAKNHO@?$AAO?$AAF?$AAF?$AAI?$AAC?$AAE?$AAM?$AAO?$AAB?$AAI?$AAL?$AAE?$AA_?$AAO?$AAN?$AAE?$AAN?$AAO?$AAT?$AAE?$AA_?$AAI?$AAN?$AAF?$AAO?$AA?$AA@|
	DCD	|??_C@_1BM@NJFDJKBN@?$AAU?$AAD?$AAE?$AAV?$AAI?$AAD?$AA_?$AAS?$AAT?$AAR?$AAI?$AAN?$AAG?$AA?$AA@|
	DCD	|??_C@_1CI@DAGLELJK@?$AAC?$AAA?$AAM?$AA_?$AAL?$AAA?$AAU?$AAN?$AAC?$AAH?$AAE?$AAN?$AAT?$AAR?$AAY?$AA_?$AAK?$AAE?$AAY?$AA?$AA@|
	DCD	|??_C@_1CK@GHONNNB@?$AAC?$AAA?$AAM?$AA_?$AAL?$AAA?$AAU?$AAN?$AAC?$AAH?$AAE?$AAN?$AAT?$AAR?$AAY?$AA_?$AAI?$AAC?$AAO?$AAN?$AA?$AA@|
	DCD	|??_C@_1CI@KCKJJDOF@?$AAC?$AAA?$AAM?$AA_?$AAL?$AAA?$AAU?$AAN?$AAC?$AAH?$AAE?$AAN?$AAT?$AAR?$AAY?$AA_?$AAA?$AAP?$AAI?$AA?$AA@|
	DCD	|??_C@_1CO@OEGMMIII@?$AAC?$AAA?$AAM?$AA_?$AAL?$AAA?$AAU?$AAN?$AAC?$AAH?$AAE?$AAN?$AAT?$AAR?$AAY?$AA_?$AAO?$AAT?$AAH?$AAE?$AAR?$AAS?$AA?$AA@|
	DCD	|??_C@_1CG@CHCPFGNN@?$AAC?$AAA?$AAM?$AA_?$AAC?$AAA?$AAP?$AAT?$AAU?$AAR?$AAE?$AAD?$AA_?$AAM?$AAE?$AAD?$AAI?$AAA?$AA?$AA@|
	DCD	|??_C@_1BO@IJPKOJG@?$AAC?$AAA?$AAM?$AA_?$AAS?$AAE?$AAT?$AAT?$AAI?$AAN?$AAG?$AA_?$AAW?$AAB?$AA?$AA@|
	DCD	|??_C@_1CO@EHKMABFG@?$AAC?$AAA?$AAM?$AA_?$AAS?$AAE?$AAT?$AAT?$AAI?$AAN?$AAG?$AA_?$AAB?$AAR?$AAI?$AAG?$AAH?$AAT?$AAN?$AAE?$AAS?$AAS?$AA?$AA@|
	DCD	|??_C@_1CO@JDKBMKMB@?$AAC?$AAA?$AAM?$AA_?$AAS?$AAE?$AAT?$AAT?$AAI?$AAN?$AAG?$AA_?$AAR?$AAE?$AAS?$AAO?$AAL?$AAU?$AAT?$AAI?$AAO?$AAN?$AA?$AA@|
	DCD	|??_C@_1BM@BJGHAPHK@?$AAC?$AAA?$AAM?$AA_?$AAC?$AAO?$AAN?$AAF?$AAI?$AAG?$AA_?$AAH?$AAW?$AA?$AA@|
	DCD	|??_C@_1CC@BIAHBGEH@?$AAC?$AAA?$AAM?$AA_?$AAN?$AAO?$AAT?$AAI?$AAF?$AAI?$AAC?$AAA?$AAT?$AAI?$AAO?$AAN?$AA?$AA@|
	DCD	|??_C@_1CC@BKMPKPLL@?$AAC?$AAA?$AAM?$AA_?$AAC?$AAO?$AAN?$AAF?$AAI?$AAG?$AA_?$AAM?$AAO?$AAD?$AAE?$AAS?$AA?$AA@|
	DCD	|??_C@_1CG@OMBFALML@?$AAH?$AAO?$AAM?$AAE?$AAM?$AAO?$AAB?$AAI?$AAL?$AAE?$AAO?$AAP?$AAE?$AAR?$AAA?$AAT?$AAO?$AAR?$AA?$AA@|
	DCD	|??_C@_1DA@CMFGEGGE@?$AAR?$AAA?$AAD?$AAI?$AAO?$AAR?$AAE?$AAG?$AAI?$AAS?$AAT?$AAR?$AAA?$AAT?$AAI?$AAO?$AAN?$AAS?$AAT?$AAA?$AAT?$AAU?$AAS?$AA?$AA@|
	DCD	|??_C@_1DG@OGEDDGIM@?$AAM?$AAE?$AAD?$AAI?$AAA?$AA_?$AAA?$AAL?$AAL?$AA_?$AAS?$AAO?$AAN?$AAG?$AAS?$AA_?$AAV?$AAI?$AAE?$AAW?$AA_?$AAC?$AAO?$AAU?$AAN?$AAT?$AA?$AA@|
	DCD	|??_C@_1DI@PBAOLMGH@?$AAM?$AAE?$AAD?$AAI?$AAA?$AA_?$AAA?$AAL?$AAL?$AA_?$AAV?$AAI?$AAD?$AAE?$AAO?$AAS?$AA_?$AAV?$AAI?$AAE?$AAW?$AA_?$AAC?$AAO?$AAU?$AAN?$AAT?$AA?$AA@|
	DCD	|??_C@_1DI@HKMLPJEM@?$AAM?$AAE?$AAD?$AAI?$AAA?$AA_?$AAA?$AAL?$AAL?$AA_?$AAP?$AAH?$AAO?$AAT?$AAO?$AAS?$AA_?$AAV?$AAI?$AAE?$AAW?$AA_?$AAC?$AAO?$AAU?$AAN?$AAT?$AA?$AA@|
	DCD	|??_C@_1DE@GGNACKNP@?$AAM?$AAE?$AAD?$AAI?$AAA?$AA_?$AAC?$AAR?$AAE?$AAA?$AAT?$AAE?$AA_?$AAP?$AAL?$AAA?$AAY?$AAL?$AAI?$AAS?$AAT?$AA_?$AAH?$AAI?$AAT?$AA?$AA@|
	DCD	|??_C@_1DA@BKKMLDAD@?$AAN?$AAo?$AAw?$AAP?$AAl?$AAa?$AAy?$AAi?$AAn?$AAg?$AAP?$AAl?$AAa?$AAy?$AAA?$AAc?$AAt?$AAi?$AAo?$AAn?$AAH?$AAi?$AAt?$AA?$AA@|
	DCD	|??_C@_1CA@OKOAKLJD@?$AAP?$AAi?$AAc?$AAt?$AAu?$AAr?$AAe?$AAT?$AAa?$AAk?$AAe?$AAn?$AAH?$AAi?$AAt?$AA?$AA@|
	DCD	|??_C@_1BO@LALBALDL@?$AAP?$AAh?$AAo?$AAt?$AAo?$AAT?$AAa?$AAg?$AAg?$AAe?$AAd?$AAH?$AAi?$AAt?$AA?$AA@|
	DCD	|??_C@_1CE@NOMFKAJL@?$AAS?$AAl?$AAi?$AAd?$AAe?$AAS?$AAh?$AAo?$AAw?$AAS?$AAt?$AAa?$AAr?$AAt?$AAH?$AAi?$AAt?$AA?$AA@|
	DCD	|??_C@_1CO@KNAFJGFA@?$AAM?$AAE?$AAD?$AAI?$AAA?$AA_?$AAP?$AAH?$AAO?$AAT?$AAO?$AA_?$AAE?$AAD?$AAI?$AAT?$AAE?$AAD?$AA_?$AAH?$AAI?$AAT?$AA?$AA@|
	DCD	|??_C@_1BK@NDPEPJPJ@?$AAP?$AAE?$AAR?$AAF?$AA_?$AAE?$AAL?$AAA?$AAP?$AAS?$AAE?$AAD?$AA?$AA@|
	DCD	|??_C@_1BM@NGGHCJID@?$AAP?$AAE?$AAR?$AAF?$AA_?$AAA?$AAB?$AAS?$AAO?$AAL?$AAU?$AAT?$AAE?$AA?$AA@|
	DCD	|??_C@_1CE@FNLICONP@?$AAS?$AAT?$AAO?$AAR?$AAE?$AAP?$AAA?$AAR?$AAT?$AAN?$AAE?$AAR?$AAS?$AAH?$AAI?$AAP?$AAS?$AA?$AA@|
	DCD	|??_C@_1CG@PHGNPNON@?$AAC?$AAh?$AAa?$AAn?$AAg?$AAe?$AAC?$AAa?$AAt?$AAa?$AAl?$AAo?$AAg?$AAI?$AAt?$AAe?$AAm?$AAs?$AA?$AA@|
	DCD	|??_C@_1CG@KHOCDHDN@?$AAC?$AAh?$AAa?$AAn?$AAg?$AAe?$AAB?$AAu?$AAi?$AAl?$AAd?$AAO?$AAp?$AAt?$AAi?$AAo?$AAn?$AAs?$AA?$AA@|
	DCD	|??_C@_1DA@CKAOKPKI@?$AAS?$AAe?$AAt?$AAE?$AAn?$AAv?$AAi?$AAr?$AAo?$AAn?$AAm?$AAe?$AAn?$AAt?$AAV?$AAa?$AAr?$AAi?$AAa?$AAb?$AAl?$AAe?$AAs?$AA?$AA@|
	DCD	|??_C@_1BE@DBADFJLG@?$AAD?$AAe?$AAs?$AAk?$AAt?$AAo?$AAp?$AAO?$AAS?$AA?$AA@|
	DCD	|??_C@_1CI@PMEEEBL@?$AAV?$AAi?$AAs?$AAu?$AAa?$AAl?$AAS?$AAt?$AAu?$AAd?$AAi?$AAo?$AAV?$AAe?$AAr?$AAs?$AAi?$AAo?$AAn?$AA?$AA@|
	DCD	|??_C@_1BM@LGGIBAL@?$AAB?$AAu?$AAi?$AAl?$AAd?$AAC?$AAo?$AAm?$AAm?$AAa?$AAn?$AAd?$AAs?$AA?$AA@|
	DCD	|??_C@_1CO@NLLNNFIH@?$AAP?$AAl?$AAa?$AAt?$AAf?$AAo?$AAr?$AAm?$AAB?$AAu?$AAi?$AAl?$AAd?$AAe?$AAr?$AAV?$AAe?$AAr?$AAs?$AAi?$AAo?$AAn?$AA?$AA@|
	DCD	|??_C@_1BM@IEBMBJME@?$AAD?$AAe?$AAs?$AAk?$AAt?$AAo?$AAp?$AAL?$AAo?$AAc?$AAa?$AAl?$AAe?$AA?$AA@|
	DCD	|??_C@_1BO@IDGLDPGL@?$AAP?$AAB?$AAM?$AAe?$AAn?$AAu?$AAC?$AAo?$AAm?$AAm?$AAa?$AAn?$AAd?$AAs?$AA?$AA@|
	DCD	|??_C@_1CI@EEMMLOCK@?$AAA?$AAI?$AAR?$AAS?$AAY?$AAN?$AAC?$AA_?$AAR?$AAE?$AAL?$AAI?$AAA?$AAB?$AAI?$AAL?$AAI?$AAT?$AAY?$AA?$AA@|
	DCD	|??_C@_1CI@EBHKCHKN@?$AAA?$AAI?$AAR?$AAS?$AAY?$AAN?$AAC?$AA_?$AAE?$AAR?$AAR?$AAO?$AAR?$AA_?$AAS?$AAT?$AAA?$AAT?$AAS?$AA?$AA@|
	DCD	|??_C@_1CM@IBLJOFMO@?$AAS?$AAY?$AAN?$AAC?$AA_?$AAP?$AAA?$AAR?$AAT?$AAN?$AAE?$AAR?$AAS?$AAH?$AAI?$AAP?$AA_?$AAI?$AAN?$AAF?$AAO?$AA?$AA@|
	DCD	|??_C@_1CK@EBFOEMPO@?$AAR?$AAE?$AAG?$AA_?$AAC?$AAA?$AAP?$AAT?$AAU?$AAR?$AAE?$AA_?$AAD?$AAI?$AAS?$AAC?$AAR?$AAE?$AAT?$AAE?$AA?$AA@|
	DCD	|??_C@_1CO@LOBHAPBA@?$AAR?$AAE?$AAG?$AA_?$AAC?$AAA?$AAP?$AAT?$AAU?$AAR?$AAE?$AA_?$AAC?$AAO?$AAN?$AAT?$AAI?$AAN?$AAU?$AAO?$AAU?$AAS?$AA?$AA@|
	DCD	|??_C@_1DM@LCLBAJCA@?$AAO?$AAF?$AAF?$AAI?$AAC?$AAE?$AAM?$AAO?$AAB?$AAI?$AAL?$AAE?$AA_?$AAO?$AAN?$AAE?$AAN?$AAO?$AAT?$AAE?$AA_?$AAS?$AAE?$AAC?$AAT?$AAI?$AAO?$AAN?$AAS?$AA?$AA@|
	DCD	|??_C@_1EG@LGHNPBDH@?$AAO?$AAF?$AAF?$AAI?$AAC?$AAE?$AAM?$AAO?$AAB?$AAI?$AAL?$AAE?$AA_?$AAO?$AAN?$AAE?$AAN?$AAO?$AAT?$AAE?$AA_?$AAO?$AAp?$AAe?$AAn?$AA_?$AAS?$AAe?$AAc?$AAt?$AAi?$AAo@|
	DCD	|??_C@_1EI@JHAFHAME@?$AAO?$AAF?$AAF?$AAI?$AAC?$AAE?$AAM?$AAO?$AAB?$AAI?$AAL?$AAE?$AA_?$AAO?$AAN?$AAE?$AAN?$AAO?$AAT?$AAE?$AA_?$AAS?$AAY?$AAN?$AAC?$AA_?$AAI?$AAN?$AAI?$AAT?$AAI?$AAA@|
	DCD	|??_C@_1EG@MKDCDAHF@?$AAO?$AAF?$AAF?$AAI?$AAC?$AAE?$AAM?$AAO?$AAB?$AAI?$AAL?$AAE?$AA_?$AAO?$AAN?$AAE?$AAN?$AAO?$AAT?$AAE?$AA_?$AAS?$AAY?$AAN?$AAC?$AA_?$AAC?$AAO?$AAN?$AAF?$AAL?$AAI@|
	DCD	|??_C@_1FE@NIIMKANJ@?$AAO?$AAF?$AAF?$AAI?$AAC?$AAE?$AAM?$AAO?$AAB?$AAI?$AAL?$AAE?$AA_?$AAO?$AAN?$AAE?$AAN?$AAO?$AAT?$AAE?$AA_?$AAS?$AAY?$AAN?$AAC?$AA_?$AAP?$AAR?$AAO?$AAG?$AAR?$AAE@|
	DCD	|??_C@_1EM@CIMFEJCM@?$AAO?$AAF?$AAF?$AAI?$AAC?$AAE?$AAM?$AAO?$AAB?$AAI?$AAL?$AAE?$AA_?$AAO?$AAN?$AAE?$AAN?$AAO?$AAT?$AAE?$AA_?$AAU?$AAN?$AAE?$AAX?$AAP?$AAE?$AAC?$AAT?$AAE?$AAD?$AA_@|
	DCD	|??_C@_1EC@PAFHMMIO@?$AAO?$AAF?$AAF?$AAI?$AAC?$AAE?$AAM?$AAO?$AAB?$AAI?$AAL?$AAE?$AA_?$AAO?$AAN?$AAE?$AAN?$AAO?$AAT?$AAE?$AA_?$AAK?$AAN?$AAO?$AAW?$AAN?$AA_?$AAE?$AAR?$AAR?$AAO?$AAR@|
	DCD	|??_C@_1CO@CICFINHC@?$AAW?$AAI?$AAN?$AAI?$AAN?$AAE?$AAT?$AA_?$AAR?$AAE?$AAQ?$AAU?$AAE?$AAS?$AAT?$AA_?$AAR?$AAE?$AAS?$AAU?$AAL?$AAT?$AA?$AA@|
	DCD	|??_C@_1CG@NDHMHBAM@?$AAW?$AAI?$AAN?$AAI?$AAN?$AAE?$AAT?$AA_?$AAI?$AAN?$AAD?$AAE?$AAX?$AA_?$AAS?$AAI?$AAZ?$AAE?$AA?$AA@|
	DCD	|??_C@_1EG@MFIOBMCP@?$AAO?$AAF?$AAF?$AAI?$AAC?$AAE?$AAM?$AAO?$AAB?$AAI?$AAL?$AAE?$AA_?$AAS?$AAP?$AAM?$AAC?$AA_?$AAR?$AAE?$AAC?$AAE?$AAN?$AAT?$AA_?$AAD?$AAO?$AAC?$AAU?$AAM?$AAE?$AAN@|
	DCD	|??_C@_1CM@HAHMAEED@?$AAC?$AAE?$AAL?$AAL?$AAC?$AAO?$AAR?$AAE?$AA_?$AAR?$AAI?$AAL?$AA_?$AAR?$AAE?$AAS?$AAP?$AAO?$AAN?$AAS?$AAE?$AA?$AA@|
	DCD	|??_C@_1BG@POJLGNJC@?$AAR?$AAT?$AAF?$AAX?$AA_?$AAT?$AAO?$AAO?$AAL?$AAS?$AA?$AA@|
	DCD	|??_C@_1CC@JBPBOIAB@?$AAN?$AAE?$AAT?$AAR?$AAE?$AAL?$AA_?$AAA?$AAP?$AAI?$AA_?$AAC?$AAA?$AAL?$AAL?$AAS?$AA?$AA@|
	DCD	|??_C@_1DE@MFENAHGF@?$AAN?$AAE?$AAT?$AAR?$AAE?$AAL?$AA_?$AAA?$AAP?$AAI?$AA_?$AAC?$AAA?$AAL?$AAL?$AAS?$AA_?$AAP?$AAO?$AAS?$AAI?$AAT?$AAI?$AAV?$AAE?$AA?$AA@|
	DCD	|??_C@_1CO@BCNFOHDJ@?$AAN?$AAE?$AAT?$AAR?$AAE?$AAL?$AA_?$AAM?$AAO?$AAN?$AAI?$AAT?$AAO?$AAR?$AA_?$AAD?$AAE?$AAT?$AAE?$AAC?$AAT?$AAS?$AA?$AA@|
	DCD	|??_C@_1EA@PLIPNDKM@?$AAN?$AAE?$AAT?$AAR?$AAE?$AAL?$AA_?$AAM?$AAO?$AAN?$AAI?$AAT?$AAO?$AAR?$AA_?$AAD?$AAE?$AAT?$AAE?$AAC?$AAT?$AAS?$AA_?$AAP?$AAO?$AAS?$AAI?$AAT?$AAI?$AAV?$AAE?$AA?$AA@|
	DCD	|??_C@_1CC@DGNCFMKF@?$AAN?$AAE?$AAT?$AAR?$AAE?$AAL?$AA_?$AAW?$AAW?$AAA?$AAN?$AA_?$AAF?$AAI?$AAX?$AA1?$AA?$AA@|
	DCD	|??_C@_1CC@CEGHPDEL@?$AAN?$AAE?$AAT?$AAR?$AAE?$AAL?$AA_?$AAW?$AAW?$AAA?$AAN?$AA_?$AAF?$AAI?$AAX?$AA2?$AA?$AA@|
	DCD	|??_C@_1CC@JMNLJECO@?$AAN?$AAE?$AAT?$AAR?$AAE?$AAL?$AA_?$AAW?$AAW?$AAA?$AAN?$AA_?$AAF?$AAI?$AAX?$AA3?$AA?$AA@|
	DCD	|??_C@_1CE@DKEGOOOA@?$AAN?$AAE?$AAT?$AAR?$AAE?$AAL?$AA_?$AAW?$AAW?$AAA?$AAN?$AA_?$AAN?$AAO?$AAF?$AAI?$AAX?$AA?$AA@|
	DCD	|??_C@_1CK@OGDMBEDP@?$AAN?$AAE?$AAT?$AAR?$AAE?$AAL?$AA_?$AAD?$AAI?$AAA?$AAG?$AAN?$AAO?$AAS?$AAE?$AA_?$AAT?$AAI?$AAM?$AAE?$AA?$AA@|
	DCD	|??_C@_1DA@PBNNFLLP@?$AAR?$AAE?$AAG?$AA_?$AAC?$AAA?$AAP?$AAT?$AAU?$AAR?$AAE?$AA_?$AAP?$AAH?$AAO?$AAN?$AAE?$AAS?$AAT?$AAA?$AAT?$AAU?$AAS?$AA?$AA@|
	DCD	|??_C@_1BM@FOGBBPIF@?$AAS?$AAT?$AAO?$AAR?$AAE?$AAP?$AAI?$AAM?$AAI?$AAT?$AAE?$AAM?$AAS?$AA?$AA@|
	DCD	|??_C@_1BK@GIAPKPEK@?$AAM?$AAE?$AAN?$AAU?$AAS?$AAE?$AAQ?$AAU?$AAE?$AAN?$AAC?$AAE?$AA?$AA@|
	DCD	|??_C@_1DC@JCIIFLAA@?$AAW?$AAL?$AAA?$AAN?$AA_?$AAA?$AAS?$AAS?$AAO?$AAC?$AAI?$AAA?$AAT?$AAI?$AAO?$AAN?$AA_?$AAS?$AAU?$AAC?$AAC?$AAE?$AAS?$AAS?$AA?$AA@|
	DCD	|??_C@_1DC@KIEBFCNO@?$AAW?$AAL?$AAA?$AAN?$AA_?$AAA?$AAS?$AAS?$AAO?$AAC?$AAI?$AAA?$AAT?$AAI?$AAO?$AAN?$AA_?$AAF?$AAA?$AAI?$AAL?$AAU?$AAR?$AAE?$AA?$AA@|
	DCD	|??_C@_1DA@FDBEBILF@?$AAW?$AAL?$AAA?$AAN?$AA_?$AAC?$AAO?$AAN?$AAN?$AAE?$AAC?$AAT?$AAI?$AAO?$AAN?$AA_?$AAF?$AAA?$AAI?$AAL?$AAU?$AAR?$AAE?$AA?$AA@|
	DCD	|??_C@_1DA@GJNNBBGL@?$AAW?$AAL?$AAA?$AAN?$AA_?$AAC?$AAO?$AAN?$AAN?$AAE?$AAC?$AAT?$AAI?$AAO?$AAN?$AA_?$AAS?$AAU?$AAC?$AAC?$AAE?$AAS?$AAS?$AA?$AA@|
	DCD	|??_C@_1CG@FJCMHLHJ@?$AAC?$AAF?$AAM?$AA_?$AAR?$AAE?$AAQ?$AAU?$AAE?$AAS?$AAT?$AA_?$AAR?$AAE?$AAC?$AAO?$AAR?$AAD?$AA?$AA@|
	DCD	|??_C@_11LOCGONAA@?$AA?$AA@|

  00000			 AREA	 |.rdata|, DATA, READONLY
|??_C@_1CG@FJCMHLHJ@?$AAC?$AAF?$AAM?$AA_?$AAR?$AAE?$AAQ?$AAU?$AAE?$AAS?$AAT?$AA_?$AAR?$AAE?$AAC?$AAO?$AAR?$AAD?$AA?$AA@| DCB "C"
	DCB	0x0, "F", 0x0, "M", 0x0, "_", 0x0, "R", 0x0, "E", 0x0, "Q"
	DCB	0x0, "U", 0x0, "E", 0x0, "S", 0x0, "T", 0x0, "_", 0x0, "R"
	DCB	0x0, "E", 0x0, "C", 0x0, "O", 0x0, "R", 0x0, "D", 0x0, 0x0
	DCB	0x0					; `string'

  00000			 AREA	 |.rdata|, DATA, READONLY
|??_C@_1DA@GJNNBBGL@?$AAW?$AAL?$AAA?$AAN?$AA_?$AAC?$AAO?$AAN?$AAN?$AAE?$AAC?$AAT?$AAI?$AAO?$AAN?$AA_?$AAS?$AAU?$AAC?$AAC?$AAE?$AAS?$AAS?$AA?$AA@| DCB "W"
	DCB	0x0, "L", 0x0, "A", 0x0, "N", 0x0, "_", 0x0, "C", 0x0, "O"
	DCB	0x0, "N", 0x0, "N", 0x0, "E", 0x0, "C", 0x0, "T", 0x0, "I"
	DCB	0x0, "O", 0x0, "N", 0x0, "_", 0x0, "S", 0x0, "U", 0x0, "C"
	DCB	0x0, "C", 0x0, "E", 0x0, "S", 0x0, "S", 0x0, 0x0, 0x0 ; `string'

  00000			 AREA	 |.rdata|, DATA, READONLY
|??_C@_1DA@FDBEBILF@?$AAW?$AAL?$AAA?$AAN?$AA_?$AAC?$AAO?$AAN?$AAN?$AAE?$AAC?$AAT?$AAI?$AAO?$AAN?$AA_?$AAF?$AAA?$AAI?$AAL?$AAU?$AAR?$AAE?$AA?$AA@| DCB "W"
	DCB	0x0, "L", 0x0, "A", 0x0, "N", 0x0, "_", 0x0, "C", 0x0, "O"
	DCB	0x0, "N", 0x0, "N", 0x0, "E", 0x0, "C", 0x0, "T", 0x0, "I"
	DCB	0x0, "O", 0x0, "N", 0x0, "_", 0x0, "F", 0x0, "A", 0x0, "I"
	DCB	0x0, "L", 0x0, "U", 0x0, "R", 0x0, "E", 0x0, 0x0, 0x0 ; `string'

  00000			 AREA	 |.rdata|, DATA, READONLY
|??_C@_1DC@KIEBFCNO@?$AAW?$AAL?$AAA?$AAN?$AA_?$AAA?$AAS?$AAS?$AAO?$AAC?$AAI?$AAA?$AAT?$AAI?$AAO?$AAN?$AA_?$AAF?$AAA?$AAI?$AAL?$AAU?$AAR?$AAE?$AA?$AA@| DCB "W"
	DCB	0x0, "L", 0x0, "A", 0x0, "N", 0x0, "_", 0x0, "A", 0x0, "S"
	DCB	0x0, "S", 0x0, "O", 0x0, "C", 0x0, "I", 0x0, "A", 0x0, "T"
	DCB	0x0, "I", 0x0, "O", 0x0, "N", 0x0, "_", 0x0, "F", 0x0, "A"
	DCB	0x0, "I", 0x0, "L", 0x0, "U", 0x0, "R", 0x0, "E", 0x0, 0x0
	DCB	0x0					; `string'

  00000			 AREA	 |.rdata|, DATA, READONLY
|??_C@_1DC@JCIIFLAA@?$AAW?$AAL?$AAA?$AAN?$AA_?$AAA?$AAS?$AAS?$AAO?$AAC?$AAI?$AAA?$AAT?$AAI?$AAO?$AAN?$AA_?$AAS?$AAU?$AAC?$AAC?$AAE?$AAS?$AAS?$AA?$AA@| DCB "W"
	DCB	0x0, "L", 0x0, "A", 0x0, "N", 0x0, "_", 0x0, "A", 0x0, "S"
	DCB	0x0, "S", 0x0, "O", 0x0, "C", 0x0, "I", 0x0, "A", 0x0, "T"
	DCB	0x0, "I", 0x0, "O", 0x0, "N", 0x0, "_", 0x0, "S", 0x0, "U"
	DCB	0x0, "C", 0x0, "C", 0x0, "E", 0x0, "S", 0x0, "S", 0x0, 0x0
	DCB	0x0					; `string'

  00000			 AREA	 |.rdata|, DATA, READONLY
|??_C@_1BK@GIAPKPEK@?$AAM?$AAE?$AAN?$AAU?$AAS?$AAE?$AAQ?$AAU?$AAE?$AAN?$AAC?$AAE?$AA?$AA@| DCB "M"
	DCB	0x0, "E", 0x0, "N", 0x0, "U", 0x0, "S", 0x0, "E", 0x0, "Q"
	DCB	0x0, "U", 0x0, "E", 0x0, "N", 0x0, "C", 0x0, "E", 0x0, 0x0
	DCB	0x0					; `string'

  00000			 AREA	 |.rdata|, DATA, READONLY
|??_C@_1BM@FOGBBPIF@?$AAS?$AAT?$AAO?$AAR?$AAE?$AAP?$AAI?$AAM?$AAI?$AAT?$AAE?$AAM?$AAS?$AA?$AA@| DCB "S"
	DCB	0x0, "T", 0x0, "O", 0x0, "R", 0x0, "E", 0x0, "P", 0x0, "I"
	DCB	0x0, "M", 0x0, "I", 0x0, "T", 0x0, "E", 0x0, "M", 0x0, "S"
	DCB	0x0, 0x0, 0x0				; `string'

  00000			 AREA	 |.rdata|, DATA, READONLY
|??_C@_1DA@PBNNFLLP@?$AAR?$AAE?$AAG?$AA_?$AAC?$AAA?$AAP?$AAT?$AAU?$AAR?$AAE?$AA_?$AAP?$AAH?$AAO?$AAN?$AAE?$AAS?$AAT?$AAA?$AAT?$AAU?$AAS?$AA?$AA@| DCB "R"
	DCB	0x0, "E", 0x0, "G", 0x0, "_", 0x0, "C", 0x0, "A", 0x0, "P"
	DCB	0x0, "T", 0x0, "U", 0x0, "R", 0x0, "E", 0x0, "_", 0x0, "P"
	DCB	0x0, "H", 0x0, "O", 0x0, "N", 0x0, "E", 0x0, "S", 0x0, "T"
	DCB	0x0, "A", 0x0, "T", 0x0, "U", 0x0, "S", 0x0, 0x0, 0x0 ; `string'

  00000			 AREA	 |.rdata|, DATA, READONLY
|??_C@_1CK@OGDMBEDP@?$AAN?$AAE?$AAT?$AAR?$AAE?$AAL?$AA_?$AAD?$AAI?$AAA?$AAG?$AAN?$AAO?$AAS?$AAE?$AA_?$AAT?$AAI?$AAM?$AAE?$AA?$AA@| DCB "N"
	DCB	0x0, "E", 0x0, "T", 0x0, "R", 0x0, "E", 0x0, "L", 0x0, "_"
	DCB	0x0, "D", 0x0, "I", 0x0, "A", 0x0, "G", 0x0, "N", 0x0, "O"
	DCB	0x0, "S", 0x0, "E", 0x0, "_", 0x0, "T", 0x0, "I", 0x0, "M"
	DCB	0x0, "E", 0x0, 0x0, 0x0			; `string'

  00000			 AREA	 |.rdata|, DATA, READONLY
|??_C@_1CE@DKEGOOOA@?$AAN?$AAE?$AAT?$AAR?$AAE?$AAL?$AA_?$AAW?$AAW?$AAA?$AAN?$AA_?$AAN?$AAO?$AAF?$AAI?$AAX?$AA?$AA@| DCB "N"
	DCB	0x0, "E", 0x0, "T", 0x0, "R", 0x0, "E", 0x0, "L", 0x0, "_"
	DCB	0x0, "W", 0x0, "W", 0x0, "A", 0x0, "N", 0x0, "_", 0x0, "N"
	DCB	0x0, "O", 0x0, "F", 0x0, "I", 0x0, "X", 0x0, 0x0, 0x0 ; `string'

  00000			 AREA	 |.rdata|, DATA, READONLY
|??_C@_1CC@JMNLJECO@?$AAN?$AAE?$AAT?$AAR?$AAE?$AAL?$AA_?$AAW?$AAW?$AAA?$AAN?$AA_?$AAF?$AAI?$AAX?$AA3?$AA?$AA@| DCB "N"
	DCB	0x0, "E", 0x0, "T", 0x0, "R", 0x0, "E", 0x0, "L", 0x0, "_"
	DCB	0x0, "W", 0x0, "W", 0x0, "A", 0x0, "N", 0x0, "_", 0x0, "F"
	DCB	0x0, "I", 0x0, "X", 0x0, "3", 0x0, 0x0, 0x0 ; `string'

  00000			 AREA	 |.rdata|, DATA, READONLY
|??_C@_1CC@CEGHPDEL@?$AAN?$AAE?$AAT?$AAR?$AAE?$AAL?$AA_?$AAW?$AAW?$AAA?$AAN?$AA_?$AAF?$AAI?$AAX?$AA2?$AA?$AA@| DCB "N"
	DCB	0x0, "E", 0x0, "T", 0x0, "R", 0x0, "E", 0x0, "L", 0x0, "_"
	DCB	0x0, "W", 0x0, "W", 0x0, "A", 0x0, "N", 0x0, "_", 0x0, "F"
	DCB	0x0, "I", 0x0, "X", 0x0, "2", 0x0, 0x0, 0x0 ; `string'

  00000			 AREA	 |.rdata|, DATA, READONLY
|??_C@_1CC@DGNCFMKF@?$AAN?$AAE?$AAT?$AAR?$AAE?$AAL?$AA_?$AAW?$AAW?$AAA?$AAN?$AA_?$AAF?$AAI?$AAX?$AA1?$AA?$AA@| DCB "N"
	DCB	0x0, "E", 0x0, "T", 0x0, "R", 0x0, "E", 0x0, "L", 0x0, "_"
	DCB	0x0, "W", 0x0, "W", 0x0, "A", 0x0, "N", 0x0, "_", 0x0, "F"
	DCB	0x0, "I", 0x0, "X", 0x0, "1", 0x0, 0x0, 0x0 ; `string'

  00000			 AREA	 |.rdata|, DATA, READONLY
|??_C@_1EA@PLIPNDKM@?$AAN?$AAE?$AAT?$AAR?$AAE?$AAL?$AA_?$AAM?$AAO?$AAN?$AAI?$AAT?$AAO?$AAR?$AA_?$AAD?$AAE?$AAT?$AAE?$AAC?$AAT?$AAS?$AA_?$AAP?$AAO?$AAS?$AAI?$AAT?$AAI?$AAV?$AAE?$AA?$AA@| DCB "N"
	DCB	0x0, "E", 0x0, "T", 0x0, "R", 0x0, "E", 0x0, "L", 0x0, "_"
	DCB	0x0, "M", 0x0, "O", 0x0, "N", 0x0, "I", 0x0, "T", 0x0, "O"
	DCB	0x0, "R", 0x0, "_", 0x0, "D", 0x0, "E", 0x0, "T", 0x0, "E"
	DCB	0x0, "C", 0x0, "T", 0x0, "S", 0x0, "_", 0x0, "P", 0x0, "O"
	DCB	0x0, "S", 0x0, "I", 0x0, "T", 0x0, "I", 0x0, "V", 0x0, "E"
	DCB	0x0, 0x0, 0x0				; `string'

  00000			 AREA	 |.rdata|, DATA, READONLY
|??_C@_1CO@BCNFOHDJ@?$AAN?$AAE?$AAT?$AAR?$AAE?$AAL?$AA_?$AAM?$AAO?$AAN?$AAI?$AAT?$AAO?$AAR?$AA_?$AAD?$AAE?$AAT?$AAE?$AAC?$AAT?$AAS?$AA?$AA@| DCB "N"
	DCB	0x0, "E", 0x0, "T", 0x0, "R", 0x0, "E", 0x0, "L", 0x0, "_"
	DCB	0x0, "M", 0x0, "O", 0x0, "N", 0x0, "I", 0x0, "T", 0x0, "O"
	DCB	0x0, "R", 0x0, "_", 0x0, "D", 0x0, "E", 0x0, "T", 0x0, "E"
	DCB	0x0, "C", 0x0, "T", 0x0, "S", 0x0, 0x0, 0x0 ; `string'

  00000			 AREA	 |.rdata|, DATA, READONLY
|??_C@_1DE@MFENAHGF@?$AAN?$AAE?$AAT?$AAR?$AAE?$AAL?$AA_?$AAA?$AAP?$AAI?$AA_?$AAC?$AAA?$AAL?$AAL?$AAS?$AA_?$AAP?$AAO?$AAS?$AAI?$AAT?$AAI?$AAV?$AAE?$AA?$AA@| DCB "N"
	DCB	0x0, "E", 0x0, "T", 0x0, "R", 0x0, "E", 0x0, "L", 0x0, "_"
	DCB	0x0, "A", 0x0, "P", 0x0, "I", 0x0, "_", 0x0, "C", 0x0, "A"
	DCB	0x0, "L", 0x0, "L", 0x0, "S", 0x0, "_", 0x0, "P", 0x0, "O"
	DCB	0x0, "S", 0x0, "I", 0x0, "T", 0x0, "I", 0x0, "V", 0x0, "E"
	DCB	0x0, 0x0, 0x0				; `string'

  00000			 AREA	 |.rdata|, DATA, READONLY
|??_C@_1CC@JBPBOIAB@?$AAN?$AAE?$AAT?$AAR?$AAE?$AAL?$AA_?$AAA?$AAP?$AAI?$AA_?$AAC?$AAA?$AAL?$AAL?$AAS?$AA?$AA@| DCB "N"
	DCB	0x0, "E", 0x0, "T", 0x0, "R", 0x0, "E", 0x0, "L", 0x0, "_"
	DCB	0x0, "A", 0x0, "P", 0x0, "I", 0x0, "_", 0x0, "C", 0x0, "A"
	DCB	0x0, "L", 0x0, "L", 0x0, "S", 0x0, 0x0, 0x0 ; `string'

  00000			 AREA	 |.rdata|, DATA, READONLY
|??_C@_1BG@POJLGNJC@?$AAR?$AAT?$AAF?$AAX?$AA_?$AAT?$AAO?$AAO?$AAL?$AAS?$AA?$AA@| DCB "R"
	DCB	0x0, "T", 0x0, "F", 0x0, "X", 0x0, "_", 0x0, "T", 0x0, "O"
	DCB	0x0, "O", 0x0, "L", 0x0, "S", 0x0, 0x0, 0x0 ; `string'

  00000			 AREA	 |.rdata|, DATA, READONLY
|??_C@_1CM@HAHMAEED@?$AAC?$AAE?$AAL?$AAL?$AAC?$AAO?$AAR?$AAE?$AA_?$AAR?$AAI?$AAL?$AA_?$AAR?$AAE?$AAS?$AAP?$AAO?$AAN?$AAS?$AAE?$AA?$AA@| DCB "C"
	DCB	0x0, "E", 0x0, "L", 0x0, "L", 0x0, "C", 0x0, "O", 0x0, "R"
	DCB	0x0, "E", 0x0, "_", 0x0, "R", 0x0, "I", 0x0, "L", 0x0, "_"
	DCB	0x0, "R", 0x0, "E", 0x0, "S", 0x0, "P", 0x0, "O", 0x0, "N"
	DCB	0x0, "S", 0x0, "E", 0x0, 0x0, 0x0	; `string'

  00000			 AREA	 |.rdata|, DATA, READONLY
|??_C@_1EG@MFIOBMCP@?$AAO?$AAF?$AAF?$AAI?$AAC?$AAE?$AAM?$AAO?$AAB?$AAI?$AAL?$AAE?$AA_?$AAS?$AAP?$AAM?$AAC?$AA_?$AAR?$AAE?$AAC?$AAE?$AAN?$AAT?$AA_?$AAD?$AAO?$AAC?$AAU?$AAM?$AAE?$AAN@| DCB "O"
	DCB	0x0, "F", 0x0, "F", 0x0, "I", 0x0, "C", 0x0, "E", 0x0, "M"
	DCB	0x0, "O", 0x0, "B", 0x0, "I", 0x0, "L", 0x0, "E", 0x0, "_"
	DCB	0x0, "S", 0x0, "P", 0x0, "M", 0x0, "C", 0x0, "_", 0x0, "R"
	DCB	0x0, "E", 0x0, "C", 0x0, "E", 0x0, "N", 0x0, "T", 0x0, "_"
	DCB	0x0, "D", 0x0, "O", 0x0, "C", 0x0, "U", 0x0, "M", 0x0, "E"
	DCB	0x0, "N", 0x0, "T", 0x0, "S", 0x0, 0x0, 0x0 ; `string'

  00000			 AREA	 |.rdata|, DATA, READONLY
|??_C@_1CG@NDHMHBAM@?$AAW?$AAI?$AAN?$AAI?$AAN?$AAE?$AAT?$AA_?$AAI?$AAN?$AAD?$AAE?$AAX?$AA_?$AAS?$AAI?$AAZ?$AAE?$AA?$AA@| DCB "W"
	DCB	0x0, "I", 0x0, "N", 0x0, "I", 0x0, "N", 0x0, "E", 0x0, "T"
	DCB	0x0, "_", 0x0, "I", 0x0, "N", 0x0, "D", 0x0, "E", 0x0, "X"
	DCB	0x0, "_", 0x0, "S", 0x0, "I", 0x0, "Z", 0x0, "E", 0x0, 0x0
	DCB	0x0					; `string'

  00000			 AREA	 |.rdata|, DATA, READONLY
|??_C@_1CO@CICFINHC@?$AAW?$AAI?$AAN?$AAI?$AAN?$AAE?$AAT?$AA_?$AAR?$AAE?$AAQ?$AAU?$AAE?$AAS?$AAT?$AA_?$AAR?$AAE?$AAS?$AAU?$AAL?$AAT?$AA?$AA@| DCB "W"
	DCB	0x0, "I", 0x0, "N", 0x0, "I", 0x0, "N", 0x0, "E", 0x0, "T"
	DCB	0x0, "_", 0x0, "R", 0x0, "E", 0x0, "Q", 0x0, "U", 0x0, "E"
	DCB	0x0, "S", 0x0, "T", 0x0, "_", 0x0, "R", 0x0, "E", 0x0, "S"
	DCB	0x0, "U", 0x0, "L", 0x0, "T", 0x0, 0x0, 0x0 ; `string'

  00000			 AREA	 |.rdata|, DATA, READONLY
|??_C@_1EC@PAFHMMIO@?$AAO?$AAF?$AAF?$AAI?$AAC?$AAE?$AAM?$AAO?$AAB?$AAI?$AAL?$AAE?$AA_?$AAO?$AAN?$AAE?$AAN?$AAO?$AAT?$AAE?$AA_?$AAK?$AAN?$AAO?$AAW?$AAN?$AA_?$AAE?$AAR?$AAR?$AAO?$AAR@| DCB "O"
	DCB	0x0, "F", 0x0, "F", 0x0, "I", 0x0, "C", 0x0, "E", 0x0, "M"
	DCB	0x0, "O", 0x0, "B", 0x0, "I", 0x0, "L", 0x0, "E", 0x0, "_"
	DCB	0x0, "O", 0x0, "N", 0x0, "E", 0x0, "N", 0x0, "O", 0x0, "T"
	DCB	0x0, "E", 0x0, "_", 0x0, "K", 0x0, "N", 0x0, "O", 0x0, "W"
	DCB	0x0, "N", 0x0, "_", 0x0, "E", 0x0, "R", 0x0, "R", 0x0, "O"
	DCB	0x0, "R", 0x0, 0x0, 0x0			; `string'

  00000			 AREA	 |.rdata|, DATA, READONLY
|??_C@_1EM@CIMFEJCM@?$AAO?$AAF?$AAF?$AAI?$AAC?$AAE?$AAM?$AAO?$AAB?$AAI?$AAL?$AAE?$AA_?$AAO?$AAN?$AAE?$AAN?$AAO?$AAT?$AAE?$AA_?$AAU?$AAN?$AAE?$AAX?$AAP?$AAE?$AAC?$AAT?$AAE?$AAD?$AA_@| DCB "O"
	DCB	0x0, "F", 0x0, "F", 0x0, "I", 0x0, "C", 0x0, "E", 0x0, "M"
	DCB	0x0, "O", 0x0, "B", 0x0, "I", 0x0, "L", 0x0, "E", 0x0, "_"
	DCB	0x0, "O", 0x0, "N", 0x0, "E", 0x0, "N", 0x0, "O", 0x0, "T"
	DCB	0x0, "E", 0x0, "_", 0x0, "U", 0x0, "N", 0x0, "E", 0x0, "X"
