; Listing generated by Microsoft (R) Optimizing Compiler Version 17.00.50727.114 

	TTL	C:\wince800\platform\rrm_ppc_windows\src\drivers\pm\mdd\pmtimer.cpp
	THUMB

  00000			 AREA	 |.drectve|, DRECTVE
	DCB	"-defaultlib:LIBCMT "
	DCB	"-defaultlib:OLDNAMES "

	EXPORT	|ResetEvent|
	IMPORT	|EventModify|
; Function compile flags: /Ogsp
; File c:\wince800\public\common\sdk\inc\kfuncs.h

  00000			 AREA	 |.text|, CODE, THUMB

  00000		 |ResetEvent| PROC

; 232  :     return EventModify(h,EVENT_RESET);

  00000	2102		 movs        r1,#2
  00002		 |$M4|
  00002	f000 9000	 b           EventModify

			 ENDP  ; |ResetEvent|

	EXPORT	|SetEvent|
; Function compile flags: /Ogsp
; File c:\wince800\public\common\sdk\inc\kfuncs.h

  00000			 AREA	 |.text|, CODE, THUMB

  00000		 |SetEvent| PROC

; 244  :     return EventModify(h,EVENT_SET);

  00000	2103		 movs        r1,#3
  00002		 |$M4|
  00002	f000 9000	 b           EventModify

			 ENDP  ; |SetEvent|

	EXPORT	|GetCurrentThread|
; Function compile flags: /Ogsp
; File c:\wince800\public\common\sdk\inc\kfuncs.h

  00000			 AREA	 |.text|, CODE, THUMB

  00000		 |GetCurrentThread| PROC

; 358  :     return ((HANDLE)(SH_CURTHREAD+SYS_HANDLE_BASE));

  00000	2041		 movs        r0,#0x41
  00002		 |$M4|

; 359  : }

  00002	4770		 bx          lr

			 ENDP  ; |GetCurrentThread|

	EXPORT	|GetCurrentThreadId|
	IMPORT	|__GetUserKData|
; Function compile flags: /Ogsp
; File c:\wince800\public\common\sdk\inc\kfuncs.h

  00000			 AREA	 |.text|, CODE, THUMB

  00000		 |GetCurrentThreadId| PROC

; 372  :     return __GetUserKData (SYSHANDLE_OFFSET + (SH_CURTHREAD * sizeof(HANDLE)));

  00000	2008		 movs        r0,#8
  00002		 |$M4|
  00002	f000 9000	 b           __GetUserKData

			 ENDP  ; |GetCurrentThreadId|

	IMPORT	|__security_push_cookie|
	IMPORT	|__security_pop_cookie|
	IMPORT	|__GSHandlerCheck|
	IMPORT	|StringCchVPrintfW|
	IMPORT	|StringCchLengthW|
	IMPORT	|CeLogData|

  00000			 AREA	 |.pdata|, PDATA
|$pdata1$CeLogMsg| DCD imagerel |$LN8@CeLogMsg|
	DCD	imagerel |$unwind2$CeLogMsg|

  00000			 AREA	 |.xdata|, DATA
|$unwind2$CeLogMsg| DCD 0x44b00032
	DCD	0x1e889e8
	DCD	0x400a8fb
	DCD	0x8801e8ff
	DCD	0xff05ef00
	DCD	imagerel |__GSHandlerCheck|
	DCD	0xffffffe5
; Function compile flags: /Ogsp
; File c:\wince800\public\common\sdk\inc\celog.h

  00000			 AREA	 |.text|, CODE, THUMB

  00000		 |CeLogMsg| PROC

; 1208 : {

  00000		 |$LN8@CeLogMsg|
  00000	b40f		 push        {r0-r3}
  00002	e92d 4800	 push        {r11,lr}
  00006	46eb		 mov         r11,sp
  00008	f000 f800	 bl          __security_push_cookie
  0000c	f2ad 2d24	 subw        sp,sp,#0x224
  00010		 |$M6|
  00010	4602		 mov         r2,r0

; 1209 :     va_list arglist;
; 1210 :     WCHAR   szTemp[MAX_PATH];
; 1211 :     size_t  cchLen;
; 1212 :     HRESULT hr;
; 1213 : 
; 1214 :     // Compose a single string using the input args
; 1215 :     va_start(arglist, szFormat);
; 1216 :     hr = StringCchVPrintfW(szTemp, MAX_PATH, szFormat, arglist);

  00012	a806		 add         r0,sp,#0x18
  00014	ab8d		 add         r3,sp,#0x234
  00016	f44f 7182	 mov         r1,#0x104
  0001a	928c		 str         r2,[sp,#0x230]
  0001c	f000 f800	 bl          StringCchVPrintfW

; 1217 :     if (SUCCEEDED(hr)) {

  00020	2800		 cmp         r0,#0
  00022	db17		 blt         |$LN1@CeLogMsg|

; 1218 :         hr = StringCchLengthW(szTemp, MAX_PATH, &cchLen);

  00024	aa04		 add         r2,sp,#0x10
  00026	a806		 add         r0,sp,#0x18
  00028	f44f 7182	 mov         r1,#0x104
  0002c	f000 f800	 bl          StringCchLengthW

; 1219 :         if (SUCCEEDED(hr)) {

  00030	2800		 cmp         r0,#0
  00032	db0f		 blt         |$LN1@CeLogMsg|

; 1220 :             CeLogData(TRUE, CELID_RAW_WCHAR, szTemp, (WORD)((cchLen + 1) * sizeof(WCHAR)),
; 1221 :                       0, CELZONE_ALWAYSON, 0, FALSE);

  00034	f04f 4380	 mov         r3,#0x40000000
  00038	9301		 str         r3,[sp,#4]
  0003a	9b04		 ldr         r3,[sp,#0x10]
  0003c	2200		 movs        r2,#0
  0003e	9203		 str         r2,[sp,#0xC]
  00040	3301		 adds        r3,#1
  00042	005b		 lsls        r3,r3,#1
  00044	9202		 str         r2,[sp,#8]
  00046	9200		 str         r2,[sp]
  00048	aa06		 add         r2,sp,#0x18
  0004a	214a		 movs        r1,#0x4A
  0004c	b29b		 uxth        r3,r3
  0004e	2001		 movs        r0,#1
  00050	f000 f800	 bl          CeLogData
  00054		 |$LN1@CeLogMsg|
  00054		 |$M9|

; 1222 :         }
; 1223 :     }
; 1224 : }

  00054	f20d 2d24	 addw        sp,sp,#0x224
  00058	f000 f800	 bl          __security_pop_cookie
  0005c	f85d bb04	 pop         {r11}
  00060	f85d fb14	 ldr         pc,[sp],#0x14
  00064		 |$M7|

			 ENDP  ; |CeLogMsg|

	EXPORT	|?GetNextInactivityTimeout@@YAKK@Z|	; GetNextInactivityTimeout
	IMPORT	|PmLock|
	IMPORT	|gppActivityTimers|
	IMPORT	|PmUnlock|

  00008			 AREA	 |.pdata|, PDATA
|$pdata1$?GetNextInactivityTimeout@@YAKK@Z| DCD imagerel |$LN17@GetNextIna|
	DCD	0xfd3260a1
; Function compile flags: /Ogsp
; File c:\wince800\platform\rrm_ppc_windows\src\drivers\pm\mdd\pmtimer.cpp

  00064			 AREA	 |.text|, CODE, THUMB

  00064		 |?GetNextInactivityTimeout@@YAKK@Z| PROC ; GetNextInactivityTimeout

; 187  : {

  00064		 |$LN17@GetNextIna|
  00064	e92d 4878	 push        {r3-r6,r11,lr}
  00068	f20d 0b10	 addw        r11,sp,#0x10
  0006c		 |$M15|
  0006c	4606		 mov         r6,r0

; 188  :     DWORD dwTimeout = INFINITE;

  0006e	f06f 0400	 mvn         r4,#0

; 189  :     DWORD dwIndex;
; 190  :     PACTIVITY_TIMER pat;
; 191  : 
; 192  :     PMLOCK();

  00072	f000 f800	 bl          PmLock

; 193  :     for(dwIndex = 0; (pat = gppActivityTimers[dwIndex]) != NULL; dwIndex++) {

  00076	480f		 ldr         r0,|$LN20@GetNextIna| ; =|gppActivityTimers|
  00078	6802		 ldr         r2,[r0]
  0007a	6811		 ldr         r1,[r2]
  0007c	b1a9		 cbz         r1,|$LN6@GetNextIna|

; 188  :     DWORD dwTimeout = INFINITE;

  0007e	2500		 movs        r5,#0
  00080		 |$LL8@GetNextIna|

; 194  :         DWORD dwTimeLeft = pat->dwTimeLeft;

  00080	688b		 ldr         r3,[r1,#8]

; 195  :         if(dwTimeLeft != INFINITE) {

  00082	f1b3 3fff	 cmp         r3,#0xFFFFFFFF
  00086	d00c		 beq         |$LN7@GetNextIna|

; 196  :             // subtract elapsed time
; 197  :             if(dwTimeLeft < dwElapsed) {

  00088	42b3		 cmp         r3,r6
  0008a	d201		 bcs         |$LN4@GetNextIna|

; 198  :                 dwTimeLeft = 0;

  0008c	2300		 movs        r3,#0

; 199  :             } else {

  0008e	e000		 b           |$LN3@GetNextIna|
  00090		 |$LN4@GetNextIna|

; 200  :                 dwTimeLeft -= dwElapsed;

  00090	1b9b		 subs        r3,r3,r6
  00092		 |$LN3@GetNextIna|

; 201  :             }
; 202  : 
; 203  :             // update the timeout value
; 204  :             if(dwTimeout == INFINITE || dwTimeLeft < dwTimeout) {

  00092	f1b4 3fff	 cmp         r4,#0xFFFFFFFF
  00096	d001		 beq         |$LN1@GetNextIna|
  00098	42a3		 cmp         r3,r4
  0009a	d200		 bcs         |$LN2@GetNextIna|
  0009c		 |$LN1@GetNextIna|

; 205  :                 dwTimeout = dwTimeLeft;

  0009c	461c		 mov         r4,r3
  0009e		 |$LN2@GetNextIna|

; 206  :             }
; 207  : 
; 208  :             // update the timer
; 209  :             pat->dwTimeLeft = dwTimeLeft;

  0009e	608b		 str         r3,[r1,#8]
  000a0	6802		 ldr         r2,[r0]
  000a2		 |$LN7@GetNextIna|

; 193  :     for(dwIndex = 0; (pat = gppActivityTimers[dwIndex]) != NULL; dwIndex++) {

  000a2	3504		 adds        r5,#4
  000a4	58a9		 ldr         r1,[r5,r2]
  000a6	2900		 cmp         r1,#0
  000a8	d1ea		 bne         |$LL8@GetNextIna|
  000aa		 |$LN6@GetNextIna|

; 210  :         }
; 211  :     }
; 212  :     PMUNLOCK();

  000aa	f000 f800	 bl          PmUnlock

; 213  : 
; 214  :     return dwTimeout;
; 215  : }

  000ae	4620		 mov         r0,r4
  000b0		 |$M18|
  000b0	e8bd 8878	 pop         {r3-r6,r11,pc}
  000b4		 |$LN19@GetNextIna|
  000b4		 |$LN20@GetNextIna|
  000b4	0000 0000	 DCD         |gppActivityTimers|
  000b8		 |$M16|

			 ENDP  ; |?GetNextInactivityTimeout@@YAKK@Z|, GetNextInactivityTimeout

	EXPORT	|??_C@_1CE@PFHECECI@?$AA?$CF?$AAs?$AA?2?$AAA?$AAc?$AAt?$AAi?$AAv?$AAi?$AAt?$AAy?$AAT?$AAi?$AAm?$AAe?$AAr?$AAs?$AA?$AA@| [ DATA ] ; `string'
	EXPORT	|??_C@_1EO@PFEFPDAL@?$AAS?$AAY?$AAS?$AAT?$AAE?$AAM?$AA?2?$AAC?$AAu?$AAr?$AAr?$AAe?$AAn?$AAt?$AAC?$AAo?$AAn?$AAt?$AAr?$AAo?$AAl?$AAS?$AAe?$AAt?$AA?2?$AAC?$AAo?$AAn?$AAt?$AAr?$AAo?$AAl@| [ DATA ] ; `string'
	EXPORT	|??_C@_1FK@FNONLNGN@?$AA?$CF?$AAs?$AA?3?$AA?5?$AAD?$AAE?$AAB?$AAU?$AAG?$AAC?$AAH?$AAK?$AA?5?$AAf?$AAa?$AAi?$AAl?$AAe?$AAd?$AA?5?$AAi?$AAn?$AA?5?$AAf?$AAi?$AAl?$AAe?$AA?5?$AA?$CF?$AAs?$AA?5?$AAa@| [ DATA ] ; `string'
	EXPORT	|??_C@_1BA@LEPJIIOK@?$AAU?$AAn?$AAk?$AAn?$AAo?$AAw?$AAn?$AA?$AA@| [ DATA ] ; `string'
	EXPORT	|??_C@_1II@KJFLGGMG@?$AAc?$AA?3?$AA?2?$AAw?$AAi?$AAn?$AAc?$AAe?$AA8?$AA0?$AA0?$AA?2?$AAp?$AAl?$AAa?$AAt?$AAf?$AAo?$AAr?$AAm?$AA?2?$AAr?$AAr?$AAm?$AA_?$AAp?$AAp?$AAc?$AA_?$AAw?$AAi?$AAn@| [ DATA ] ; `string'
	EXPORT	|??_C@_1EE@BIOIIFOI@?$AA?$CF?$AAs?$AA?3?$AA?5?$AAc?$AAo?$AAu?$AAl?$AAd?$AAn?$AA?8?$AAt?$AA?5?$AAa?$AAl?$AAl?$AAo?$AAc?$AAa?$AAt?$AAe?$AA?5?$AA?$CF?$AAd?$AA?5?$AAt?$AAi?$AAm?$AAe?$AAr?$AAs?$AA?$AN@| [ DATA ] ; `string'
	EXPORT	|??_C@_1CM@HNAHFPMO@?$AAA?$AAc?$AAt?$AAi?$AAv?$AAi?$AAt?$AAy?$AAT?$AAi?$AAm?$AAe?$AAr?$AAI?$AAn?$AAi?$AAt?$AAL?$AAi?$AAs?$AAt?$AA?$AA@| [ DATA ] ; `string'
	EXPORT	|??_C@_1BA@BKONPLFM@?$AAT?$AAi?$AAm?$AAe?$AAo?$AAu?$AAt?$AA?$AA@| [ DATA ] ; `string'
	EXPORT	|??_C@_1KA@PJKODPJA@?$AA?$CF?$AAs?$AA?3?$AA?5?$AAR?$AAe?$AAg?$AAQ?$AAu?$AAe?$AAr?$AAy?$AAV?$AAa?$AAl?$AAu?$AAe?$AAE?$AAx?$AA?$CI?$AA?8?$AA?$CF?$AAs?$AA?8?$AA?8?$AA?$CF?$AAs?$AA?8?$AA?$CJ?$AA?5?$AAo?$AAr@| [ DATA ] ; `string'
	EXPORT	|??_C@_1BE@OELEEODA@?$AAT?$AAi?$AAm?$AAe?$AAo?$AAu?$AAt?$AAM?$AAs?$AA?$AA@| [ DATA ] ; `string'
	EXPORT	|??_C@_1LI@OJGPOFFA@?$AA?$CF?$AAs?$AA?3?$AA?5?$AAR?$AAe?$AAg?$AAQ?$AAu?$AAe?$AAr?$AAy?$AAV?$AAa?$AAl?$AAu?$AAe?$AAE?$AAx?$AA?$CI?$AA?8?$AA?$CF?$AAs?$AA?8?$AA?8?$AA?$CF?$AAs?$AA?8?$AA?$CJ?$AA?5?$AAf?$AAa@| [ DATA ] ; `string'
	EXPORT	|??_C@_1BI@HFHFECPN@?$AAW?$AAa?$AAk?$AAe?$AAS?$AAo?$AAu?$AAr?$AAc?$AAe?$AAs?$AA?$AA@| [ DATA ] ; `string'
	EXPORT	|??_C@_1EG@OELICMJG@?$AA?$CF?$AAs?$AA?3?$AA?5?$AAi?$AAn?$AAv?$AAa?$AAl?$AAi?$AAd?$AA?5?$AAt?$AAy?$AAp?$AAe?$AA?5?$AA?$CF?$AAd?$AA?5?$AAf?$AAo?$AAr?$AA?5?$AA?8?$AA?$CF?$AAs?$AA?8?$AA?8?$AA?$CF?$AAs?$AA?8@| [ DATA ] ; `string'
	EXPORT	|??_C@_1CG@EPNLEKEF@?$AA?$CF?$AAs?$AA?3?$AA?5?$AAr?$AAe?$AAt?$AAu?$AAr?$AAn?$AAi?$AAn?$AAg?$AA?5?$AA?$CF?$AAd?$AA?$AN?$AA?6?$AA?$AA@| [ DATA ] ; `string'
	EXPORT	|?ActivityTimerInitList@@YAKXZ|		; ActivityTimerInitList
	IMPORT	|memset|
	IMPORT	|StringCchPrintfW|
	IMPORT	|NKDbgPrintfW|
	IMPORT	|RegOpenKeyExW|
	IMPORT	|RegQueryInfoKeyW|
	IMPORT	|dpCurSettings|
	IMPORT	|PmAlloc|
	IMPORT	|RegEnumKeyExW|
	IMPORT	|RegQueryValueExW|
	IMPORT	|ActivityTimerCreate|
	IMPORT	|RegCloseKey|
	IMPORT	|ActivityTimerDestroy|
	IMPORT	|PmFree|

  00010			 AREA	 |.pdata|, PDATA
|$pdata1$?ActivityTimerInitList@@YAKXZ| DCD imagerel |$LN68@ActivityTi|
	DCD	imagerel |$unwind2$?ActivityTimerInitList@@YAKXZ|

  0001c			 AREA	 |.xdata|, DATA
	%	4
|$unwind2$?ActivityTimerInitList@@YAKXZ| DCD 0x33b00170
	DCD	0x1e890ea
	DCD	0xe8ffdffc
	DCD	0xffdf01
	DCD	imagerel |__GSHandlerCheck|
	DCD	0xffffffd9

  00000			 AREA	 |.rdata|, DATA, READONLY
|??_C@_1CG@EPNLEKEF@?$AA?$CF?$AAs?$AA?3?$AA?5?$AAr?$AAe?$AAt?$AAu?$AAr?$AAn?$AAi?$AAn?$AAg?$AA?5?$AA?$CF?$AAd?$AA?$AN?$AA?6?$AA?$AA@| DCB "%"
	DCB	0x0, "s", 0x0, ":", 0x0, " ", 0x0, "r", 0x0, "e", 0x0, "t"
	DCB	0x0, "u", 0x0, "r", 0x0, "n", 0x0, "i", 0x0, "n", 0x0, "g"
	DCB	0x0, " ", 0x0, "%", 0x0, "d", 0x0, 0xd, 0x0, 0xa, 0x0, 0x0
	DCB	0x0					; `string'

  00000			 AREA	 |.rdata|, DATA, READONLY
|??_C@_1EG@OELICMJG@?$AA?$CF?$AAs?$AA?3?$AA?5?$AAi?$AAn?$AAv?$AAa?$AAl?$AAi?$AAd?$AA?5?$AAt?$AAy?$AAp?$AAe?$AA?5?$AA?$CF?$AAd?$AA?5?$AAf?$AAo?$AAr?$AA?5?$AA?8?$AA?$CF?$AAs?$AA?8?$AA?8?$AA?$CF?$AAs?$AA?8@| DCB "%"
	DCB	0x0, "s", 0x0, ":", 0x0, " ", 0x0, "i", 0x0, "n", 0x0, "v"
	DCB	0x0, "a", 0x0, "l", 0x0, "i", 0x0, "d", 0x0, " ", 0x0, "t"
	DCB	0x0, "y", 0x0, "p", 0x0, "e", 0x0, " ", 0x0, "%", 0x0, "d"
	DCB	0x0, " ", 0x0, "f", 0x0, "o", 0x0, "r", 0x0, " ", 0x0, "'"
	DCB	0x0, "%", 0x0, "s", 0x0, "'", 0x0, "'", 0x0, "%", 0x0, "s"
	DCB	0x0, "'", 0x0, 0xd, 0x0, 0xa, 0x0, 0x0, 0x0 ; `string'

  00000			 AREA	 |.rdata|, DATA, READONLY
|??_C@_1BI@HFHFECPN@?$AAW?$AAa?$AAk?$AAe?$AAS?$AAo?$AAu?$AAr?$AAc?$AAe?$AAs?$AA?$AA@| DCB "W"
	DCB	0x0, "a", 0x0, "k", 0x0, "e", 0x0, "S", 0x0, "o", 0x0, "u"
	DCB	0x0, "r", 0x0, "c", 0x0, "e", 0x0, "s", 0x0, 0x0, 0x0 ; `string'

  00000			 AREA	 |.rdata|, DATA, READONLY
|??_C@_1LI@OJGPOFFA@?$AA?$CF?$AAs?$AA?3?$AA?5?$AAR?$AAe?$AAg?$AAQ?$AAu?$AAe?$AAr?$AAy?$AAV?$AAa?$AAl?$AAu?$AAe?$AAE?$AAx?$AA?$CI?$AA?8?$AA?$CF?$AAs?$AA?8?$AA?8?$AA?$CF?$AAs?$AA?8?$AA?$CJ?$AA?5?$AAf?$AAa@| DCB "%"
	DCB	0x0, "s", 0x0, ":", 0x0, " ", 0x0, "R", 0x0, "e", 0x0, "g"
	DCB	0x0, "Q", 0x0, "u", 0x0, "e", 0x0, "r", 0x0, "y", 0x0, "V"
	DCB	0x0, "a", 0x0, "l", 0x0, "u", 0x0, "e", 0x0, "E", 0x0, "x"
	DCB	0x0, "(", 0x0, "'", 0x0, "%", 0x0, "s", 0x0, "'", 0x0, "'"
	DCB	0x0, "%", 0x0, "s", 0x0, "'", 0x0, ")", 0x0, " ", 0x0, "f"
	DCB	0x0, "a", 0x0, "i", 0x0, "l", 0x0, "e", 0x0, "d", 0x0, " "
	DCB	0x0, "%", 0x0, "d", 0x0, " ", 0x0, "(", 0x0, "o", 0x0, "r"
	DCB	0x0, " ", 0x0, "r", 0x0, "e", 0x0, "t", 0x0, "u", 0x0, "r"
	DCB	0x0, "n", 0x0, "e", 0x0, "d", 0x0, " ", 0x0, "i", 0x0, "n"
	DCB	0x0, "v", 0x0, "a", 0x0, "l", 0x0, "i", 0x0, "d", 0x0, " "
	DCB	0x0, "t", 0x0, "y", 0x0, "p", 0x0, "e", 0x0, " ", 0x0, "%"
	DCB	0x0, "d", 0x0, " ", 0x0, "o", 0x0, "r", 0x0, " ", 0x0, "i"
	DCB	0x0, "n", 0x0, "v", 0x0, "a", 0x0, "l", 0x0, "i", 0x0, "d"
	DCB	0x0, " ", 0x0, "v", 0x0, "a", 0x0, "l", 0x0, "u", 0x0, "e"
	DCB	0x0, " ", 0x0, "%", 0x0, "d", 0x0, ")", 0x0, 0xd, 0x0, 0xa
	DCB	0x0, 0x0, 0x0				; `string'

  00000			 AREA	 |.rdata|, DATA, READONLY
|??_C@_1BE@OELEEODA@?$AAT?$AAi?$AAm?$AAe?$AAo?$AAu?$AAt?$AAM?$AAs?$AA?$AA@| DCB "T"
	DCB	0x0, "i", 0x0, "m", 0x0, "e", 0x0, "o", 0x0, "u", 0x0, "t"
	DCB	0x0, "M", 0x0, "s", 0x0, 0x0, 0x0	; `string'

  00000			 AREA	 |.rdata|, DATA, READONLY
|??_C@_1KA@PJKODPJA@?$AA?$CF?$AAs?$AA?3?$AA?5?$AAR?$AAe?$AAg?$AAQ?$AAu?$AAe?$AAr?$AAy?$AAV?$AAa?$AAl?$AAu?$AAe?$AAE?$AAx?$AA?$CI?$AA?8?$AA?$CF?$AAs?$AA?8?$AA?8?$AA?$CF?$AAs?$AA?8?$AA?$CJ?$AA?5?$AAo?$AAr@| DCB "%"
	DCB	0x0, "s", 0x0, ":", 0x0, " ", 0x0, "R", 0x0, "e", 0x0, "g"
	DCB	0x0, "Q", 0x0, "u", 0x0, "e", 0x0, "r", 0x0, "y", 0x0, "V"
	DCB	0x0, "a", 0x0, "l", 0x0, "u", 0x0, "e", 0x0, "E", 0x0, "x"
	DCB	0x0, "(", 0x0, "'", 0x0, "%", 0x0, "s", 0x0, "'", 0x0, "'"
	DCB	0x0, "%", 0x0, "s", 0x0, "'", 0x0, ")", 0x0, " ", 0x0, "o"
	DCB	0x0, "r", 0x0, " ", 0x0, "r", 0x0, "e", 0x0, "t", 0x0, "u"
	DCB	0x0, "r", 0x0, "n", 0x0, "e", 0x0, "d", 0x0, " ", 0x0, "i"
	DCB	0x0, "n", 0x0, "v", 0x0, "a", 0x0, "l", 0x0, "i", 0x0, "d"
	DCB	0x0, " ", 0x0, "t", 0x0, "y", 0x0, "p", 0x0, "e", 0x0, " "
	DCB	0x0, "%", 0x0, "d", 0x0, " ", 0x0, "o", 0x0, "r", 0x0, " "
	DCB	0x0, "i", 0x0, "n", 0x0, "v", 0x0, "a", 0x0, "l", 0x0, "i"
	DCB	0x0, "d", 0x0, " ", 0x0, "v", 0x0, "a", 0x0, "l", 0x0, "u"
	DCB	0x0, "e", 0x0, " ", 0x0, "%", 0x0, "d", 0x0, 0xd, 0x0, 0xa
	DCB	0x0, 0x0, 0x0				; `string'

  00000			 AREA	 |.rdata|, DATA, READONLY
|??_C@_1BA@BKONPLFM@?$AAT?$AAi?$AAm?$AAe?$AAo?$AAu?$AAt?$AA?$AA@| DCB "T", 0x0
	DCB	"i", 0x0, "m", 0x0, "e", 0x0, "o", 0x0, "u", 0x0, "t", 0x0
	DCB	0x0, 0x0				; `string'

  00000			 AREA	 |.rdata|, DATA, READONLY
|??_C@_1CM@HNAHFPMO@?$AAA?$AAc?$AAt?$AAi?$AAv?$AAi?$AAt?$AAy?$AAT?$AAi?$AAm?$AAe?$AAr?$AAI?$AAn?$AAi?$AAt?$AAL?$AAi?$AAs?$AAt?$AA?$AA@| DCB "A"
	DCB	0x0, "c", 0x0, "t", 0x0, "i", 0x0, "v", 0x0, "i", 0x0, "t"
	DCB	0x0, "y", 0x0, "T", 0x0, "i", 0x0, "m", 0x0, "e", 0x0, "r"
	DCB	0x0, "I", 0x0, "n", 0x0, "i", 0x0, "t", 0x0, "L", 0x0, "i"
	DCB	0x0, "s", 0x0, "t", 0x0, 0x0, 0x0	; `string'

  00000			 AREA	 |.rdata|, DATA, READONLY
|??_C@_1EE@BIOIIFOI@?$AA?$CF?$AAs?$AA?3?$AA?5?$AAc?$AAo?$AAu?$AAl?$AAd?$AAn?$AA?8?$AAt?$AA?5?$AAa?$AAl?$AAl?$AAo?$AAc?$AAa?$AAt?$AAe?$AA?5?$AA?$CF?$AAd?$AA?5?$AAt?$AAi?$AAm?$AAe?$AAr?$AAs?$AA?$AN@| DCB "%"
	DCB	0x0, "s", 0x0, ":", 0x0, " ", 0x0, "c", 0x0, "o", 0x0, "u"
	DCB	0x0, "l", 0x0, "d", 0x0, "n", 0x0, "'", 0x0, "t", 0x0, " "
	DCB	0x0, "a", 0x0, "l", 0x0, "l", 0x0, "o", 0x0, "c", 0x0, "a"
	DCB	0x0, "t", 0x0, "e", 0x0, " ", 0x0, "%", 0x0, "d", 0x0, " "
	DCB	0x0, "t", 0x0, "i", 0x0, "m", 0x0, "e", 0x0, "r", 0x0, "s"
	DCB	0x0, 0xd, 0x0, 0xa, 0x0, 0x0, 0x0	; `string'

  00000			 AREA	 |.rdata|, DATA, READONLY
|??_C@_1II@KJFLGGMG@?$AAc?$AA?3?$AA?2?$AAw?$AAi?$AAn?$AAc?$AAe?$AA8?$AA0?$AA0?$AA?2?$AAp?$AAl?$AAa?$AAt?$AAf?$AAo?$AAr?$AAm?$AA?2?$AAr?$AAr?$AAm?$AA_?$AAp?$AAp?$AAc?$AA_?$AAw?$AAi?$AAn@| DCB "c"
	DCB	0x0, ":", 0x0, "\\", 0x0, "w", 0x0, "i", 0x0, "n", 0x0, "c"
	DCB	0x0, "e", 0x0, "8", 0x0, "0", 0x0, "0", 0x0, "\\", 0x0, "p"
	DCB	0x0, "l", 0x0, "a", 0x0, "t", 0x0, "f", 0x0, "o", 0x0, "r"
	DCB	0x0, "m", 0x0, "\\", 0x0, "r", 0x0, "r", 0x0, "m", 0x0, "_"
	DCB	0x0, "p", 0x0, "p", 0x0, "c", 0x0, "_", 0x0, "w", 0x0, "i"
	DCB	0x0, "n", 0x0, "d", 0x0, "o", 0x0, "w", 0x0, "s", 0x0, "\\"
	DCB	0x0, "s", 0x0, "r", 0x0, "c", 0x0, "\\", 0x0, "d", 0x0, "r"
	DCB	0x0, "i", 0x0, "v", 0x0, "e", 0x0, "r", 0x0, "s", 0x0, "\\"
	DCB	0x0, "p", 0x0, "m", 0x0, "\\", 0x0, "m", 0x0, "d", 0x0, "d"
	DCB	0x0, "\\", 0x0, "p", 0x0, "m", 0x0, "t", 0x0, "i", 0x0, "m"
	DCB	0x0, "e", 0x0, "r", 0x0, ".", 0x0, "c", 0x0, "p", 0x0, "p"
	DCB	0x0, 0x0, 0x0				; `string'

  00000			 AREA	 |.rdata|, DATA, READONLY
|??_C@_1BA@LEPJIIOK@?$AAU?$AAn?$AAk?$AAn?$AAo?$AAw?$AAn?$AA?$AA@| DCB "U", 0x0
	DCB	"n", 0x0, "k", 0x0, "n", 0x0, "o", 0x0, "w", 0x0, "n", 0x0
	DCB	0x0, 0x0				; `string'

  00000			 AREA	 |.rdata|, DATA, READONLY
|??_C@_1FK@FNONLNGN@?$AA?$CF?$AAs?$AA?3?$AA?5?$AAD?$AAE?$AAB?$AAU?$AAG?$AAC?$AAH?$AAK?$AA?5?$AAf?$AAa?$AAi?$AAl?$AAe?$AAd?$AA?5?$AAi?$AAn?$AA?5?$AAf?$AAi?$AAl?$AAe?$AA?5?$AA?$CF?$AAs?$AA?5?$AAa@| DCB "%"
	DCB	0x0, "s", 0x0, ":", 0x0, " ", 0x0, "D", 0x0, "E", 0x0, "B"
	DCB	0x0, "U", 0x0, "G", 0x0, "C", 0x0, "H", 0x0, "K", 0x0, " "
	DCB	0x0, "f", 0x0, "a", 0x0, "i", 0x0, "l", 0x0, "e", 0x0, "d"
	DCB	0x0, " ", 0x0, "i", 0x0, "n", 0x0, " ", 0x0, "f", 0x0, "i"
	DCB	0x0, "l", 0x0, "e", 0x0, " ", 0x0, "%", 0x0, "s", 0x0, " "
	DCB	0x0, "a", 0x0, "t", 0x0, " ", 0x0, "l", 0x0, "i", 0x0, "n"
	DCB	0x0, "e", 0x0, " ", 0x0, "%", 0x0, "d", 0x0, " ", 0x0, 0xd
	DCB	0x0, 0xa, 0x0, 0x0, 0x0			; `string'

  00000			 AREA	 |.rdata|, DATA, READONLY
|??_C@_1EO@PFEFPDAL@?$AAS?$AAY?$AAS?$AAT?$AAE?$AAM?$AA?2?$AAC?$AAu?$AAr?$AAr?$AAe?$AAn?$AAt?$AAC?$AAo?$AAn?$AAt?$AAr?$AAo?$AAl?$AAS?$AAe?$AAt?$AA?2?$AAC?$AAo?$AAn?$AAt?$AAr?$AAo?$AAl@| DCB "S"
	DCB	0x0, "Y", 0x0, "S", 0x0, "T", 0x0, "E", 0x0, "M", 0x0, "\\"
	DCB	0x0, "C", 0x0, "u", 0x0, "r", 0x0, "r", 0x0, "e", 0x0, "n"
	DCB	0x0, "t", 0x0, "C", 0x0, "o", 0x0, "n", 0x0, "t", 0x0, "r"
	DCB	0x0, "o", 0x0, "l", 0x0, "S", 0x0, "e", 0x0, "t", 0x0, "\\"
	DCB	0x0, "C", 0x0, "o", 0x0, "n", 0x0, "t", 0x0, "r", 0x0, "o"
	DCB	0x0, "l", 0x0, "\\", 0x0, "P", 0x0, "o", 0x0, "w", 0x0, "e"
	DCB	0x0, "r", 0x0, 0x0, 0x0			; `string'

  00000			 AREA	 |.rdata|, DATA, READONLY
|??_C@_1CE@PFHECECI@?$AA?$CF?$AAs?$AA?2?$AAA?$AAc?$AAt?$AAi?$AAv?$AAi?$AAt?$AAy?$AAT?$AAi?$AAm?$AAe?$AAr?$AAs?$AA?$AA@| DCB "%"
	DCB	0x0, "s", 0x0, "\\", 0x0, "A", 0x0, "c", 0x0, "t", 0x0, "i"
	DCB	0x0, "v", 0x0, "i", 0x0, "t", 0x0, "y", 0x0, "T", 0x0, "i"
	DCB	0x0, "m", 0x0, "e", 0x0, "r", 0x0, "s", 0x0, 0x0, 0x0 ; `string'
; Function compile flags: /Ogsp
; File c:\wince800\platform\rrm_ppc_windows\src\drivers\pm\mdd\pmtimer.cpp

  000b8			 AREA	 |.text|, CODE, THUMB

  000b8		 |?ActivityTimerInitList@@YAKXZ| PROC	; ActivityTimerInitList

; 31   : {

  000b8		 |$LN68@ActivityTi|
  000b8	e92d 4ff0	 push        {r4-r11,lr}
  000bc	f20d 0b1c	 addw        r11,sp,#0x1C
  000c0	f000 f800	 bl          __security_push_cookie
  000c4	f6ad 2d40	 subw        sp,sp,#0xA40
  000c8		 |$M66|

; 32   :     DWORD dwStatus;
; 33   :     HKEY hk = NULL;

  000c8	2300		 movs        r3,#0

; 34   :     TCHAR szSources[1024];
; 35   :     DWORD dwNumTimers = 0;
; 36   :     PPACTIVITY_TIMER ppatList = NULL;
; 37   :     SETFNAME(_T("ActivityTimerInitList"));
; 38   : 
; 39   :     VERIFY(SUCCEEDED(StringCchPrintf(szSources, _countof(szSources), _T("%s\\ActivityTimers"), PWRMGR_REG_KEY)));

  000ca	4ac3		 ldr         r2,|$LN87@ActivityTi| ; =|??_C@_1CE@PFHECECI@?$AA?$CF?$AAs?$AA?2?$AAA?$AAc?$AAt?$AAi?$AAv?$AAi?$AAt?$AAy?$AAT?$AAi?$AAm?$AAe?$AAr?$AAs?$AA?$AA@|
  000cc	930d		 str         r3,[sp,#0x34]
  000ce	9308		 str         r3,[sp,#0x20]
  000d0	4bc0		 ldr         r3,|$LN86@ActivityTi| ; =|??_C@_1EO@PFEFPDAL@?$AAS?$AAY?$AAS?$AAT?$AAE?$AAM?$AA?2?$AAC?$AAu?$AAr?$AAr?$AAe?$AAn?$AAt?$AAC?$AAo?$AAn?$AAt?$AAr?$AAo?$AAl?$AAS?$AAe?$AAt?$AA?2?$AAC?$AAo?$AAn?$AAt?$AAr?$AAo?$AAl@|
  000d2	f44f 6180	 mov         r1,#0x400
  000d6	a890		 add         r0,sp,#0x240
  000d8	f000 f800	 bl          StringCchPrintfW
  000dc	2800		 cmp         r0,#0
  000de	da06		 bge         |$LN38@ActivityTi|
  000e0	4abb		 ldr         r2,|$LN85@ActivityTi| ; =|??_C@_1II@KJFLGGMG@?$AAc?$AA?3?$AA?2?$AAw?$AAi?$AAn?$AAc?$AAe?$AA8?$AA0?$AA0?$AA?2?$AAp?$AAl?$AAa?$AAt?$AAf?$AAo?$AAr?$AAm?$AA?2?$AAr?$AAr?$AAm?$AA_?$AAp?$AAp?$AAc?$AA_?$AAw?$AAi?$AAn@|
  000e2	49ba		 ldr         r1,|$LN84@ActivityTi| ; =|??_C@_1BA@LEPJIIOK@?$AAU?$AAn?$AAk?$AAn?$AAo?$AAw?$AAn?$AA?$AA@|
  000e4	48b8		 ldr         r0,|$LN83@ActivityTi| ; =|??_C@_1FK@FNONLNGN@?$AA?$CF?$AAs?$AA?3?$AA?5?$AAD?$AAE?$AAB?$AAU?$AAG?$AAC?$AAH?$AAK?$AA?5?$AAf?$AAa?$AAi?$AAl?$AAe?$AAd?$AA?5?$AAi?$AAn?$AA?5?$AAf?$AAi?$AAl?$AAe?$AA?5?$AA?$CF?$AAs?$AA?5?$AAa@|
  000e6	2327		 movs        r3,#0x27
  000e8	f000 f800	 bl          NKDbgPrintfW
  000ec	defe		 __debugbreak
  000ee		 |$LN38@ActivityTi|

; 40   :     dwStatus = RegOpenKeyEx(HKEY_LOCAL_MACHINE, szSources, 0, 0, &hk);

  000ee	ab0d		 add         r3,sp,#0x34
  000f0	9300		 str         r3,[sp]
  000f2	2301		 movs        r3,#1
  000f4	07d8		 lsls        r0,r3,#0x1F
  000f6	3002		 adds        r0,#2
  000f8	a990		 add         r1,sp,#0x240
  000fa	2300		 movs        r3,#0
  000fc	2200		 movs        r2,#0
  000fe	f000 f800	 bl          RegOpenKeyExW

; 41   :     if(dwStatus == ERROR_SUCCESS) {

  00102	2600		 movs        r6,#0
  00104	b988		 cbnz        r0,|$LN34@ActivityTi|

; 42   :         // figure out how many values are associated with the key
; 43   :         dwStatus = RegQueryInfoKey(hk, NULL, NULL, NULL, &dwNumTimers, NULL, NULL, NULL,
; 44   :             NULL, NULL, NULL, NULL);

  00106	ab08		 add         r3,sp,#0x20
  00108	980d		 ldr         r0,[sp,#0x34]
  0010a	9300		 str         r3,[sp]
  0010c	2300		 movs        r3,#0
  0010e	2200		 movs        r2,#0
  00110	2100		 movs        r1,#0
  00112	9607		 str         r6,[sp,#0x1C]
  00114	9606		 str         r6,[sp,#0x18]
  00116	9605		 str         r6,[sp,#0x14]
  00118	9604		 str         r6,[sp,#0x10]
  0011a	9603		 str         r6,[sp,#0xC]
  0011c	9602		 str         r6,[sp,#8]
  0011e	9601		 str         r6,[sp,#4]
  00120	f000 f800	 bl          RegQueryInfoKeyW

; 45   :     } else {

  00124	9b08		 ldr         r3,[sp,#0x20]
  00126	4604		 mov         r4,r0
  00128	e002		 b           |$LN33@ActivityTi|
  0012a		 |$LN34@ActivityTi|

; 46   :         // no timers configured in the registry
; 47   :         dwNumTimers = 0;

  0012a	2300		 movs        r3,#0
  0012c	9308		 str         r3,[sp,#0x20]

; 48   :         dwStatus = ERROR_SUCCESS;

  0012e	2400		 movs        r4,#0
  00130		 |$LN33@ActivityTi|

; 49   :     }
; 50   : 
; 51   :     // if there are any values, allocate an array to hold them
; 52   :     if(dwStatus == ERROR_SUCCESS) {

  00130	f8df 8290	 ldr         r8,|$LN82@ActivityTi| ; =|dpCurSettings|
  00134	2c00		 cmp         r4,#0
  00136	f040 8114	 bne         |$LN63@ActivityTi|

; 53   :         ppatList = (PPACTIVITY_TIMER) PmAlloc((dwNumTimers + 1) * sizeof(PACTIVITY_TIMER));

  0013a	3301		 adds        r3,#1
  0013c	0098		 lsls        r0,r3,#2
  0013e	f000 f800	 bl          PmAlloc
  00142	4605		 mov         r5,r0

; 54   :         if(ppatList == NULL) {

  00144	b985		 cbnz        r5,|$LN31@ActivityTi|

; 55   :             PMLOGMSG(ZONE_WARN, (_T("%s: couldn't allocate %d timers\r\n"), pszFname,
; 56   :                 dwNumTimers));

  00146	f8d8 3440	 ldr         r3,[r8,#0x440]
  0014a	f013 0f02	 tst         r3,#2
  0014e	d009		 beq         |$LN39@ActivityTi|
  00150	9a08		 ldr         r2,[sp,#0x20]
  00152	4992		 ldr         r1,|$LN72@ActivityTi| ; =|??_C@_1CM@HNAHFPMO@?$AAA?$AAc?$AAt?$AAi?$AAv?$AAi?$AAt?$AAy?$AAT?$AAi?$AAm?$AAe?$AAr?$AAI?$AAn?$AAi?$AAt?$AAL?$AAi?$AAs?$AAt?$AA?$AA@|
  00154	489a		 ldr         r0,|$LN81@ActivityTi| ; =|??_C@_1EE@BIOIIFOI@?$AA?$CF?$AAs?$AA?3?$AA?5?$AAc?$AAo?$AAu?$AAl?$AAd?$AAn?$AA?8?$AAt?$AA?5?$AAa?$AAl?$AAl?$AAo?$AAc?$AAa?$AAt?$AAe?$AA?5?$AA?$CF?$AAd?$AA?5?$AAt?$AAi?$AAm?$AAe?$AAr?$AAs?$AA?$AN@|
  00156	f000 f800	 bl          NKDbgPrintfW
  0015a	9a08		 ldr         r2,[sp,#0x20]
  0015c	498f		 ldr         r1,|$LN72@ActivityTi| ; =|??_C@_1CM@HNAHFPMO@?$AAA?$AAc?$AAt?$AAi?$AAv?$AAi?$AAt?$AAy?$AAT?$AAi?$AAm?$AAe?$AAr?$AAI?$AAn?$AAi?$AAt?$AAL?$AAi?$AAs?$AAt?$AA?$AA@|
  0015e	4898		 ldr         r0,|$LN81@ActivityTi| ; =|??_C@_1EE@BIOIIFOI@?$AA?$CF?$AAs?$AA?3?$AA?5?$AAc?$AAo?$AAu?$AAl?$AAd?$AAn?$AA?8?$AAt?$AA?5?$AAa?$AAl?$AAl?$AAo?$AAc?$AAa?$AAt?$AAe?$AA?5?$AA?$CF?$AAd?$AA?5?$AAt?$AAi?$AAm?$AAe?$AAr?$AAs?$AA?$AN@|
  00160	f000 f800	 bl          CeLogMsg
  00164		 |$LN39@ActivityTi|

; 57   :             dwStatus = ERROR_NOT_ENOUGH_MEMORY;

  00164	2408		 movs        r4,#8

; 58   :         } else {

  00166	e0fc		 b           |$LN63@ActivityTi|
  00168		 |$LN31@ActivityTi|

; 59   :             memset(ppatList, 0, (dwNumTimers + 1) * sizeof(PACTIVITY_TIMER));

  00168	9b08		 ldr         r3,[sp,#0x20]
  0016a	2100		 movs        r1,#0
  0016c	4628		 mov         r0,r5
  0016e	3301		 adds        r3,#1
  00170	009a		 lsls        r2,r3,#2
  00172	f000 f800	 bl          memset

; 60   :             ppatList[dwNumTimers] = NULL;

  00176	9b08		 ldr         r3,[sp,#0x20]
  00178	f845 6023	 str         r6,[r5,r3,lsl #2]

; 61   :         }
; 62   :     }
; 63   : 
; 64   :     // read list of timers
; 65   :     if(dwStatus == ERROR_SUCCESS && dwNumTimers != 0) {

  0017c	9b08		 ldr         r3,[sp,#0x20]
  0017e	2b00		 cmp         r3,#0
  00180	f000 80e9	 beq         |$LN60@ActivityTi|

; 66   :         DWORD dwIndex = 0;

  00184	f8df 9234	 ldr         r9,|$LN80@ActivityTi| ; =|??_C@_1BI@HFHFECPN@?$AAW?$AAa?$AAk?$AAe?$AAS?$AAo?$AAu?$AAr?$AAc?$AAe?$AAs?$AA?$AA@|
  00188	2600		 movs        r6,#0
  0018a	462f		 mov         r7,r5
  0018c	f44f 7a7a	 mov         r10,#0x3E8
  00190		 |$LN64@ActivityTi|

; 67   :         do {
; 68   :             TCHAR szName[256];
; 69   :             DWORD cbValueName = _countof(szName);
; 70   :             
; 71   :             dwStatus = RegEnumKeyEx(hk, dwIndex, szName, &cbValueName, NULL,
; 72   :                 NULL, NULL, NULL);

  00190	980d		 ldr         r0,[sp,#0x34]
  00192	f44f 7280	 mov         r2,#0x100
  00196	2300		 movs        r3,#0
  00198	920e		 str         r2,[sp,#0x38]
  0019a	9303		 str         r3,[sp,#0xC]
  0019c	9302		 str         r3,[sp,#8]
  0019e	9301		 str         r3,[sp,#4]
  001a0	9300		 str         r3,[sp]
  001a2	ab0e		 add         r3,sp,#0x38
  001a4	aa10		 add         r2,sp,#0x40
  001a6	4631		 mov         r1,r6
  001a8	f000 f800	 bl          RegEnumKeyExW
  001ac	4604		 mov         r4,r0

; 73   :             if(dwStatus == ERROR_SUCCESS) {

  001ae	2c00		 cmp         r4,#0
  001b0	f040 80b0	 bne         |$LN25@ActivityTi|

; 74   :                 HKEY hkSubKey = NULL;

  001b4	2300		 movs        r3,#0
  001b6	930b		 str         r3,[sp,#0x2C]

; 75   :                 
; 76   :                 // open the subkey
; 77   :                 dwStatus = RegOpenKeyEx(hk, szName, 0, 0, &hkSubKey);

  001b8	980d		 ldr         r0,[sp,#0x34]
  001ba	ab0b		 add         r3,sp,#0x2C
  001bc	9300		 str         r3,[sp]
  001be	2300		 movs        r3,#0
  001c0	2200		 movs        r2,#0
  001c2	a910		 add         r1,sp,#0x40
  001c4	f000 f800	 bl          RegOpenKeyExW
  001c8	4604		 mov         r4,r0

; 78   :                 if(dwStatus == ERROR_SUCCESS) {

  001ca	2c00		 cmp         r4,#0
  001cc	f040 809f	 bne         |$LN11@ActivityTi|

; 79   :                     DWORD dwSize, dwType, dwTimeout;
; 80   :                     LPCTSTR pszValueName;
; 81   : 
; 82   :                     // read the timeout, expressed in seconds
; 83   :                     dwSize = sizeof(dwTimeout);

  001d0	2304		 movs        r3,#4
  001d2	930c		 str         r3,[sp,#0x30]

; 84   :                     pszValueName = _T("Timeout");
; 85   :                     dwStatus = RegQueryValueEx(hkSubKey, pszValueName, NULL, &dwType, (LPBYTE) &dwTimeout, 
; 86   :                         &dwSize);

  001d4	ab0c		 add         r3,sp,#0x30
  001d6	9301		 str         r3,[sp,#4]
  001d8	4975		 ldr         r1,|$LN77@ActivityTi| ; =|??_C@_1BA@BKONPLFM@?$AAT?$AAi?$AAm?$AAe?$AAo?$AAu?$AAt?$AA?$AA@|
  001da	980b		 ldr         r0,[sp,#0x2C]
  001dc	ab0a		 add         r3,sp,#0x28
  001de	9300		 str         r3,[sp]
  001e0	ab09		 add         r3,sp,#0x24
  001e2	2200		 movs        r2,#0
  001e4	f000 f800	 bl          RegQueryValueExW
  001e8	4604		 mov         r4,r0

; 87   :                     if(dwStatus == ERROR_SUCCESS) {

  001ea	bb1c		 cbnz        r4,|$LN23@ActivityTi|

; 88   :                         if(dwType != REG_DWORD || dwTimeout > MAXTIMERINTERVAL) {

  001ec	9909		 ldr         r1,[sp,#0x24]
  001ee	9a0a		 ldr         r2,[sp,#0x28]
  001f0	2904		 cmp         r1,#4
  001f2	d102		 bne         |$LN21@ActivityTi|
  001f4	4b70		 ldr         r3,|$LN79@ActivityTi| ; =0x418937
  001f6	429a		 cmp         r2,r3
  001f8	d918		 bls         |$LN22@ActivityTi|
  001fa		 |$LN21@ActivityTi|

; 89   :                             PMLOGMSG(ZONE_WARN, 
; 90   :                                 (_T("%s: RegQueryValueEx('%s'\'%s') or returned invalid type %d or invalid value %d\r\n"),
; 91   :                                 pszFname, szName, pszValueName, dwType, dwTimeout));

  001fa	f8d8 3440	 ldr         r3,[r8,#0x440]
  001fe	f013 0f02	 tst         r3,#2
  00202	d012		 beq         |$LN41@ActivityTi|
  00204	4b6a		 ldr         r3,|$LN77@ActivityTi| ; =|??_C@_1BA@BKONPLFM@?$AAT?$AAi?$AAm?$AAe?$AAo?$AAu?$AAt?$AA?$AA@|
  00206	486b		 ldr         r0,|$LN78@ActivityTi| ; =|??_C@_1KA@PJKODPJA@?$AA?$CF?$AAs?$AA?3?$AA?5?$AAR?$AAe?$AAg?$AAQ?$AAu?$AAe?$AAr?$AAy?$AAV?$AAa?$AAl?$AAu?$AAe?$AAE?$AAx?$AA?$CI?$AA?8?$AA?$CF?$AAs?$AA?8?$AA?8?$AA?$CF?$AAs?$AA?8?$AA?$CJ?$AA?5?$AAo?$AAr@|
  00208	9100		 str         r1,[sp]
  0020a	4964		 ldr         r1,|$LN72@ActivityTi| ; =|??_C@_1CM@HNAHFPMO@?$AAA?$AAc?$AAt?$AAi?$AAv?$AAi?$AAt?$AAy?$AAT?$AAi?$AAm?$AAe?$AAr?$AAI?$AAn?$AAi?$AAt?$AAL?$AAi?$AAs?$AAt?$AA?$AA@|
  0020c	9201		 str         r2,[sp,#4]
  0020e	aa10		 add         r2,sp,#0x40
  00210	f000 f800	 bl          NKDbgPrintfW
  00214	9b0a		 ldr         r3,[sp,#0x28]
  00216	4961		 ldr         r1,|$LN72@ActivityTi| ; =|??_C@_1CM@HNAHFPMO@?$AAA?$AAc?$AAt?$AAi?$AAv?$AAi?$AAt?$AAy?$AAT?$AAi?$AAm?$AAe?$AAr?$AAI?$AAn?$AAi?$AAt?$AAL?$AAi?$AAs?$AAt?$AA?$AA@|
  00218	4866		 ldr         r0,|$LN78@ActivityTi| ; =|??_C@_1KA@PJKODPJA@?$AA?$CF?$AAs?$AA?3?$AA?5?$AAR?$AAe?$AAg?$AAQ?$AAu?$AAe?$AAr?$AAy?$AAV?$AAa?$AAl?$AAu?$AAe?$AAE?$AAx?$AA?$CI?$AA?8?$AA?$CF?$AAs?$AA?8?$AA?8?$AA?$CF?$AAs?$AA?8?$AA?$CJ?$AA?5?$AAo?$AAr@|
  0021a	9301		 str         r3,[sp,#4]
  0021c	9b09		 ldr         r3,[sp,#0x24]
  0021e	aa10		 add         r2,sp,#0x40
  00220	9300		 str         r3,[sp]
  00222	4b63		 ldr         r3,|$LN77@ActivityTi| ; =|??_C@_1BA@BKONPLFM@?$AAT?$AAi?$AAm?$AAe?$AAo?$AAu?$AAt?$AA?$AA@|
  00224	f000 f800	 bl          CeLogMsg
  00228	9a0a		 ldr         r2,[sp,#0x28]
  0022a		 |$LN41@ActivityTi|

; 92   :                             dwStatus = ERROR_INVALID_DATA;

  0022a	240d		 movs        r4,#0xD
  0022c		 |$LN22@ActivityTi|

; 93   :                         }
; 94   : 
; 95   :                         // convert timeout to milliseconds
; 96   :                         dwTimeout *= 1000;

  0022c	fb0a f302	 mul         r3,r10,r2
  00230	930a		 str         r3,[sp,#0x28]

; 97   :                     } else {

  00232	e02e		 b           |$LN19@ActivityTi|
  00234		 |$LN23@ActivityTi|

; 98   :                         // no timeout in seconds, try milliseconds
; 99   :                         dwSize = sizeof(dwTimeout);

  00234	2304		 movs        r3,#4
  00236	930c		 str         r3,[sp,#0x30]

; 100  :                         pszValueName = _T("TimeoutMs");
; 101  :                         dwStatus = RegQueryValueEx(hkSubKey, pszValueName, NULL, &dwType, (LPBYTE) &dwTimeout, 
; 102  :                             &dwSize);

  00238	ab0c		 add         r3,sp,#0x30
  0023a	9301		 str         r3,[sp,#4]
  0023c	495a		 ldr         r1,|$LN75@ActivityTi| ; =|??_C@_1BE@OELEEODA@?$AAT?$AAi?$AAm?$AAe?$AAo?$AAu?$AAt?$AAM?$AAs?$AA?$AA@|
  0023e	980b		 ldr         r0,[sp,#0x2C]
  00240	ab0a		 add         r3,sp,#0x28
  00242	9300		 str         r3,[sp]
  00244	ab09		 add         r3,sp,#0x24
  00246	2200		 movs        r2,#0
  00248	f000 f800	 bl          RegQueryValueExW
  0024c	4604		 mov         r4,r0

; 103  :                         if(dwStatus != ERROR_SUCCESS || dwType != REG_DWORD || dwTimeout > (MAXTIMERINTERVAL * 1000)) {

  0024e	9a0a		 ldr         r2,[sp,#0x28]
  00250	9909		 ldr         r1,[sp,#0x24]
  00252	b924		 cbnz        r4,|$LN18@ActivityTi|
  00254	2904		 cmp         r1,#4
  00256	d102		 bne         |$LN18@ActivityTi|
  00258	f512 7f94	 cmn         r2,#0x128
  0025c	d91a		 bls         |$LN61@ActivityTi|
  0025e		 |$LN18@ActivityTi|

; 104  :                             PMLOGMSG(ZONE_WARN, 
; 105  :                                 (_T("%s: RegQueryValueEx('%s'\'%s') failed %d (or returned invalid type %d or invalid value %d)\r\n"),
; 106  :                                 pszFname, szName, pszValueName, dwStatus, dwType, dwTimeout));

  0025e	f8d8 3440	 ldr         r3,[r8,#0x440]
  00262	f013 0f02	 tst         r3,#2
  00266	d013		 beq         |$LN43@ActivityTi|
  00268	4b4f		 ldr         r3,|$LN75@ActivityTi| ; =|??_C@_1BE@OELEEODA@?$AAT?$AAi?$AAm?$AAe?$AAo?$AAu?$AAt?$AAM?$AAs?$AA?$AA@|
  0026a	4850		 ldr         r0,|$LN76@ActivityTi| ; =|??_C@_1LI@OJGPOFFA@?$AA?$CF?$AAs?$AA?3?$AA?5?$AAR?$AAe?$AAg?$AAQ?$AAu?$AAe?$AAr?$AAy?$AAV?$AAa?$AAl?$AAu?$AAe?$AAE?$AAx?$AA?$CI?$AA?8?$AA?$CF?$AAs?$AA?8?$AA?8?$AA?$CF?$AAs?$AA?8?$AA?$CJ?$AA?5?$AAf?$AAa@|
  0026c	9101		 str         r1,[sp,#4]
  0026e	494b		 ldr         r1,|$LN72@ActivityTi| ; =|??_C@_1CM@HNAHFPMO@?$AAA?$AAc?$AAt?$AAi?$AAv?$AAi?$AAt?$AAy?$AAT?$AAi?$AAm?$AAe?$AAr?$AAI?$AAn?$AAi?$AAt?$AAL?$AAi?$AAs?$AAt?$AA?$AA@|
  00270	9202		 str         r2,[sp,#8]
  00272	aa10		 add         r2,sp,#0x40
  00274	9400		 str         r4,[sp]
  00276	f000 f800	 bl          NKDbgPrintfW
  0027a	9b0a		 ldr         r3,[sp,#0x28]
  0027c	4947		 ldr         r1,|$LN72@ActivityTi| ; =|??_C@_1CM@HNAHFPMO@?$AAA?$AAc?$AAt?$AAi?$AAv?$AAi?$AAt?$AAy?$AAT?$AAi?$AAm?$AAe?$AAr?$AAI?$AAn?$AAi?$AAt?$AAL?$AAi?$AAs?$AAt?$AA?$AA@|
  0027e	484b		 ldr         r0,|$LN76@ActivityTi| ; =|??_C@_1LI@OJGPOFFA@?$AA?$CF?$AAs?$AA?3?$AA?5?$AAR?$AAe?$AAg?$AAQ?$AAu?$AAe?$AAr?$AAy?$AAV?$AAa?$AAl?$AAu?$AAe?$AAE?$AAx?$AA?$CI?$AA?8?$AA?$CF?$AAs?$AA?8?$AA?8?$AA?$CF?$AAs?$AA?8?$AA?$CJ?$AA?5?$AAf?$AAa@|
  00280	9302		 str         r3,[sp,#8]
  00282	9b09		 ldr         r3,[sp,#0x24]
  00284	aa10		 add         r2,sp,#0x40
  00286	9400		 str         r4,[sp]
  00288	9301		 str         r3,[sp,#4]
  0028a	4b47		 ldr         r3,|$LN75@ActivityTi| ; =|??_C@_1BE@OELEEODA@?$AAT?$AAi?$AAm?$AAe?$AAo?$AAu?$AAt?$AAM?$AAs?$AA?$AA@|
  0028c	f000 f800	 bl          CeLogMsg
  00290		 |$LN43@ActivityTi|

; 107  :                             dwStatus = ERROR_INVALID_DATA;

  00290	240d		 movs        r4,#0xD
  00292		 |$LN19@ActivityTi|

; 108  :                         }
; 109  :                     }
; 110  : 
; 111  :                     if(dwStatus == ERROR_SUCCESS) {

  00292	bbe4		 cbnz        r4,|$LN11@ActivityTi|
  00294		 |$LN61@ActivityTi|

; 112  :                         // get wake sources
; 113  :                         dwSize = sizeof(szSources);

  00294	f44f 6300	 mov         r3,#0x800
  00298	930c		 str         r3,[sp,#0x30]

; 114  :                         pszValueName = _T("WakeSources");
; 115  :                         dwStatus = RegQueryValueEx(hkSubKey, pszValueName, NULL, &dwType, (LPBYTE) szSources, 
; 116  :                             &dwSize);

  0029a	ab0c		 add         r3,sp,#0x30
  0029c	9301		 str         r3,[sp,#4]
  0029e	980b		 ldr         r0,[sp,#0x2C]
  002a0	ab90		 add         r3,sp,#0x240
  002a2	9300		 str         r3,[sp]
  002a4	ab09		 add         r3,sp,#0x24
  002a6	2200		 movs        r2,#0
  002a8	4649		 mov         r1,r9
  002aa	f000 f800	 bl          RegQueryValueExW
  002ae	4604		 mov         r4,r0

; 117  :                         if(dwStatus != ERROR_SUCCESS) {

  002b0	b134		 cbz         r4,|$LN16@ActivityTi|

; 118  :                             // no wake sources
; 119  :                             szSources[0] = 0;

  002b2	2300		 movs        r3,#0
  002b4	f8ad 3240	 strh        r3,[sp,#0x240]

; 120  :                             szSources[1] = 0;

  002b8	f8ad 3242	 strh        r3,[sp,#0x242]

; 121  :                             dwStatus = ERROR_SUCCESS;

  002bc	2400		 movs        r4,#0
  002be	e01e		 b           |$LN13@ActivityTi|
  002c0		 |$LN16@ActivityTi|

; 122  :                         } else if(dwType != REG_MULTI_SZ) {

  002c0	9a09		 ldr         r2,[sp,#0x24]
  002c2	2a07		 cmp         r2,#7
  002c4	d016		 beq         |$LN14@ActivityTi|

; 123  :                             PMLOGMSG(ZONE_WARN, (_T("%s: invalid type %d for '%s'\'%s'\r\n"), pszFname, dwType,
; 124  :                                 szName, pszValueName));

  002c6	f8d8 3440	 ldr         r3,[r8,#0x440]
  002ca	f013 0f02	 tst         r3,#2
  002ce	d00e		 beq         |$LN49@ActivityTi|
  002d0	4932		 ldr         r1,|$LN72@ActivityTi| ; =|??_C@_1CM@HNAHFPMO@?$AAA?$AAc?$AAt?$AAi?$AAv?$AAi?$AAt?$AAy?$AAT?$AAi?$AAm?$AAe?$AAr?$AAI?$AAn?$AAi?$AAt?$AAL?$AAi?$AAs?$AAt?$AA?$AA@|
  002d2	4834		 ldr         r0,|$LN74@ActivityTi| ; =|??_C@_1EG@OELICMJG@?$AA?$CF?$AAs?$AA?3?$AA?5?$AAi?$AAn?$AAv?$AAa?$AAl?$AAi?$AAd?$AA?5?$AAt?$AAy?$AAp?$AAe?$AA?5?$AA?$CF?$AAd?$AA?5?$AAf?$AAo?$AAr?$AA?5?$AA?8?$AA?$CF?$AAs?$AA?8?$AA?8?$AA?$CF?$AAs?$AA?8@|
  002d4	ab10		 add         r3,sp,#0x40
  002d6	f8cd 9000	 str         r9,[sp]
  002da	f000 f800	 bl          NKDbgPrintfW
  002de	9a09		 ldr         r2,[sp,#0x24]
  002e0	492e		 ldr         r1,|$LN72@ActivityTi| ; =|??_C@_1CM@HNAHFPMO@?$AAA?$AAc?$AAt?$AAi?$AAv?$AAi?$AAt?$AAy?$AAT?$AAi?$AAm?$AAe?$AAr?$AAI?$AAn?$AAi?$AAt?$AAL?$AAi?$AAs?$AAt?$AA?$AA@|
  002e2	4830		 ldr         r0,|$LN74@ActivityTi| ; =|??_C@_1EG@OELICMJG@?$AA?$CF?$AAs?$AA?3?$AA?5?$AAi?$AAn?$AAv?$AAa?$AAl?$AAi?$AAd?$AA?5?$AAt?$AAy?$AAp?$AAe?$AA?5?$AA?$CF?$AAd?$AA?5?$AAf?$AAo?$AAr?$AA?5?$AA?8?$AA?$CF?$AAs?$AA?8?$AA?8?$AA?$CF?$AAs?$AA?8@|
  002e4	ab10		 add         r3,sp,#0x40
  002e6	f8cd 9000	 str         r9,[sp]
  002ea	f000 f800	 bl          CeLogMsg
  002ee		 |$LN49@ActivityTi|

; 125  :                             dwStatus = ERROR_INVALID_DATATYPE;

  002ee	f240 740c	 mov         r4,#0x70C

; 126  :                         } else {

  002f2	e00c		 b           |$LN11@ActivityTi|
  002f4		 |$LN14@ActivityTi|

; 127  :                             szSources[_countof(szSources) -1] = szSources[_countof(szSources) -2] = 0; // Terminate MultiSZ

  002f4	2300		 movs        r3,#0
  002f6	f8ad 3a3c	 strh        r3,[sp,#0xA3C]
  002fa	f8ad 3a3e	 strh        r3,[sp,#0xA3E]
  002fe		 |$LN13@ActivityTi|

; 128  :                         }
; 129  :                     }
; 130  :                     
; 131  :                     // did we get the parameters?
; 132  :                     if(dwStatus == ERROR_SUCCESS) {
; 133  :                         ppatList[dwIndex] = ActivityTimerCreate(szName, dwTimeout, szSources);

  002fe	990a		 ldr         r1,[sp,#0x28]
  00300	aa90		 add         r2,sp,#0x240
  00302	a810		 add         r0,sp,#0x40
  00304	f000 f800	 bl          ActivityTimerCreate
  00308	6038		 str         r0,[r7]

; 134  :                         if(ppatList[dwIndex] == NULL) {

  0030a	b900		 cbnz        r0,|$LN11@ActivityTi|

; 135  :                             dwStatus = ERROR_NOT_ENOUGH_MEMORY;

  0030c	2408		 movs        r4,#8
  0030e		 |$LN11@ActivityTi|

; 136  :                         }
; 137  :                     }
; 138  :                 }
; 139  :                 
; 140  :                 // release the registry key
; 141  :                 RegCloseKey(hkSubKey);

  0030e	980b		 ldr         r0,[sp,#0x2C]
  00310	f000 f800	 bl          RegCloseKey
  00314		 |$LN25@ActivityTi|

; 142  :             }
; 143  :             
; 144  :             // update the index
; 145  :             dwIndex++;

  00314	3601		 adds        r6,#1
  00316	3704		 adds        r7,#4

; 146  :         } while(dwStatus == ERROR_SUCCESS && dwIndex < dwNumTimers);

  00318	b91c		 cbnz        r4,|$LN10@ActivityTi|
  0031a	9b08		 ldr         r3,[sp,#0x20]
  0031c	429e		 cmp         r6,r3
  0031e	d205		 bcs         |$LN9@ActivityTi|
  00320	e736		 b           |$LN64@ActivityTi|
  00322		 |$LN10@ActivityTi|

; 147  : 
; 148  :         // did we read all items ok?
; 149  :         if(dwStatus == ERROR_NO_MORE_ITEMS) {

  00322	f240 1303	 mov         r3,#0x103
  00326	429c		 cmp         r4,r3
  00328	d100		 bne         |$LN9@ActivityTi|

; 150  :             dwStatus = ERROR_SUCCESS;

  0032a	2400		 movs        r4,#0
  0032c		 |$LN9@ActivityTi|

; 151  :         }
; 152  : 
; 153  :         // terminate the list with a NULL
; 154  :         ppatList[dwIndex] = NULL;

  0032c	2300		 movs        r3,#0
  0032e	f845 3026	 str         r3,[r5,r6,lsl #2]

; 155  :     }
; 156  : 
; 157  :     // did we succeed?
; 158  :     if(dwStatus == ERROR_SUCCESS) {

  00332	b184		 cbz         r4,|$LN60@ActivityTi|

; 162  :     } else {
; 163  :         DWORD dwIndex;
; 164  :         if(ppatList != NULL) {
; 165  :             for(dwIndex = 0; dwIndex < dwNumTimers; dwIndex++) {

  00334	9b08		 ldr         r3,[sp,#0x20]
  00336	2600		 movs        r6,#0
  00338	b14b		 cbz         r3,|$LN3@ActivityTi|
  0033a	462f		 mov         r7,r5
  0033c		 |$LL5@ActivityTi|
  0033c	f857 0b04	 ldr         r0,[r7],#4

; 166  :                 if(ppatList[dwIndex] != NULL) {

  00340	b110		 cbz         r0,|$LN4@ActivityTi|

; 167  :                     ActivityTimerDestroy(ppatList[dwIndex]);

  00342	f000 f800	 bl          ActivityTimerDestroy
  00346	9b08		 ldr         r3,[sp,#0x20]
  00348		 |$LN4@ActivityTi|

; 162  :     } else {
; 163  :         DWORD dwIndex;
; 164  :         if(ppatList != NULL) {
; 165  :             for(dwIndex = 0; dwIndex < dwNumTimers; dwIndex++) {

  00348	3601		 adds        r6,#1
  0034a	429e		 cmp         r6,r3
  0034c	d3f6		 bcc         |$LL5@ActivityTi|
  0034e		 |$LN3@ActivityTi|

; 168  :                 }
; 169  :             }
; 170  :             PmFree(ppatList);

  0034e	4628		 mov         r0,r5
  00350	f000 f800	 bl          PmFree
  00354	e005		 b           |$LN63@ActivityTi|
  00356		 |$LN60@ActivityTi|

; 159  :         PMLOCK();

  00356	f000 f800	 bl          PmLock

; 160  :         gppActivityTimers = ppatList;

  0035a	4b11		 ldr         r3,|$LN73@ActivityTi| ; =|gppActivityTimers|
  0035c	601d		 str         r5,[r3]

; 161  :         PMUNLOCK();

  0035e	f000 f800	 bl          PmUnlock
  00362		 |$LN63@ActivityTi|

; 171  :         }
; 172  :     }
; 173  : 
; 174  :     // release resources
; 175  :     if(hk != NULL) RegCloseKey(hk);

  00362	980d		 ldr         r0,[sp,#0x34]
  00364	b108		 cbz         r0,|$LN1@ActivityTi|
  00366	f000 f800	 bl          RegCloseKey
  0036a		 |$LN1@ActivityTi|

; 176  : 
; 177  :     PMLOGMSG(dwStatus != ERROR_SUCCESS && ZONE_WARN,
; 178  :         (_T("%s: returning %d\r\n"), pszFname, dwStatus));

  0036a	b174		 cbz         r4,|$LN53@ActivityTi|
  0036c	f8d8 3440	 ldr         r3,[r8,#0x440]
  00370	f013 0f02	 tst         r3,#2
  00374	d009		 beq         |$LN53@ActivityTi|
  00376	4909		 ldr         r1,|$LN72@ActivityTi| ; =|??_C@_1CM@HNAHFPMO@?$AAA?$AAc?$AAt?$AAi?$AAv?$AAi?$AAt?$AAy?$AAT?$AAi?$AAm?$AAe?$AAr?$AAI?$AAn?$AAi?$AAt?$AAL?$AAi?$AAs?$AAt?$AA?$AA@|
  00378	4807		 ldr         r0,|$LN71@ActivityTi| ; =|??_C@_1CG@EPNLEKEF@?$AA?$CF?$AAs?$AA?3?$AA?5?$AAr?$AAe?$AAt?$AAu?$AAr?$AAn?$AAi?$AAn?$AAg?$AA?5?$AA?$CF?$AAd?$AA?$AN?$AA?6?$AA?$AA@|
  0037a	4622		 mov         r2,r4
  0037c	f000 f800	 bl          NKDbgPrintfW
  00380	4906		 ldr         r1,|$LN72@ActivityTi| ; =|??_C@_1CM@HNAHFPMO@?$AAA?$AAc?$AAt?$AAi?$AAv?$AAi?$AAt?$AAy?$AAT?$AAi?$AAm?$AAe?$AAr?$AAI?$AAn?$AAi?$AAt?$AAL?$AAi?$AAs?$AAt?$AA?$AA@|
  00382	4805		 ldr         r0,|$LN71@ActivityTi| ; =|??_C@_1CG@EPNLEKEF@?$AA?$CF?$AAs?$AA?3?$AA?5?$AAr?$AAe?$AAt?$AAu?$AAr?$AAn?$AAi?$AAn?$AAg?$AA?5?$AA?$CF?$AAd?$AA?$AN?$AA?6?$AA?$AA@|
  00384	4622		 mov         r2,r4
  00386	f000 f800	 bl          CeLogMsg
  0038a		 |$LN53@ActivityTi|

; 179  :     return dwStatus;
; 180  : }

  0038a	4620		 mov         r0,r4
  0038c		 |$M69|
  0038c	f60d 2d40	 addw        sp,sp,#0xA40
  00390	f000 f800	 bl          __security_pop_cookie
  00394	e8bd 8ff0	 pop         {r4-r11,pc}
  00398		 |$LN70@ActivityTi|
  00398		 |$LN71@ActivityTi|
  00398	0000 0000	 DCD         |??_C@_1CG@EPNLEKEF@?$AA?$CF?$AAs?$AA?3?$AA?5?$AAr?$AAe?$AAt?$AAu?$AAr?$AAn?$AAi?$AAn?$AAg?$AA?5?$AA?$CF?$AAd?$AA?$AN?$AA?6?$AA?$AA@|
  0039c		 |$LN72@ActivityTi|
  0039c	0000 0000	 DCD         |??_C@_1CM@HNAHFPMO@?$AAA?$AAc?$AAt?$AAi?$AAv?$AAi?$AAt?$AAy?$AAT?$AAi?$AAm?$AAe?$AAr?$AAI?$AAn?$AAi?$AAt?$AAL?$AAi?$AAs?$AAt?$AA?$AA@|
  003a0		 |$LN73@ActivityTi|
  003a0	0000 0000	 DCD         |gppActivityTimers|
  003a4		 |$LN74@ActivityTi|
  003a4	0000 0000	 DCD         |??_C@_1EG@OELICMJG@?$AA?$CF?$AAs?$AA?3?$AA?5?$AAi?$AAn?$AAv?$AAa?$AAl?$AAi?$AAd?$AA?5?$AAt?$AAy?$AAp?$AAe?$AA?5?$AA?$CF?$AAd?$AA?5?$AAf?$AAo?$AAr?$AA?5?$AA?8?$AA?$CF?$AAs?$AA?8?$AA?8?$AA?$CF?$AAs?$AA?8@|
  003a8		 |$LN75@ActivityTi|
  003a8	0000 0000	 DCD         |??_C@_1BE@OELEEODA@?$AAT?$AAi?$AAm?$AAe?$AAo?$AAu?$AAt?$AAM?$AAs?$AA?$AA@|
  003ac		 |$LN76@ActivityTi|
  003ac	0000 0000	 DCD         |??_C@_1LI@OJGPOFFA@?$AA?$CF?$AAs?$AA?3?$AA?5?$AAR?$AAe?$AAg?$AAQ?$AAu?$AAe?$AAr?$AAy?$AAV?$AAa?$AAl?$AAu?$AAe?$AAE?$AAx?$AA?$CI?$AA?8?$AA?$CF?$AAs?$AA?8?$AA?8?$AA?$CF?$AAs?$AA?8?$AA?$CJ?$AA?5?$AAf?$AAa@|
  003b0		 |$LN77@ActivityTi|
  003b0	0000 0000	 DCD         |??_C@_1BA@BKONPLFM@?$AAT?$AAi?$AAm?$AAe?$AAo?$AAu?$AAt?$AA?$AA@|
  003b4		 |$LN78@ActivityTi|
  003b4	0000 0000	 DCD         |??_C@_1KA@PJKODPJA@?$AA?$CF?$AAs?$AA?3?$AA?5?$AAR?$AAe?$AAg?$AAQ?$AAu?$AAe?$AAr?$AAy?$AAV?$AAa?$AAl?$AAu?$AAe?$AAE?$AAx?$AA?$CI?$AA?8?$AA?$CF?$AAs?$AA?8?$AA?8?$AA?$CF?$AAs?$AA?8?$AA?$CJ?$AA?5?$AAo?$AAr@|
  003b8		 |$LN79@ActivityTi|
  003b8	8937 0041	 DCD         0x418937
  003bc		 |$LN80@ActivityTi|
  003bc	0000 0000	 DCD         |??_C@_1BI@HFHFECPN@?$AAW?$AAa?$AAk?$AAe?$AAS?$AAo?$AAu?$AAr?$AAc?$AAe?$AAs?$AA?$AA@|
  003c0		 |$LN81@ActivityTi|
  003c0	0000 0000	 DCD         |??_C@_1EE@BIOIIFOI@?$AA?$CF?$AAs?$AA?3?$AA?5?$AAc?$AAo?$AAu?$AAl?$AAd?$AAn?$AA?8?$AAt?$AA?5?$AAa?$AAl?$AAl?$AAo?$AAc?$AAa?$AAt?$AAe?$AA?5?$AA?$CF?$AAd?$AA?5?$AAt?$AAi?$AAm?$AAe?$AAr?$AAs?$AA?$AN@|
  003c4		 |$LN82@ActivityTi|
  003c4	0000 0000	 DCD         |dpCurSettings|
  003c8		 |$LN83@ActivityTi|
  003c8	0000 0000	 DCD         |??_C@_1FK@FNONLNGN@?$AA?$CF?$AAs?$AA?3?$AA?5?$AAD?$AAE?$AAB?$AAU?$AAG?$AAC?$AAH?$AAK?$AA?5?$AAf?$AAa?$AAi?$AAl?$AAe?$AAd?$AA?5?$AAi?$AAn?$AA?5?$AAf?$AAi?$AAl?$AAe?$AA?5?$AA?$CF?$AAs?$AA?5?$AAa@|
  003cc		 |$LN84@ActivityTi|
  003cc	0000 0000	 DCD         |??_C@_1BA@LEPJIIOK@?$AAU?$AAn?$AAk?$AAn?$AAo?$AAw?$AAn?$AA?$AA@|
  003d0		 |$LN85@ActivityTi|
  003d0	0000 0000	 DCD         |??_C@_1II@KJFLGGMG@?$AAc?$AA?3?$AA?2?$AAw?$AAi?$AAn?$AAc?$AAe?$AA8?$AA0?$AA0?$AA?2?$AAp?$AAl?$AAa?$AAt?$AAf?$AAo?$AAr?$AAm?$AA?2?$AAr?$AAr?$AAm?$AA_?$AAp?$AAp?$AAc?$AA_?$AAw?$AAi?$AAn@|
  003d4		 |$LN86@ActivityTi|
  003d4	0000 0000	 DCD         |??_C@_1EO@PFEFPDAL@?$AAS?$AAY?$AAS?$AAT?$AAE?$AAM?$AA?2?$AAC?$AAu?$AAr?$AAr?$AAe?$AAn?$AAt?$AAC?$AAo?$AAn?$AAt?$AAr?$AAo?$AAl?$AAS?$AAe?$AAt?$AA?2?$AAC?$AAo?$AAn?$AAt?$AAr?$AAo?$AAl@|
  003d8		 |$LN87@ActivityTi|
  003d8	0000 0000	 DCD         |??_C@_1CE@PFHECECI@?$AA?$CF?$AAs?$AA?2?$AAA?$AAc?$AAt?$AAi?$AAv?$AAi?$AAt?$AAy?$AAT?$AAi?$AAm?$AAe?$AAr?$AAs?$AA?$AA@|
  003dc		 |$M67|

			 ENDP  ; |?ActivityTimerInitList@@YAKXZ|, ActivityTimerInitList

	EXPORT	|??_C@_1CK@KPKINJCK@?$AA?$CL?$AA?$CF?$AAs?$AA?3?$AA?5?$AAt?$AAh?$AAr?$AAe?$AAa?$AAd?$AA?5?$AA0?$AAx?$AA?$CF?$AA0?$AA8?$AAx?$AA?$AN?$AA?6?$AA?$AA@| [ DATA ] ; `string'
	EXPORT	|??_C@_1DC@PONLJKJA@?$AAA?$AAc?$AAt?$AAi?$AAv?$AAi?$AAt?$AAy?$AAT?$AAi?$AAm?$AAe?$AAr?$AAs?$AAT?$AAh?$AAr?$AAe?$AAa?$AAd?$AAP?$AAr?$AAo?$AAc?$AA?$AA@| [ DATA ] ; `string'
	EXPORT	|??_C@_1CC@CNEGHLPH@?$AAT?$AAi?$AAm?$AAe?$AAr?$AAP?$AAr?$AAi?$AAo?$AAr?$AAi?$AAt?$AAy?$AA2?$AA5?$AA6?$AA?$AA@| [ DATA ] ; `string'
	EXPORT	|??_C@_1EK@ICLAIDMF@?$AA?$CF?$AAs?$AA?3?$AA?5?$AAA?$AAc?$AAt?$AAi?$AAv?$AAi?$AAt?$AAy?$AAT?$AAi?$AAm?$AAe?$AAr?$AAI?$AAn?$AAi?$AAt?$AAL?$AAi?$AAs?$AAt?$AA?$CI?$AA?$CJ?$AA?5?$AAf?$AAa?$AAi?$AAl@| [ DATA ] ; `string'
	EXPORT	|??_C@_1EE@COCBKOJP@?$AA?$CF?$AAs?$AA?3?$AA?5?$AAC?$AAo?$AAu?$AAl?$AAd?$AAn?$AA?8?$AAt?$AA?5?$AAc?$AAr?$AAe?$AAa?$AAt?$AAe?$AA?5?$AAd?$AAu?$AAm?$AAm?$AAy?$AA?5?$AAe?$AAv?$AAe?$AAn?$AAt?$AA?$AN@| [ DATA ] ; `string'
	EXPORT	|??_C@_1FE@EDIGHKLF@?$AA?$CF?$AAs?$AA?3?$AA?5?$AAn?$AAo?$AA?5?$AAa?$AAc?$AAt?$AAi?$AAv?$AAi?$AAt?$AAy?$AA?5?$AAt?$AAi?$AAm?$AAe?$AAr?$AAs?$AA?5?$AAd?$AAe?$AAf?$AAi?$AAn?$AAe?$AAd?$AA?0?$AA?5@| [ DATA ] ; `string'
	EXPORT	|??_C@_1FE@OEAHGMJG@?$AA?$CF?$AAs?$AA?3?$AA?5?$AAe?$AAn?$AAt?$AAe?$AAr?$AAi?$AAn?$AAg?$AA?5?$AAw?$AAa?$AAi?$AAt?$AA?5?$AAl?$AAo?$AAo?$AAp?$AA?0?$AA?5?$AA?$CF?$AAd?$AA?5?$AAt?$AAi?$AAm?$AAe?$AAr@| [ DATA ] ; `string'
	EXPORT	|??_C@_1IE@KDGOPIKP@?$AA?$CF?$AAs?$AA?3?$AA?5?$AAw?$AAa?$AAi?$AAt?$AAi?$AAn?$AAg?$AA?5?$AA?$CF?$AAu?$AA?5?$AA?$CI?$AA0?$AAx?$AA?$CF?$AA0?$AA8?$AAx?$AA?$CJ?$AA?5?$AAm?$AAs?$AA?5?$AAf?$AAo?$AAr?$AA?5?$AAn@| [ DATA ] ; `string'
	EXPORT	|??_C@_1CO@NMLNBMDI@?$AA?$CF?$AAs?$AA?3?$AA?5?$AAr?$AAe?$AAs?$AAu?$AAm?$AAe?$AA?5?$AAe?$AAv?$AAe?$AAn?$AAt?$AA?5?$AAs?$AAe?$AAt?$AA?$AN?$AA?6?$AA?$AA@| [ DATA ] ; `string'
	EXPORT	|??_C@_1EK@BCGDOJNJ@?$AA?$CF?$AAs?$AA?3?$AA?5?$AAt?$AAi?$AAm?$AAe?$AAr?$AA?5?$AA?8?$AA?$CF?$AAs?$AA?8?$AA?5?$AAr?$AAe?$AAs?$AAe?$AAt?$AA?5?$AAa?$AAf?$AAt?$AAe?$AAr?$AA?5?$AAt?$AAi?$AAm?$AAe?$AAo@| [ DATA ] ; `string'
	EXPORT	|??_C@_1DK@FBOGKBMA@?$AA?$CF?$AAs?$AA?3?$AA?5?$AAt?$AAi?$AAm?$AAe?$AAr?$AA?5?$AA?8?$AA?$CF?$AAs?$AA?8?$AA?5?$AAh?$AAa?$AAs?$AA?5?$AAe?$AAx?$AAp?$AAi?$AAr?$AAe?$AAd?$AA?$AN?$AA?6?$AA?$AA@| [ DATA ] ; `string'
	EXPORT	|??_C@_1CO@PLDCBMAK@?$AA?$CF?$AAs?$AA?3?$AA?5?$AAt?$AAi?$AAm?$AAe?$AAr?$AA?5?$AA?8?$AA?$CF?$AAs?$AA?8?$AA?5?$AAr?$AAe?$AAs?$AAe?$AAt?$AA?$AN?$AA?6?$AA?$AA@| [ DATA ] ; `string'
	EXPORT	|??_C@_1HC@LPAHHGNK@?$AA?$CF?$AAs?$AA?3?$AA?5?$AAW?$AAa?$AAi?$AAt?$AAF?$AAo?$AAr?$AAM?$AAu?$AAl?$AAt?$AAi?$AAp?$AAl?$AAe?$AAO?$AAb?$AAj?$AAe?$AAc?$AAt?$AAs?$AA?$CI?$AA?$CJ?$AA?5?$AAr?$AAe?$AAt@| [ DATA ] ; `string'
	EXPORT	|??_C@_1DC@FJNGMGD@?$AA?$CF?$AAs?$AA?3?$AA?5?$AAs?$AAh?$AAu?$AAt?$AAd?$AAo?$AAw?$AAn?$AA?5?$AAe?$AAv?$AAe?$AAn?$AAt?$AA?5?$AAs?$AAe?$AAt?$AA?$AN?$AA?6?$AA?$AA@| [ DATA ] ; `string'
	EXPORT	|??_C@_1BO@HFODHNIK@?$AA?9?$AA?$CF?$AAs?$AA?3?$AA?5?$AAe?$AAx?$AAi?$AAt?$AAi?$AAn?$AAg?$AA?$AN?$AA?6?$AA?$AA@| [ DATA ] ; `string'
	EXPORT	|ActivityTimersThreadProc|
	IMPORT	|GetPMThreadPriority|
	IMPORT	|CeSetThreadPriority|
	IMPORT	|CreateEventW|
	IMPORT	|ghevPmShutdown|
	IMPORT	|ghevTimerResume|
	IMPORT	|Sleep|
	IMPORT	|GetTickCount|
	IMPORT	|WaitForMultipleObjects|
	IMPORT	|WaitForSingleObject|
	IMPORT	|GetLastError|
	IMPORT	|CloseHandle|

  00018			 AREA	 |.pdata|, PDATA
|$pdata1$ActivityTimersThreadProc| DCD imagerel |$LN131@ActivityTi|
	DCD	0x11f6087d

  00000			 AREA	 |.rdata|, DATA, READONLY
|??_C@_1BO@HFODHNIK@?$AA?9?$AA?$CF?$AAs?$AA?3?$AA?5?$AAe?$AAx?$AAi?$AAt?$AAi?$AAn?$AAg?$AA?$AN?$AA?6?$AA?$AA@| DCB "-"
	DCB	0x0, "%", 0x0, "s", 0x0, ":", 0x0, " ", 0x0, "e", 0x0, "x"
	DCB	0x0, "i", 0x0, "t", 0x0, "i", 0x0, "n", 0x0, "g", 0x0, 0xd
	DCB	0x0, 0xa, 0x0, 0x0, 0x0			; `string'

  00000			 AREA	 |.rdata|, DATA, READONLY
|??_C@_1DC@FJNGMGD@?$AA?$CF?$AAs?$AA?3?$AA?5?$AAs?$AAh?$AAu?$AAt?$AAd?$AAo?$AAw?$AAn?$AA?5?$AAe?$AAv?$AAe?$AAn?$AAt?$AA?5?$AAs?$AAe?$AAt?$AA?$AN?$AA?6?$AA?$AA@| DCB "%"
	DCB	0x0, "s", 0x0, ":", 0x0, " ", 0x0, "s", 0x0, "h", 0x0, "u"
	DCB	0x0, "t", 0x0, "d", 0x0, "o", 0x0, "w", 0x0, "n", 0x0, " "
	DCB	0x0, "e", 0x0, "v", 0x0, "e", 0x0, "n", 0x0, "t", 0x0, " "
	DCB	0x0, "s", 0x0, "e", 0x0, "t", 0x0, 0xd, 0x0, 0xa, 0x0, 0x0
	DCB	0x0					; `string'

  00000			 AREA	 |.rdata|, DATA, READONLY
|??_C@_1HC@LPAHHGNK@?$AA?$CF?$AAs?$AA?3?$AA?5?$AAW?$AAa?$AAi?$AAt?$AAF?$AAo?$AAr?$AAM?$AAu?$AAl?$AAt?$AAi?$AAp?$AAl?$AAe?$AAO?$AAb?$AAj?$AAe?$AAc?$AAt?$AAs?$AA?$CI?$AA?$CJ?$AA?5?$AAr?$AAe?$AAt@| DCB "%"
	DCB	0x0, "s", 0x0, ":", 0x0, " ", 0x0, "W", 0x0, "a", 0x0, "i"
	DCB	0x0, "t", 0x0, "F", 0x0, "o", 0x0, "r", 0x0, "M", 0x0, "u"
	DCB	0x0, "l", 0x0, "t", 0x0, "i", 0x0, "p", 0x0, "l", 0x0, "e"
	DCB	0x0, "O", 0x0, "b", 0x0, "j", 0x0, "e", 0x0, "c", 0x0, "t"
	DCB	0x0, "s", 0x0, "(", 0x0, ")", 0x0, " ", 0x0, "r", 0x0, "e"
	DCB	0x0, "t", 0x0, "u", 0x0, "r", 0x0, "n", 0x0, "e", 0x0, "d"
	DCB	0x0, " ", 0x0, "%", 0x0, "d", 0x0, ",", 0x0, " ", 0x0, "s"
	DCB	0x0, "t", 0x0, "a", 0x0, "t", 0x0, "u", 0x0, "s", 0x0, " "
	DCB	0x0, "i", 0x0, "s", 0x0, " ", 0x0, "%", 0x0, "d", 0x0, 0xd
	DCB	0x0, 0xa, 0x0, 0x0, 0x0			; `string'

  00000			 AREA	 |.rdata|, DATA, READONLY
|??_C@_1CO@PLDCBMAK@?$AA?$CF?$AAs?$AA?3?$AA?5?$AAt?$AAi?$AAm?$AAe?$AAr?$AA?5?$AA?8?$AA?$CF?$AAs?$AA?8?$AA?5?$AAr?$AAe?$AAs?$AAe?$AAt?$AA?$AN?$AA?6?$AA?$AA@| DCB "%"
	DCB	0x0, "s", 0x0, ":", 0x0, " ", 0x0, "t", 0x0, "i", 0x0, "m"
	DCB	0x0, "e", 0x0, "r", 0x0, " ", 0x0, "'", 0x0, "%", 0x0, "s"
	DCB	0x0, "'", 0x0, " ", 0x0, "r", 0x0, "e", 0x0, "s", 0x0, "e"
	DCB	0x0, "t", 0x0, 0xd, 0x0, 0xa, 0x0, 0x0, 0x0 ; `string'

  00000			 AREA	 |.rdata|, DATA, READONLY
|??_C@_1DK@FBOGKBMA@?$AA?$CF?$AAs?$AA?3?$AA?5?$AAt?$AAi?$AAm?$AAe?$AAr?$AA?5?$AA?8?$AA?$CF?$AAs?$AA?8?$AA?5?$AAh?$AAa?$AAs?$AA?5?$AAe?$AAx?$AAp?$AAi?$AAr?$AAe?$AAd?$AA?$AN?$AA?6?$AA?$AA@| DCB "%"
	DCB	0x0, "s", 0x0, ":", 0x0, " ", 0x0, "t", 0x0, "i", 0x0, "m"
	DCB	0x0, "e", 0x0, "r", 0x0, " ", 0x0, "'", 0x0, "%", 0x0, "s"
	DCB	0x0, "'", 0x0, " ", 0x0, "h", 0x0, "a", 0x0, "s", 0x0, " "
	DCB	0x0, "e", 0x0, "x", 0x0, "p", 0x0, "i", 0x0, "r", 0x0, "e"
	DCB	0x0, "d", 0x0, 0xd, 0x0, 0xa, 0x0, 0x0, 0x0 ; `string'

  00000			 AREA	 |.rdata|, DATA, READONLY
|??_C@_1EK@BCGDOJNJ@?$AA?$CF?$AAs?$AA?3?$AA?5?$AAt?$AAi?$AAm?$AAe?$AAr?$AA?5?$AA?8?$AA?$CF?$AAs?$AA?8?$AA?5?$AAr?$AAe?$AAs?$AAe?$AAt?$AA?5?$AAa?$AAf?$AAt?$AAe?$AAr?$AA?5?$AAt?$AAi?$AAm?$AAe?$AAo@| DCB "%"
	DCB	0x0, "s", 0x0, ":", 0x0, " ", 0x0, "t", 0x0, "i", 0x0, "m"
	DCB	0x0, "e", 0x0, "r", 0x0, " ", 0x0, "'", 0x0, "%", 0x0, "s"
	DCB	0x0, "'", 0x0, " ", 0x0, "r", 0x0, "e", 0x0, "s", 0x0, "e"
	DCB	0x0, "t", 0x0, " ", 0x0, "a", 0x0, "f", 0x0, "t", 0x0, "e"
	DCB	0x0, "r", 0x0, " ", 0x0, "t", 0x0, "i", 0x0, "m", 0x0, "e"
	DCB	0x0, "o", 0x0, "u", 0x0, "t", 0x0, 0xd, 0x0, 0xa, 0x0, 0x0
	DCB	0x0					; `string'

  00000			 AREA	 |.rdata|, DATA, READONLY
|??_C@_1CO@NMLNBMDI@?$AA?$CF?$AAs?$AA?3?$AA?5?$AAr?$AAe?$AAs?$AAu?$AAm?$AAe?$AA?5?$AAe?$AAv?$AAe?$AAn?$AAt?$AA?5?$AAs?$AAe?$AAt?$AA?$AN?$AA?6?$AA?$AA@| DCB "%"
	DCB	0x0, "s", 0x0, ":", 0x0, " ", 0x0, "r", 0x0, "e", 0x0, "s"
	DCB	0x0, "u", 0x0, "m", 0x0, "e", 0x0, " ", 0x0, "e", 0x0, "v"
	DCB	0x0, "e", 0x0, "n", 0x0, "t", 0x0, " ", 0x0, "s", 0x0, "e"
	DCB	0x0, "t", 0x0, 0xd, 0x0, 0xa, 0x0, 0x0, 0x0 ; `string'

  00000			 AREA	 |.rdata|, DATA, READONLY
|??_C@_1IE@KDGOPIKP@?$AA?$CF?$AAs?$AA?3?$AA?5?$AAw?$AAa?$AAi?$AAt?$AAi?$AAn?$AAg?$AA?5?$AA?$CF?$AAu?$AA?5?$AA?$CI?$AA0?$AAx?$AA?$CF?$AA0?$AA8?$AAx?$AA?$CJ?$AA?5?$AAm?$AAs?$AA?5?$AAf?$AAo?$AAr?$AA?5?$AAn@| DCB "%"
	DCB	0x0, "s", 0x0, ":", 0x0, " ", 0x0, "w", 0x0, "a", 0x0, "i"
	DCB	0x0, "t", 0x0, "i", 0x0, "n", 0x0, "g", 0x0, " ", 0x0, "%"
	DCB	0x0, "u", 0x0, " ", 0x0, "(", 0x0, "0", 0x0, "x", 0x0, "%"
	DCB	0x0, "0", 0x0, "8", 0x0, "x", 0x0, ")", 0x0, " ", 0x0, "m"
	DCB	0x0, "s", 0x0, " ", 0x0, "f", 0x0, "o", 0x0, "r", 0x0, " "
	DCB	0x0, "n", 0x0, "e", 0x0, "x", 0x0, "t", 0x0, " ", 0x0, "e"
	DCB	0x0, "v", 0x0, "e", 0x0, "n", 0x0, "t", 0x0, ",", 0x0, " "
	DCB	0x0, "w", 0x0, "a", 0x0, "i", 0x0, "t", 0x0, " ", 0x0, "i"
	DCB	0x0, "n", 0x0, "t", 0x0, "e", 0x0, "r", 0x0, "v", 0x0, "a"
	DCB	0x0, "l", 0x0, " ", 0x0, "w", 0x0, "a", 0x0, "s", 0x0, " "
	DCB	0x0, "%", 0x0, "d", 0x0, 0xd, 0x0, 0xa, 0x0, 0x0, 0x0 ; `string'

  00000			 AREA	 |.rdata|, DATA, READONLY
|??_C@_1FE@OEAHGMJG@?$AA?$CF?$AAs?$AA?3?$AA?5?$AAe?$AAn?$AAt?$AAe?$AAr?$AAi?$AAn?$AAg?$AA?5?$AAw?$AAa?$AAi?$AAt?$AA?5?$AAl?$AAo?$AAo?$AAp?$AA?0?$AA?5?$AA?$CF?$AAd?$AA?5?$AAt?$AAi?$AAm?$AAe?$AAr@| DCB "%"
	DCB	0x0, "s", 0x0, ":", 0x0, " ", 0x0, "e", 0x0, "n", 0x0, "t"
	DCB	0x0, "e", 0x0, "r", 0x0, "i", 0x0, "n", 0x0, "g", 0x0, " "
	DCB	0x0, "w", 0x0, "a", 0x0, "i", 0x0, "t", 0x0, " ", 0x0, "l"
	DCB	0x0, "o", 0x0, "o", 0x0, "p", 0x0, ",", 0x0, " ", 0x0, "%"
	DCB	0x0, "d", 0x0, " ", 0x0, "t", 0x0, "i", 0x0, "m", 0x0, "e"
	DCB	0x0, "r", 0x0, "s", 0x0, " ", 0x0, "t", 0x0, "o", 0x0, "t"
	DCB	0x0, "a", 0x0, "l", 0x0, 0xd, 0x0, 0xa, 0x0, 0x0, 0x0 ; `string'

  00000			 AREA	 |.rdata|, DATA, READONLY
|??_C@_1FE@EDIGHKLF@?$AA?$CF?$AAs?$AA?3?$AA?5?$AAn?$AAo?$AA?5?$AAa?$AAc?$AAt?$AAi?$AAv?$AAi?$AAt?$AAy?$AA?5?$AAt?$AAi?$AAm?$AAe?$AAr?$AAs?$AA?5?$AAd?$AAe?$AAf?$AAi?$AAn?$AAe?$AAd?$AA?0?$AA?5@| DCB "%"
	DCB	0x0, "s", 0x0, ":", 0x0, " ", 0x0, "n", 0x0, "o", 0x0, " "
	DCB	0x0, "a", 0x0, "c", 0x0, "t", 0x0, "i", 0x0, "v", 0x0, "i"
	DCB	0x0, "t", 0x0, "y", 0x0, " ", 0x0, "t", 0x0, "i", 0x0, "m"
	DCB	0x0, "e", 0x0, "r", 0x0, "s", 0x0, " ", 0x0, "d", 0x0, "e"
	DCB	0x0, "f", 0x0, "i", 0x0, "n", 0x0, "e", 0x0, "d", 0x0, ","
	DCB	0x0, " ", 0x0, "e", 0x0, "x", 0x0, "i", 0x0, "t", 0x0, "i"
	DCB	0x0, "n", 0x0, "g", 0x0, 0xd, 0x0, 0xa, 0x0, 0x0, 0x0 ; `string'

  00000			 AREA	 |.rdata|, DATA, READONLY
|??_C@_1EE@COCBKOJP@?$AA?$CF?$AAs?$AA?3?$AA?5?$AAC?$AAo?$AAu?$AAl?$AAd?$AAn?$AA?8?$AAt?$AA?5?$AAc?$AAr?$AAe?$AAa?$AAt?$AAe?$AA?5?$AAd?$AAu?$AAm?$AAm?$AAy?$AA?5?$AAe?$AAv?$AAe?$AAn?$AAt?$AA?$AN@| DCB "%"
	DCB	0x0, "s", 0x0, ":", 0x0, " ", 0x0, "C", 0x0, "o", 0x0, "u"
	DCB	0x0, "l", 0x0, "d", 0x0, "n", 0x0, "'", 0x0, "t", 0x0, " "
	DCB	0x0, "c", 0x0, "r", 0x0, "e", 0x0, "a", 0x0, "t", 0x0, "e"
	DCB	0x0, " ", 0x0, "d", 0x0, "u", 0x0, "m", 0x0, "m", 0x0, "y"
	DCB	0x0, " ", 0x0, "e", 0x0, "v", 0x0, "e", 0x0, "n", 0x0, "t"
	DCB	0x0, 0xd, 0x0, 0xa, 0x0, 0x0, 0x0	; `string'

  00000			 AREA	 |.rdata|, DATA, READONLY
|??_C@_1EK@ICLAIDMF@?$AA?$CF?$AAs?$AA?3?$AA?5?$AAA?$AAc?$AAt?$AAi?$AAv?$AAi?$AAt?$AAy?$AAT?$AAi?$AAm?$AAe?$AAr?$AAI?$AAn?$AAi?$AAt?$AAL?$AAi?$AAs?$AAt?$AA?$CI?$AA?$CJ?$AA?5?$AAf?$AAa?$AAi?$AAl@| DCB "%"
	DCB	0x0, "s", 0x0, ":", 0x0, " ", 0x0, "A", 0x0, "c", 0x0, "t"
	DCB	0x0, "i", 0x0, "v", 0x0, "i", 0x0, "t", 0x0, "y", 0x0, "T"
	DCB	0x0, "i", 0x0, "m", 0x0, "e", 0x0, "r", 0x0, "I", 0x0, "n"
	DCB	0x0, "i", 0x0, "t", 0x0, "L", 0x0, "i", 0x0, "s", 0x0, "t"
	DCB	0x0, "(", 0x0, ")", 0x0, " ", 0x0, "f", 0x0, "a", 0x0, "i"
	DCB	0x0, "l", 0x0, "e", 0x0, "d", 0x0, 0xd, 0x0, 0xa, 0x0, 0x0
	DCB	0x0					; `string'

  00000			 AREA	 |.rdata|, DATA, READONLY
|??_C@_1CC@CNEGHLPH@?$AAT?$AAi?$AAm?$AAe?$AAr?$AAP?$AAr?$AAi?$AAo?$AAr?$AAi?$AAt?$AAy?$AA2?$AA5?$AA6?$AA?$AA@| DCB "T"
	DCB	0x0, "i", 0x0, "m", 0x0, "e", 0x0, "r", 0x0, "P", 0x0, "r"
	DCB	0x0, "i", 0x0, "o", 0x0, "r", 0x0, "i", 0x0, "t", 0x0, "y"
	DCB	0x0, "2", 0x0, "5", 0x0, "6", 0x0, 0x0, 0x0 ; `string'

  00000			 AREA	 |.rdata|, DATA, READONLY
|??_C@_1DC@PONLJKJA@?$AAA?$AAc?$AAt?$AAi?$AAv?$AAi?$AAt?$AAy?$AAT?$AAi?$AAm?$AAe?$AAr?$AAs?$AAT?$AAh?$AAr?$AAe?$AAa?$AAd?$AAP?$AAr?$AAo?$AAc?$AA?$AA@| DCB "A"
	DCB	0x0, "c", 0x0, "t", 0x0, "i", 0x0, "v", 0x0, "i", 0x0, "t"
	DCB	0x0, "y", 0x0, "T", 0x0, "i", 0x0, "m", 0x0, "e", 0x0, "r"
	DCB	0x0, "s", 0x0, "T", 0x0, "h", 0x0, "r", 0x0, "e", 0x0, "a"
	DCB	0x0, "d", 0x0, "P", 0x0, "r", 0x0, "o", 0x0, "c", 0x0, 0x0
	DCB	0x0					; `string'

  00000			 AREA	 |.rdata|, DATA, READONLY
|??_C@_1CK@KPKINJCK@?$AA?$CL?$AA?$CF?$AAs?$AA?3?$AA?5?$AAt?$AAh?$AAr?$AAe?$AAa?$AAd?$AA?5?$AA0?$AAx?$AA?$CF?$AA0?$AA8?$AAx?$AA?$AN?$AA?6?$AA?$AA@| DCB "+"
	DCB	0x0, "%", 0x0, "s", 0x0, ":", 0x0, " ", 0x0, "t", 0x0, "h"
	DCB	0x0, "r", 0x0, "e", 0x0, "a", 0x0, "d", 0x0, " ", 0x0, "0"
	DCB	0x0, "x", 0x0, "%", 0x0, "0", 0x0, "8", 0x0, "x", 0x0, 0xd
	DCB	0x0, 0xa, 0x0, 0x0, 0x0			; `string'
; Function compile flags: /Ogsp
; File c:\wince800\platform\rrm_ppc_windows\src\drivers\pm\mdd\pmtimer.cpp
; File c:\wince800\public\common\sdk\inc\kfuncs.h
; File c:\wince800\platform\rrm_ppc_windows\src\drivers\pm\mdd\pmtimer.cpp
; File c:\wince800\public\common\sdk\inc\kfuncs.h
; File c:\wince800\platform\rrm_ppc_windows\src\drivers\pm\mdd\pmtimer.cpp
; File c:\wince800\public\common\sdk\inc\kfuncs.h
; File c:\wince800\platform\rrm_ppc_windows\src\drivers\pm\mdd\pmtimer.cpp
; File c:\wince800\public\common\sdk\inc\kfuncs.h
; File c:\wince800\platform\rrm_ppc_windows\src\drivers\pm\mdd\pmtimer.cpp
; File c:\wince800\public\common\sdk\inc\kfuncs.h
; File c:\wince800\platform\rrm_ppc_windows\src\drivers\pm\mdd\pmtimer.cpp
; File c:\wince800\public\common\sdk\inc\kfuncs.h
; File c:\wince800\platform\rrm_ppc_windows\src\drivers\pm\mdd\pmtimer.cpp
; File c:\wince800\public\common\sdk\inc\kfuncs.h
; File c:\wince800\platform\rrm_ppc_windows\src\drivers\pm\mdd\pmtimer.cpp
; File c:\wince800\public\common\sdk\inc\kfuncs.h
; File c:\wince800\platform\rrm_ppc_windows\src\drivers\pm\mdd\pmtimer.cpp

  003dc			 AREA	 |.text|, CODE, THUMB

  003dc		 |ActivityTimersThreadProc| PROC

; 219  : {

  003dc		 |$LN131@ActivityTi|
  003dc	e92d 4ff0	 push        {r4-r11,lr}
  003e0	f20d 0b1c	 addw        r11,sp,#0x1C
  003e4	b0c7		 sub         sp,sp,#0x11C
  003e6		 |$M129|

; 229  :     PMLOGMSG(ZONE_INIT, (_T("+%s: thread 0x%08x\r\n"), pszFname, GetCurrentThreadId()));

  003e6	f8df 545c	 ldr         r5,|$LN144@ActivityTi| ; =|dpCurSettings|
  003ea	4604		 mov         r4,r0
  003ec	f8d5 3440	 ldr         r3,[r5,#0x440]
  003f0	f013 0f04	 tst         r3,#4
  003f4	d013		 beq         |$LN44@ActivityTi|
; File c:\wince800\public\common\sdk\inc\kfuncs.h

; 372  :     return __GetUserKData (SYSHANDLE_OFFSET + (SH_CURTHREAD * sizeof(HANDLE)));

  003f6	2008		 movs        r0,#8
  003f8	f000 f800	 bl          __GetUserKData
; File c:\wince800\platform\rrm_ppc_windows\src\drivers\pm\mdd\pmtimer.cpp

; 229  :     PMLOGMSG(ZONE_INIT, (_T("+%s: thread 0x%08x\r\n"), pszFname, GetCurrentThreadId()));

  003fc	f8df 1420	 ldr         r1,|$LN135@ActivityTi| ; =|??_C@_1DC@PONLJKJA@?$AAA?$AAc?$AAt?$AAi?$AAv?$AAi?$AAt?$AAy?$AAT?$AAi?$AAm?$AAe?$AAr?$AAs?$AAT?$AAh?$AAr?$AAe?$AAa?$AAd?$AAP?$AAr?$AAo?$AAc?$AA?$AA@|
; File c:\wince800\public\common\sdk\inc\kfuncs.h

; 372  :     return __GetUserKData (SYSHANDLE_OFFSET + (SH_CURTHREAD * sizeof(HANDLE)));

  00400	4602		 mov         r2,r0
; File c:\wince800\platform\rrm_ppc_windows\src\drivers\pm\mdd\pmtimer.cpp

; 229  :     PMLOGMSG(ZONE_INIT, (_T("+%s: thread 0x%08x\r\n"), pszFname, GetCurrentThreadId()));

  00402	f8df 046c	 ldr         r0,|$LN155@ActivityTi| ; =|??_C@_1CK@KPKINJCK@?$AA?$CL?$AA?$CF?$AAs?$AA?3?$AA?5?$AAt?$AAh?$AAr?$AAe?$AAa?$AAd?$AA?5?$AA0?$AAx?$AA?$CF?$AA0?$AA8?$AAx?$AA?$AN?$AA?6?$AA?$AA@|
  00406	f000 f800	 bl          NKDbgPrintfW
; File c:\wince800\public\common\sdk\inc\kfuncs.h

; 372  :     return __GetUserKData (SYSHANDLE_OFFSET + (SH_CURTHREAD * sizeof(HANDLE)));

  0040a	2008		 movs        r0,#8
  0040c	f000 f800	 bl          __GetUserKData
; File c:\wince800\platform\rrm_ppc_windows\src\drivers\pm\mdd\pmtimer.cpp

; 229  :     PMLOGMSG(ZONE_INIT, (_T("+%s: thread 0x%08x\r\n"), pszFname, GetCurrentThreadId()));

  00410	f8df 140c	 ldr         r1,|$LN135@ActivityTi| ; =|??_C@_1DC@PONLJKJA@?$AAA?$AAc?$AAt?$AAi?$AAv?$AAi?$AAt?$AAy?$AAT?$AAi?$AAm?$AAe?$AAr?$AAs?$AAT?$AAh?$AAr?$AAe?$AAa?$AAd?$AAP?$AAr?$AAo?$AAc?$AA?$AA@|
; File c:\wince800\public\common\sdk\inc\kfuncs.h

; 372  :     return __GetUserKData (SYSHANDLE_OFFSET + (SH_CURTHREAD * sizeof(HANDLE)));

  00414	4602		 mov         r2,r0
; File c:\wince800\platform\rrm_ppc_windows\src\drivers\pm\mdd\pmtimer.cpp

; 229  :     PMLOGMSG(ZONE_INIT, (_T("+%s: thread 0x%08x\r\n"), pszFname, GetCurrentThreadId()));

  00416	f8df 0458	 ldr         r0,|$LN155@ActivityTi| ; =|??_C@_1CK@KPKINJCK@?$AA?$CL?$AA?$CF?$AAs?$AA?3?$AA?5?$AAt?$AAh?$AAr?$AAe?$AAa?$AAd?$AA?5?$AA0?$AAx?$AA?$CF?$AA0?$AA8?$AAx?$AA?$AN?$AA?6?$AA?$AA@|
  0041a	f000 f800	 bl          CeLogMsg
  0041e		 |$LN44@ActivityTi|

; 230  : 
; 231  :     // set the thread priority
; 232  :     if(!GetPMThreadPriority(_T("TimerPriority256"), &iPriority)) {

  0041e	f8df 044c	 ldr         r0,|$LN154@ActivityTi| ; =|??_C@_1CC@CNEGHLPH@?$AAT?$AAi?$AAm?$AAe?$AAr?$AAP?$AAr?$AAi?$AAo?$AAr?$AAi?$AAt?$AAy?$AA2?$AA5?$AA6?$AA?$AA@|
  00422	a903		 add         r1,sp,#0xC
  00424	f000 f800	 bl          GetPMThreadPriority
  00428	b910		 cbnz        r0,|$LN123@ActivityTi|

; 233  :         iPriority = DEF_ACTIVITY_TIMER_THREAD_PRIORITY;

  0042a	21f9		 movs        r1,#0xF9
  0042c	9103		 str         r1,[sp,#0xC]
  0042e	e000		 b           |$LN41@ActivityTi|
  00430		 |$LN123@ActivityTi|
  00430	9903		 ldr         r1,[sp,#0xC]
  00432		 |$LN41@ActivityTi|

; 234  :     }
; 235  :     CeSetThreadPriority(GetCurrentThread(), iPriority);

  00432	2041		 movs        r0,#0x41
  00434	f000 f800	 bl          CeSetThreadPriority

; 236  : 
; 237  :     // initialize the list of activity timers
; 238  :     if(ActivityTimerInitList() != ERROR_SUCCESS) {

  00438	f000 f800	 bl          |?ActivityTimerInitList@@YAKXZ|
  0043c	f8df 7428	 ldr         r7,|$LN153@ActivityTi| ; =|gppActivityTimers|
  00440	b190		 cbz         r0,|$LN40@ActivityTi|

; 239  :         PMLOGMSG(ZONE_WARN, (_T("%s: ActivityTimerInitList() failed\r\n"), pszFname));

  00442	f8d5 3440	 ldr         r3,[r5,#0x440]
  00446	f013 0f02	 tst         r3,#2
  0044a	f000 81bd	 beq         |$LN4@ActivityTi|
  0044e	f8df 13d0	 ldr.w       r1,|$LN135@ActivityTi| ; =|??_C@_1DC@PONLJKJA@?$AAA?$AAc?$AAt?$AAi?$AAv?$AAi?$AAt?$AAy?$AAT?$AAi?$AAm?$AAe?$AAr?$AAs?$AAT?$AAh?$AAr?$AAe?$AAa?$AAd?$AAP?$AAr?$AAo?$AAc?$AA?$AA@|
  00452	f8df 0410	 ldr         r0,|$LN152@ActivityTi| ; =|??_C@_1EK@ICLAIDMF@?$AA?$CF?$AAs?$AA?3?$AA?5?$AAA?$AAc?$AAt?$AAi?$AAv?$AAi?$AAt?$AAy?$AAT?$AAi?$AAm?$AAe?$AAr?$AAI?$AAn?$AAi?$AAt?$AAL?$AAi?$AAs?$AAt?$AA?$CI?$AA?$CJ?$AA?5?$AAf?$AAa?$AAi?$AAl@|
  00456	f000 f800	 bl          NKDbgPrintfW
  0045a	f8df 0408	 ldr         r0,|$LN152@ActivityTi| ; =|??_C@_1EK@ICLAIDMF@?$AA?$CF?$AAs?$AA?3?$AA?5?$AAA?$AAc?$AAt?$AAi?$AAv?$AAi?$AAt?$AAy?$AAT?$AAi?$AAm?$AAe?$AAr?$AAI?$AAn?$AAi?$AAt?$AAL?$AAi?$AAs?$AAt?$AA?$CI?$AA?$CJ?$AA?5?$AAf?$AAa?$AAi?$AAl@|
  0045e		 |$LN127@ActivityTi|
  0045e	f8df 13c0	 ldr.w       r1,|$LN135@ActivityTi| ; =|??_C@_1DC@PONLJKJA@?$AAA?$AAc?$AAt?$AAi?$AAv?$AAi?$AAt?$AAy?$AAT?$AAi?$AAm?$AAe?$AAr?$AAs?$AAT?$AAh?$AAr?$AAe?$AAa?$AAd?$AAP?$AAr?$AAo?$AAc?$AA?$AA@|
  00462	f000 f800	 bl          CeLogMsg

; 240  :         goto done;

  00466	e1af		 b           |$LN4@ActivityTi|
  00468		 |$LN40@ActivityTi|

; 241  :     }
; 242  : 
; 243  :     // create a dummy event that's never signaled
; 244  :     hevDummy = CreateEvent(NULL, FALSE, FALSE, NULL);

  00468	2300		 movs        r3,#0
  0046a	2200		 movs        r2,#0
  0046c	2100		 movs        r1,#0
  0046e	2000		 movs        r0,#0
  00470	f000 f800	 bl          CreateEventW
  00474	4681		 mov         r9,r0
  00476	9002		 str         r0,[sp,#8]

; 245  :     if(hevDummy == NULL) {

  00478	b970		 cbnz        r0,|$LN38@ActivityTi|

; 246  :         PMLOGMSG(ZONE_WARN, (_T("%s: Couldn't create dummy event\r\n"), pszFname));

  0047a	f8d5 3440	 ldr         r3,[r5,#0x440]
  0047e	f013 0f02	 tst         r3,#2
  00482	f000 81a1	 beq         |$LN4@ActivityTi|
  00486	f8df 1398	 ldr.w       r1,|$LN135@ActivityTi| ; =|??_C@_1DC@PONLJKJA@?$AAA?$AAc?$AAt?$AAi?$AAv?$AAi?$AAt?$AAy?$AAT?$AAi?$AAm?$AAe?$AAr?$AAs?$AAT?$AAh?$AAr?$AAe?$AAa?$AAd?$AAP?$AAr?$AAo?$AAc?$AA?$AA@|
  0048a	f8df 03d4	 ldr.w       r0,|$LN151@ActivityTi| ; =|??_C@_1EE@COCBKOJP@?$AA?$CF?$AAs?$AA?3?$AA?5?$AAC?$AAo?$AAu?$AAl?$AAd?$AAn?$AA?8?$AAt?$AA?5?$AAc?$AAr?$AAe?$AAa?$AAt?$AAe?$AA?5?$AAd?$AAu?$AAm?$AAm?$AAy?$AA?5?$AAe?$AAv?$AAe?$AAn?$AAt?$AA?$AN@|
  0048e	f000 f800	 bl          NKDbgPrintfW
  00492	f8df 03cc	 ldr.w       r0,|$LN151@ActivityTi| ; =|??_C@_1EE@COCBKOJP@?$AA?$CF?$AAs?$AA?3?$AA?5?$AAC?$AAo?$AAu?$AAl?$AAd?$AAn?$AA?8?$AAt?$AA?5?$AAc?$AAr?$AAe?$AAa?$AAt?$AAe?$AA?5?$AAd?$AAu?$AAm?$AAm?$AAy?$AA?5?$AAe?$AAv?$AAe?$AAn?$AAt?$AA?$AN@|

; 394  :             fDone = TRUE;
; 395  :         }
; 396  :     }
; 397  : 
; 398  : done:

  00496	e7e2		 b           |$LN127@ActivityTi|
  00498		 |$LN38@ActivityTi|

; 247  :         goto done;
; 248  :     }
; 249  : 
; 250  :     // set up the list of events
; 251  :     dwNumEvents = 0;
; 252  :     hEvents[dwNumEvents++] = ghevPmShutdown;

  00498	f8df 33c0	 ldr.w       r3,|$LN150@ActivityTi| ; =|ghevPmShutdown|

; 253  :     hEvents[dwNumEvents++] = ghevTimerResume;

  0049c	f04f 0802	 mov         r8,#2
  004a0	f8cd 8010	 str         r8,[sp,#0x10]
  004a4	681b		 ldr         r3,[r3]
  004a6	9306		 str         r3,[sp,#0x18]
  004a8	f8df 33ac	 ldr.w       r3,|$LN149@ActivityTi| ; =|ghevTimerResume|
  004ac	681b		 ldr         r3,[r3]
  004ae	9307		 str         r3,[sp,#0x1C]

; 254  :     PMLOCK();

  004b0	f000 f800	 bl          PmLock

; 255  :     if(gppActivityTimers[0] == NULL) {

  004b4	6838		 ldr         r0,[r7]
  004b6	6803		 ldr         r3,[r0]
  004b8	b923		 cbnz        r3,|$LN116@ActivityTi|

; 256  :         // no activity timers defined
; 257  :         PmFree(gppActivityTimers);

  004ba	f000 f800	 bl          PmFree

; 258  :         gppActivityTimers = NULL;

  004be	2300		 movs        r3,#0
  004c0	603b		 str         r3,[r7]

; 259  :     } else {

  004c2	e010		 b           |$LN33@ActivityTi|
  004c4		 |$LN116@ActivityTi|

; 260  :         // copy activity timer events into the event list
; 261  :         while(dwNumEvents < _countof(hEvents) && gppActivityTimers[dwNumEvents - cdwTimerBaseIndex] != NULL) {

  004c4	ab06		 add         r3,sp,#0x18
  004c6	f110 0208	 adds        r2,r0,#8
  004ca	1a19		 subs        r1,r3,r0
  004cc		 |$LL34@ActivityTi|
  004cc	f852 3c08	 ldr         r3,[r2,#-8]
  004d0	b13b		 cbz         r3,|$LN124@ActivityTi|

; 262  :             hEvents[dwNumEvents] = gppActivityTimers[dwNumEvents - cdwTimerBaseIndex]->hevReset;

  004d2	68db		 ldr         r3,[r3,#0xC]

; 263  :             dwNumEvents++;

  004d4	f108 0801	 add         r8,r8,#1
  004d8	508b		 str         r3,[r1,r2]
  004da	3204		 adds        r2,#4
  004dc	f1b8 0f40	 cmp         r8,#0x40
  004e0	d3f4		 bcc         |$LL34@ActivityTi|
  004e2		 |$LN124@ActivityTi|
  004e2	f8cd 8010	 str         r8,[sp,#0x10]
  004e6		 |$LN33@ActivityTi|

; 264  :         }
; 265  :     }
; 266  :     PMUNLOCK();

  004e6	f000 f800	 bl          PmUnlock
; File c:\wince800\public\common\sdk\inc\kfuncs.h

; 244  :     return EventModify(h,EVENT_SET);

  004ea	2103		 movs        r1,#3
  004ec	4620		 mov         r0,r4
  004ee	f000 f800	 bl          EventModify
; File c:\wince800\platform\rrm_ppc_windows\src\drivers\pm\mdd\pmtimer.cpp

; 274  :         PMLOGMSG(ZONE_INIT || ZONE_WARN, (_T("%s: no activity timers defined, exiting\r\n"), pszFname));

  004f2	f8d5 3440	 ldr         r3,[r5,#0x440]
  004f6	f1b8 0f02	 cmp         r8,#2
  004fa	d812		 bhi         |$LN32@ActivityTi|
  004fc	f013 0f04	 tst         r3,#4
  00500	d102		 bne         |$LN50@ActivityTi|
  00502	f013 0f02	 tst         r3,#2
  00506	d007		 beq         |$LN51@ActivityTi|
  00508		 |$LN50@ActivityTi|
  00508	49c5		 ldr         r1,|$LN135@ActivityTi| ; =|??_C@_1DC@PONLJKJA@?$AAA?$AAc?$AAt?$AAi?$AAv?$AAi?$AAt?$AAy?$AAT?$AAi?$AAm?$AAe?$AAr?$AAs?$AAT?$AAh?$AAr?$AAe?$AAa?$AAd?$AAP?$AAr?$AAo?$AAc?$AA?$AA@|
  0050a	48d2		 ldr         r0,|$LN148@ActivityTi| ; =|??_C@_1FE@EDIGHKLF@?$AA?$CF?$AAs?$AA?3?$AA?5?$AAn?$AAo?$AA?5?$AAa?$AAc?$AAt?$AAi?$AAv?$AAi?$AAt?$AAy?$AA?5?$AAt?$AAi?$AAm?$AAe?$AAr?$AAs?$AA?5?$AAd?$AAe?$AAf?$AAi?$AAn?$AAe?$AAd?$AA?0?$AA?5@|
  0050c	f000 f800	 bl          NKDbgPrintfW
  00510	49c3		 ldr         r1,|$LN135@ActivityTi| ; =|??_C@_1DC@PONLJKJA@?$AAA?$AAc?$AAt?$AAi?$AAv?$AAi?$AAt?$AAy?$AAT?$AAi?$AAm?$AAe?$AAr?$AAs?$AAT?$AAh?$AAr?$AAe?$AAa?$AAd?$AAP?$AAr?$AAo?$AAc?$AA?$AA@|
  00512	48d0		 ldr         r0,|$LN148@ActivityTi| ; =|??_C@_1FE@EDIGHKLF@?$AA?$CF?$AAs?$AA?3?$AA?5?$AAn?$AAo?$AA?5?$AAa?$AAc?$AAt?$AAi?$AAv?$AAi?$AAt?$AAy?$AA?5?$AAt?$AAi?$AAm?$AAe?$AAr?$AAs?$AA?5?$AAd?$AAe?$AAf?$AAi?$AAn?$AAe?$AAd?$AA?0?$AA?5@|
  00514	f000 f800	 bl          CeLogMsg
  00518		 |$LN51@ActivityTi|

; 275  :         Sleep(1000);            // don't want PM initialization to fail when we exit

  00518	f44f 707a	 mov         r0,#0x3E8
  0051c	f000 f800	 bl          Sleep

; 394  :             fDone = TRUE;
; 395  :         }
; 396  :     }
; 397  : 
; 398  : done:

  00520	e14f		 b           |$done$158|
  00522		 |$LN32@ActivityTi|

; 276  :         goto done;
; 277  :     }
; 278  : 
; 279  :     // wait for these events to get signaled
; 280  :     PMLOGMSG(ZONE_TIMERS, (_T("%s: entering wait loop, %d timers total\r\n"),
; 281  :         pszFname, dwNumEvents - cdwTimerBaseIndex));

  00522	f413 5f00	 tst         r3,#0x2000
  00526	d00b		 beq         |$LN52@ActivityTi|
  00528	49bd		 ldr         r1,|$LN135@ActivityTi| ; =|??_C@_1DC@PONLJKJA@?$AAA?$AAc?$AAt?$AAi?$AAv?$AAi?$AAt?$AAy?$AAT?$AAi?$AAm?$AAe?$AAr?$AAs?$AAT?$AAh?$AAr?$AAe?$AAa?$AAd?$AAP?$AAr?$AAo?$AAc?$AA?$AA@|
  0052a	48c9		 ldr         r0,|$LN147@ActivityTi| ; =|??_C@_1FE@OEAHGMJG@?$AA?$CF?$AAs?$AA?3?$AA?5?$AAe?$AAn?$AAt?$AAe?$AAr?$AAi?$AAn?$AAg?$AA?5?$AAw?$AAa?$AAi?$AAt?$AA?5?$AAl?$AAo?$AAo?$AAp?$AA?0?$AA?5?$AA?$CF?$AAd?$AA?5?$AAt?$AAi?$AAm?$AAe?$AAr@|
  0052c	f1a8 0202	 sub         r2,r8,#2
  00530	f000 f800	 bl          NKDbgPrintfW
  00534	49ba		 ldr         r1,|$LN135@ActivityTi| ; =|??_C@_1DC@PONLJKJA@?$AAA?$AAc?$AAt?$AAi?$AAv?$AAi?$AAt?$AAy?$AAT?$AAi?$AAm?$AAe?$AAr?$AAs?$AAT?$AAh?$AAr?$AAe?$AAa?$AAd?$AAP?$AAr?$AAo?$AAc?$AA?$AA@|
  00536	48c6		 ldr         r0,|$LN147@ActivityTi| ; =|??_C@_1FE@OEAHGMJG@?$AA?$CF?$AAs?$AA?3?$AA?5?$AAe?$AAn?$AAt?$AAe?$AAr?$AAi?$AAn?$AAg?$AA?5?$AAw?$AAa?$AAi?$AAt?$AA?5?$AAl?$AAo?$AAo?$AAp?$AA?0?$AA?5?$AA?$CF?$AAd?$AA?5?$AAt?$AAi?$AAm?$AAe?$AAr@|
  00538	f1a8 0202	 sub         r2,r8,#2
  0053c	f000 f800	 bl          CeLogMsg
  00540		 |$LN52@ActivityTi|

; 282  :     dwWaitInterval = 0;

  00540	f04f 0a00	 mov         r10,#0
  00544		 |$LL30@ActivityTi|

; 284  :         DWORD dwTimeout = GetNextInactivityTimeout(dwWaitInterval);

  00544	4650		 mov         r0,r10
  00546	f000 f800	 bl          |?GetNextInactivityTimeout@@YAKK@Z|
  0054a	4604		 mov         r4,r0

; 285  :         DWORD dwWaitStart = GetTickCount();

  0054c	f000 f800	 bl          GetTickCount

; 286  : 
; 287  :         PMLOGMSG(ZONE_TIMERS, 
; 288  :             (_T("%s: waiting %u (0x%08x) ms for next event, wait interval was %d\r\n"), pszFname,
; 289  :             dwTimeout, dwTimeout, dwWaitInterval));

  00550	f8d5 3440	 ldr         r3,[r5,#0x440]
  00554	4606		 mov         r6,r0
  00556	f413 5f00	 tst         r3,#0x2000
  0055a	d00f		 beq         |$LN54@ActivityTi|
  0055c	49b0		 ldr         r1,|$LN135@ActivityTi| ; =|??_C@_1DC@PONLJKJA@?$AAA?$AAc?$AAt?$AAi?$AAv?$AAi?$AAt?$AAy?$AAT?$AAi?$AAm?$AAe?$AAr?$AAs?$AAT?$AAh?$AAr?$AAe?$AAa?$AAd?$AAP?$AAr?$AAo?$AAc?$AA?$AA@|
  0055e	48bb		 ldr         r0,|$LN146@ActivityTi| ; =|??_C@_1IE@KDGOPIKP@?$AA?$CF?$AAs?$AA?3?$AA?5?$AAw?$AAa?$AAi?$AAt?$AAi?$AAn?$AAg?$AA?5?$AA?$CF?$AAu?$AA?5?$AA?$CI?$AA0?$AAx?$AA?$CF?$AA0?$AA8?$AAx?$AA?$CJ?$AA?5?$AAm?$AAs?$AA?5?$AAf?$AAo?$AAr?$AA?5?$AAn@|
  00560	4623		 mov         r3,r4
  00562	4622		 mov         r2,r4
  00564	f8cd a000	 str         r10,[sp]
  00568	f000 f800	 bl          NKDbgPrintfW
  0056c	49ac		 ldr         r1,|$LN135@ActivityTi| ; =|??_C@_1DC@PONLJKJA@?$AAA?$AAc?$AAt?$AAi?$AAv?$AAi?$AAt?$AAy?$AAT?$AAi?$AAm?$AAe?$AAr?$AAs?$AAT?$AAh?$AAr?$AAe?$AAa?$AAd?$AAP?$AAr?$AAo?$AAc?$AA?$AA@|
  0056e	48b7		 ldr         r0,|$LN146@ActivityTi| ; =|??_C@_1IE@KDGOPIKP@?$AA?$CF?$AAs?$AA?3?$AA?5?$AAw?$AAa?$AAi?$AAt?$AAi?$AAn?$AAg?$AA?5?$AA?$CF?$AAu?$AA?5?$AA?$CI?$AA0?$AAx?$AA?$CF?$AA0?$AA8?$AAx?$AA?$CJ?$AA?5?$AAm?$AAs?$AA?5?$AAf?$AAo?$AAr?$AA?5?$AAn@|
  00570	4623		 mov         r3,r4
  00572	4622		 mov         r2,r4
  00574	f8cd a000	 str         r10,[sp]
  00578	f000 f800	 bl          CeLogMsg
  0057c		 |$LN54@ActivityTi|

; 290  :         dwStatus = WaitForMultipleObjects(dwNumEvents, hEvents, FALSE, dwTimeout);

  0057c	4623		 mov         r3,r4
  0057e	2200		 movs        r2,#0
  00580	a906		 add         r1,sp,#0x18
  00582	4640		 mov         r0,r8
  00584	f000 f800	 bl          WaitForMultipleObjects
  00588	4604		 mov         r4,r0

; 291  :         dwWaitInterval = GetTickCount() - dwWaitStart;

  0058a	f000 f800	 bl          GetTickCount
  0058e	ebb0 0a06	 subs        r10,r0,r6

; 292  : 
; 293  :         // figure out what caused the wakeup
; 294  :         if(dwStatus == (WAIT_OBJECT_0 + 0)) {

  00592	2c00		 cmp         r4,#0
  00594	f000 8108	 beq         |$LN121@ActivityTi|

; 296  :             fDone = TRUE;
; 297  :         } else if(dwStatus == (WAIT_OBJECT_0 + 1)) {

  00598	2c01		 cmp         r4,#1
  0059a	d138		 bne         |$LN26@ActivityTi|

; 298  :             DWORD dwIndex;
; 299  :             PACTIVITY_TIMER pat;
; 300  : 
; 301  :             // we've resumed, so re-enable all activity timers that can be reset
; 302  :             PMLOGMSG(ZONE_TIMERS, (_T("%s: resume event set\r\n"), pszFname));

  0059c	f8d5 3440	 ldr         r3,[r5,#0x440]
  005a0	f413 5f00	 tst         r3,#0x2000
  005a4	d007		 beq         |$LN58@ActivityTi|
  005a6	499e		 ldr         r1,|$LN135@ActivityTi| ; =|??_C@_1DC@PONLJKJA@?$AAA?$AAc?$AAt?$AAi?$AAv?$AAi?$AAt?$AAy?$AAT?$AAi?$AAm?$AAe?$AAr?$AAs?$AAT?$AAh?$AAr?$AAe?$AAa?$AAd?$AAP?$AAr?$AAo?$AAc?$AA?$AA@|
  005a8	48a7		 ldr         r0,|$LN145@ActivityTi| ; =|??_C@_1CO@NMLNBMDI@?$AA?$CF?$AAs?$AA?3?$AA?5?$AAr?$AAe?$AAs?$AAu?$AAm?$AAe?$AA?5?$AAe?$AAv?$AAe?$AAn?$AAt?$AA?5?$AAs?$AAe?$AAt?$AA?$AN?$AA?6?$AA?$AA@|
  005aa	f000 f800	 bl          NKDbgPrintfW
  005ae	499c		 ldr         r1,|$LN135@ActivityTi| ; =|??_C@_1DC@PONLJKJA@?$AAA?$AAc?$AAt?$AAi?$AAv?$AAi?$AAt?$AAy?$AAT?$AAi?$AAm?$AAe?$AAr?$AAs?$AAT?$AAh?$AAr?$AAe?$AAa?$AAd?$AAP?$AAr?$AAo?$AAc?$AA?$AA@|
  005b0	48a5		 ldr         r0,|$LN145@ActivityTi| ; =|??_C@_1CO@NMLNBMDI@?$AA?$CF?$AAs?$AA?3?$AA?5?$AAr?$AAe?$AAs?$AAu?$AAm?$AAe?$AA?5?$AAe?$AAv?$AAe?$AAn?$AAt?$AA?5?$AAs?$AAe?$AAt?$AA?$AN?$AA?6?$AA?$AA@|
  005b2	f000 f800	 bl          CeLogMsg
  005b6		 |$LN58@ActivityTi|

; 303  :             PMLOCK();

  005b6	f000 f800	 bl          PmLock

; 304  :             for(dwIndex = 0; (pat = gppActivityTimers[dwIndex]) != NULL; dwIndex++) {

  005ba	683b		 ldr         r3,[r7]
  005bc	681a		 ldr         r2,[r3]
  005be	2a00		 cmp         r2,#0
  005c0	f000 80d9	 beq         |$LN23@ActivityTi|

; 303  :             PMLOCK();

  005c4	9d02		 ldr         r5,[sp,#8]
  005c6	f04f 0900	 mov         r9,#0
  005ca	2602		 movs        r6,#2
  005cc	ac08		 add         r4,sp,#0x20
  005ce		 |$LL25@ActivityTi|

; 305  :                 DWORD dwEventIndex = dwIndex + cdwTimerBaseIndex;
; 306  :                 if (dwEventIndex < MAXIMUM_WAIT_OBJECTS) {

  005ce	2e40		 cmp         r6,#0x40
  005d0	d208		 bcs         |$LN22@ActivityTi|

; 307  :                     if(hEvents[dwEventIndex] == hevDummy) {

  005d2	6823		 ldr         r3,[r4]
  005d4	42ab		 cmp         r3,r5
  005d6	d101		 bne         |$LN21@ActivityTi|

; 308  :                         hEvents[dwEventIndex] = pat->hevReset;

  005d8	68d3		 ldr         r3,[r2,#0xC]
  005da	6023		 str         r3,[r4]
  005dc		 |$LN21@ActivityTi|

; 309  :                     }
; 310  :                     pat->dwTimeLeft = pat->dwTimeout + dwWaitInterval;

  005dc	6853		 ldr         r3,[r2,#4]
  005de	4453		 add         r3,r3,r10
  005e0	6093		 str         r3,[r2,#8]

; 311  :                 } else {

  005e2	e007		 b           |$LN24@ActivityTi|
  005e4		 |$LN22@ActivityTi|

; 312  :                     ASSERT(FALSE);

  005e4	4a93		 ldr         r2,|$LN140@ActivityTi| ; =|??_C@_1II@KJFLGGMG@?$AAc?$AA?3?$AA?2?$AAw?$AAi?$AAn?$AAc?$AAe?$AA8?$AA0?$AA0?$AA?2?$AAp?$AAl?$AAa?$AAt?$AAf?$AAo?$AAr?$AAm?$AA?2?$AAr?$AAr?$AAm?$AA_?$AAp?$AAp?$AAc?$AA_?$AAw?$AAi?$AAn@|
  005e6	4994		 ldr         r1,|$LN141@ActivityTi| ; =|??_C@_1BA@LEPJIIOK@?$AAU?$AAn?$AAk?$AAn?$AAo?$AAw?$AAn?$AA?$AA@|
  005e8	4891		 ldr         r0,|$LN139@ActivityTi| ; =|??_C@_1FK@FNONLNGN@?$AA?$CF?$AAs?$AA?3?$AA?5?$AAD?$AAE?$AAB?$AAU?$AAG?$AAC?$AAH?$AAK?$AA?5?$AAf?$AAa?$AAi?$AAl?$AAe?$AAd?$AA?5?$AAi?$AAn?$AA?5?$AAf?$AAi?$AAl?$AAe?$AA?5?$AA?$CF?$AAs?$AA?5?$AAa@|
  005ea	f44f 739c	 mov         r3,#0x138
  005ee	f000 f800	 bl          NKDbgPrintfW
  005f2	defe		 __debugbreak
  005f4		 |$LN24@ActivityTi|

; 304  :             for(dwIndex = 0; (pat = gppActivityTimers[dwIndex]) != NULL; dwIndex++) {

  005f4	683b		 ldr         r3,[r7]
  005f6	f109 0904	 add         r9,r9,#4
  005fa	3601		 adds        r6,#1
  005fc	f859 2003	 ldr         r2,[r9,r3]
  00600	3404		 adds        r4,#4
  00602	2a00		 cmp         r2,#0
  00604	d1e3		 bne         |$LL25@ActivityTi|

; 313  :                 }
; 314  :             }
; 315  :             PMUNLOCK();

  00606	4d8f		 ldr         r5,|$LN144@ActivityTi| ; =|dpCurSettings|
  00608	f8dd 9008	 ldr         r9,[sp,#8]
  0060c	e0b3		 b           |$LN23@ActivityTi|
  0060e		 |$LN26@ActivityTi|

; 316  :         } else if(dwStatus == WAIT_TIMEOUT) {

  0060e	f5b4 7f81	 cmp         r4,#0x102
  00612	d174		 bne         |$LN18@ActivityTi|

; 317  :             DWORD dwIndex;
; 318  :             PACTIVITY_TIMER pat;
; 319  : 
; 320  :             // figure out which event(s) timed out
; 321  :             PMLOCK();

  00614	f000 f800	 bl          PmLock

; 322  :             for(dwIndex = 0; (pat = gppActivityTimers[dwIndex]) != NULL; dwIndex++) {

  00618	683b		 ldr         r3,[r7]
  0061a	f04f 0900	 mov         r9,#0
  0061e	681c		 ldr         r4,[r3]
  00620	2c00		 cmp         r4,#0
  00622	d067		 beq         |$LN15@ActivityTi|
  00624	2600		 movs        r6,#0
  00626	f10d 0818	 add         r8,sp,#0x18
  0062a		 |$LL17@ActivityTi|

; 323  :                 if(pat->dwTimeLeft <= dwWaitInterval  && pat->dwTimeLeft != INFINITE) {

  0062a	68a3		 ldr         r3,[r4,#8]
  0062c	4553		 cmp         r3,r10
  0062e	d857		 bhi         |$LN16@ActivityTi|
  00630	f1b3 3fff	 cmp         r3,#0xFFFFFFFF
  00634	d054		 beq         |$LN16@ActivityTi|

; 324  :                     // has the timer really expired?
; 325  :                     if(WaitForSingleObject(pat->hevReset, 0) == WAIT_OBJECT_0) {

  00636	68e0		 ldr         r0,[r4,#0xC]
  00638	2100		 movs        r1,#0
  0063a	f000 f800	 bl          WaitForSingleObject
  0063e	bb08		 cbnz        r0,|$LN13@ActivityTi|
; File c:\wince800\public\common\sdk\inc\kfuncs.h

; 232  :     return EventModify(h,EVENT_RESET);

  00640	6960		 ldr         r0,[r4,#0x14]
  00642	2102		 movs        r1,#2
  00644	f000 f800	 bl          EventModify

; 244  :     return EventModify(h,EVENT_SET);

  00648	6920		 ldr         r0,[r4,#0x10]
  0064a	2103		 movs        r1,#3
  0064c	f000 f800	 bl          EventModify
  00650	6a60		 ldr         r0,[r4,#0x24]
  00652	2103		 movs        r1,#3
  00654	f000 f800	 bl          EventModify
; File c:\wince800\platform\rrm_ppc_windows\src\drivers\pm\mdd\pmtimer.cpp

; 335  :                             pat->pszName));

  00658	f8d5 3440	 ldr         r3,[r5,#0x440]
  0065c	f413 5f00	 tst         r3,#0x2000
  00660	d009		 beq         |$LN62@ActivityTi|
  00662	6822		 ldr         r2,[r4]
  00664	496e		 ldr         r1,|$LN135@ActivityTi| ; =|??_C@_1DC@PONLJKJA@?$AAA?$AAc?$AAt?$AAi?$AAv?$AAi?$AAt?$AAy?$AAT?$AAi?$AAm?$AAe?$AAr?$AAs?$AAT?$AAh?$AAr?$AAe?$AAa?$AAd?$AAP?$AAr?$AAo?$AAc?$AA?$AA@|
  00666	4876		 ldr         r0,|$LN143@ActivityTi| ; =|??_C@_1EK@BCGDOJNJ@?$AA?$CF?$AAs?$AA?3?$AA?5?$AAt?$AAi?$AAm?$AAe?$AAr?$AA?5?$AA?8?$AA?$CF?$AAs?$AA?8?$AA?5?$AAr?$AAe?$AAs?$AAe?$AAt?$AA?5?$AAa?$AAf?$AAt?$AAe?$AAr?$AA?5?$AAt?$AAi?$AAm?$AAe?$AAo@|
  00668	f000 f800	 bl          NKDbgPrintfW
  0066c	6822		 ldr         r2,[r4]
  0066e	496c		 ldr         r1,|$LN135@ActivityTi| ; =|??_C@_1DC@PONLJKJA@?$AAA?$AAc?$AAt?$AAi?$AAv?$AAi?$AAt?$AAy?$AAT?$AAi?$AAm?$AAe?$AAr?$AAs?$AAT?$AAh?$AAr?$AAe?$AAa?$AAd?$AAP?$AAr?$AAo?$AAc?$AA?$AA@|
  00670	4873		 ldr         r0,|$LN143@ActivityTi| ; =|??_C@_1EK@BCGDOJNJ@?$AA?$CF?$AAs?$AA?3?$AA?5?$AAt?$AAi?$AAm?$AAe?$AAr?$AA?5?$AA?8?$AA?$CF?$AAs?$AA?8?$AA?5?$AAr?$AAe?$AAs?$AAe?$AAt?$AA?5?$AAa?$AAf?$AAt?$AAe?$AAr?$AA?5?$AAt?$AAi?$AAm?$AAe?$AAo@|
  00672	f000 f800	 bl          CeLogMsg
  00676		 |$LN62@ActivityTi|

; 336  :                         pat->dwTimeLeft = pat->dwTimeout + dwWaitInterval;

  00676	6863		 ldr         r3,[r4,#4]
  00678	4453		 add         r3,r3,r10
  0067a	60a3		 str         r3,[r4,#8]

; 337  :                         pat->dwResetCount++;

  0067c	69e3		 ldr         r3,[r4,#0x1C]
  0067e	3301		 adds        r3,#1
  00680	61e3		 str         r3,[r4,#0x1C]

; 338  : 
; 339  :                     } else {

  00682	e02d		 b           |$LN16@ActivityTi|
  00684		 |$LN13@ActivityTi|

; 340  :                         // the timer has really expired, update events appropriately
; 341  :                         PMLOGMSG(ZONE_TIMERS, (_T("%s: timer '%s' has expired\r\n"), pszFname,
; 342  :                             pat->pszName));

  00684	f8d5 3440	 ldr         r3,[r5,#0x440]
  00688	f413 5f00	 tst         r3,#0x2000
  0068c	d009		 beq         |$LN64@ActivityTi|
  0068e	6822		 ldr         r2,[r4]
  00690	4963		 ldr         r1,|$LN135@ActivityTi| ; =|??_C@_1DC@PONLJKJA@?$AAA?$AAc?$AAt?$AAi?$AAv?$AAi?$AAt?$AAy?$AAT?$AAi?$AAm?$AAe?$AAr?$AAs?$AAT?$AAh?$AAr?$AAe?$AAa?$AAd?$AAP?$AAr?$AAo?$AAc?$AA?$AA@|
  00692	486a		 ldr         r0,|$LN142@ActivityTi| ; =|??_C@_1DK@FBOGKBMA@?$AA?$CF?$AAs?$AA?3?$AA?5?$AAt?$AAi?$AAm?$AAe?$AAr?$AA?5?$AA?8?$AA?$CF?$AAs?$AA?8?$AA?5?$AAh?$AAa?$AAs?$AA?5?$AAe?$AAx?$AAp?$AAi?$AAr?$AAe?$AAd?$AA?$AN?$AA?6?$AA?$AA@|
  00694	f000 f800	 bl          NKDbgPrintfW
  00698	6822		 ldr         r2,[r4]
  0069a	4961		 ldr         r1,|$LN135@ActivityTi| ; =|??_C@_1DC@PONLJKJA@?$AAA?$AAc?$AAt?$AAi?$AAv?$AAi?$AAt?$AAy?$AAT?$AAi?$AAm?$AAe?$AAr?$AAs?$AAT?$AAh?$AAr?$AAe?$AAa?$AAd?$AAP?$AAr?$AAo?$AAc?$AA?$AA@|
  0069c	4867		 ldr         r0,|$LN142@ActivityTi| ; =|??_C@_1DK@FBOGKBMA@?$AA?$CF?$AAs?$AA?3?$AA?5?$AAt?$AAi?$AAm?$AAe?$AAr?$AA?5?$AA?8?$AA?$CF?$AAs?$AA?8?$AA?5?$AAh?$AAa?$AAs?$AA?5?$AAe?$AAx?$AAp?$AAi?$AAr?$AAe?$AAd?$AA?$AN?$AA?6?$AA?$AA@|
  0069e	f000 f800	 bl          CeLogMsg
  006a2		 |$LN64@ActivityTi|
; File c:\wince800\public\common\sdk\inc\kfuncs.h

; 232  :     return EventModify(h,EVENT_RESET);

  006a2	6920		 ldr         r0,[r4,#0x10]
  006a4	2102		 movs        r1,#2
  006a6	f000 f800	 bl          EventModify

; 244  :     return EventModify(h,EVENT_SET);

  006aa	6960		 ldr         r0,[r4,#0x14]
  006ac	2103		 movs        r1,#3
  006ae	f000 f800	 bl          EventModify
; File c:\wince800\platform\rrm_ppc_windows\src\drivers\pm\mdd\pmtimer.cpp

; 347  :                         if (dwIndex + cdwTimerBaseIndex < _countof(hEvents)) {

  006b2	f109 0302	 add         r3,r9,#2
  006b6	2b40		 cmp         r3,#0x40
  006b8	d204		 bcs         |$LN11@ActivityTi|

; 348  :                             hEvents[dwIndex + cdwTimerBaseIndex] = pat->hevReset;

  006ba	68e3		 ldr         r3,[r4,#0xC]
  006bc	eb06 0208	 add         r2,r6,r8
  006c0	6093		 str         r3,[r2,#8]

; 349  :                         } else {

  006c2	e007		 b           |$LN67@ActivityTi|
  006c4		 |$LN11@ActivityTi|

; 350  :                             ASSERT(FALSE);

  006c4	4a5b		 ldr         r2,|$LN140@ActivityTi| ; =|??_C@_1II@KJFLGGMG@?$AAc?$AA?3?$AA?2?$AAw?$AAi?$AAn?$AAc?$AAe?$AA8?$AA0?$AA0?$AA?2?$AAp?$AAl?$AAa?$AAt?$AAf?$AAo?$AAr?$AAm?$AA?2?$AAr?$AAr?$AAm?$AA_?$AAp?$AAp?$AAc?$AA_?$AAw?$AAi?$AAn@|
  006c6	495c		 ldr         r1,|$LN141@ActivityTi| ; =|??_C@_1BA@LEPJIIOK@?$AAU?$AAn?$AAk?$AAn?$AAo?$AAw?$AAn?$AA?$AA@|
  006c8	4859		 ldr         r0,|$LN139@ActivityTi| ; =|??_C@_1FK@FNONLNGN@?$AA?$CF?$AAs?$AA?3?$AA?5?$AAD?$AAE?$AAB?$AAU?$AAG?$AAC?$AAH?$AAK?$AA?5?$AAf?$AAa?$AAi?$AAl?$AAe?$AAd?$AA?5?$AAi?$AAn?$AA?5?$AAf?$AAi?$AAl?$AAe?$AA?5?$AA?$CF?$AAs?$AA?5?$AAa@|
  006ca	f44f 73af	 mov         r3,#0x15E
  006ce	f000 f800	 bl          NKDbgPrintfW
  006d2	defe		 __debugbreak
  006d4		 |$LN67@ActivityTi|

; 351  :                         }
; 352  : 
; 353  :                         // update counts
; 354  :                         pat->dwTimeLeft = INFINITE;

  006d4	f06f 0300	 mvn         r3,#0
  006d8	60a3		 str         r3,[r4,#8]

; 355  :                         pat->dwExpiredCount++;

  006da	6a23		 ldr         r3,[r4,#0x20]
  006dc	3301		 adds        r3,#1
  006de	6223		 str         r3,[r4,#0x20]
  006e0		 |$LN16@ActivityTi|

; 322  :             for(dwIndex = 0; (pat = gppActivityTimers[dwIndex]) != NULL; dwIndex++) {

  006e0	683b		 ldr         r3,[r7]
  006e2	f109 0901	 add         r9,r9,#1
  006e6	ea5f 0689	 lsls        r6,r9,#2
  006ea	58f4		 ldr         r4,[r6,r3]
  006ec	2c00		 cmp         r4,#0
  006ee	d19c		 bne         |$LL17@ActivityTi|
  006f0	f8dd 8010	 ldr         r8,[sp,#0x10]
  006f4		 |$LN15@ActivityTi|

; 356  :                     }
; 357  :                 }
; 358  :             }
; 359  :             PMUNLOCK();

  006f4	f000 f800	 bl          PmUnlock
  006f8	f8dd 9008	 ldr         r9,[sp,#8]
  006fc	e722		 b           |$LL30@ActivityTi|
  006fe		 |$LN18@ActivityTi|

; 360  :         } else if(dwStatus > (WAIT_OBJECT_0 + 0) && dwStatus < (WAIT_OBJECT_0 + dwNumEvents)) {

  006fe	b3ec		 cbz         r4,|$LN8@ActivityTi|
  00700	4544		 cmp         r4,r8
  00702	d23b		 bcs         |$LN8@ActivityTi|

; 361  :             PACTIVITY_TIMER pat;
; 362  :             DWORD dwEventIndex = dwStatus - WAIT_OBJECT_0;
; 363  : 
; 364  :             PMLOCK();

  00704	f000 f800	 bl          PmLock

; 365  :             
; 366  :             // get a pointer to the timer
; 367  :             pat = gppActivityTimers[dwEventIndex - cdwTimerBaseIndex];

  00708	683b		 ldr         r3,[r7]
  0070a	eb03 0384	 add         r3,r3,r4,lsl #2
  0070e	f853 6c08	 ldr         r6,[r3,#-8]

; 368  : 
; 369  :             // handle its events
; 370  :             DEBUGCHK(pat != NULL);

  00712	b93e		 cbnz        r6,|$LN69@ActivityTi|
  00714	4a47		 ldr         r2,|$LN140@ActivityTi| ; =|??_C@_1II@KJFLGGMG@?$AAc?$AA?3?$AA?2?$AAw?$AAi?$AAn?$AAc?$AAe?$AA8?$AA0?$AA0?$AA?2?$AAp?$AAl?$AAa?$AAt?$AAf?$AAo?$AAr?$AAm?$AA?2?$AAr?$AAr?$AAm?$AA_?$AAp?$AAp?$AAc?$AA_?$AAw?$AAi?$AAn@|
  00716	4846		 ldr         r0,|$LN139@ActivityTi| ; =|??_C@_1FK@FNONLNGN@?$AA?$CF?$AAs?$AA?3?$AA?5?$AAD?$AAE?$AAB?$AAU?$AAG?$AAC?$AAH?$AAK?$AA?5?$AAf?$AAa?$AAi?$AAl?$AAe?$AAd?$AA?5?$AAi?$AAn?$AA?5?$AAf?$AAi?$AAl?$AAe?$AA?5?$AA?$CF?$AAs?$AA?5?$AAa@|
  00718	f44f 73b9	 mov         r3,#0x172
  0071c	4629		 mov         r1,r5
  0071e	f000 f800	 bl          NKDbgPrintfW
  00722	defe		 __debugbreak
  00724		 |$LN69@ActivityTi|

; 371  :             if(pat->dwTimeout == 0) {

  00724	6873		 ldr         r3,[r6,#4]
  00726	b913		 cbnz        r3,|$LN7@ActivityTi|

; 372  :                 // we're not using the event, so ignore it
; 373  :                 pat->dwTimeLeft = INFINITE;

  00728	f06f 0300	 mvn         r3,#0

; 374  :             } else {

  0072c	e01f		 b           |$LN125@ActivityTi|
  0072e		 |$LN7@ActivityTi|

; 375  :                 PMLOGMSG(ZONE_TIMERS, (_T("%s: timer '%s' reset\r\n"), pszFname, pat->pszName));

  0072e	f8d5 3440	 ldr         r3,[r5,#0x440]
  00732	f413 5f00	 tst         r3,#0x2000
  00736	d009		 beq         |$LN70@ActivityTi|
  00738	6832		 ldr         r2,[r6]
  0073a	4939		 ldr         r1,|$LN135@ActivityTi| ; =|??_C@_1DC@PONLJKJA@?$AAA?$AAc?$AAt?$AAi?$AAv?$AAi?$AAt?$AAy?$AAT?$AAi?$AAm?$AAe?$AAr?$AAs?$AAT?$AAh?$AAr?$AAe?$AAa?$AAd?$AAP?$AAr?$AAo?$AAc?$AA?$AA@|
  0073c	483b		 ldr         r0,|$LN138@ActivityTi| ; =|??_C@_1CO@PLDCBMAK@?$AA?$CF?$AAs?$AA?3?$AA?5?$AAt?$AAi?$AAm?$AAe?$AAr?$AA?5?$AA?8?$AA?$CF?$AAs?$AA?8?$AA?5?$AAr?$AAe?$AAs?$AAe?$AAt?$AA?$AN?$AA?6?$AA?$AA@|
  0073e	f000 f800	 bl          NKDbgPrintfW
  00742	6832		 ldr         r2,[r6]
  00744	4936		 ldr         r1,|$LN135@ActivityTi| ; =|??_C@_1DC@PONLJKJA@?$AAA?$AAc?$AAt?$AAi?$AAv?$AAi?$AAt?$AAy?$AAT?$AAi?$AAm?$AAe?$AAr?$AAs?$AAT?$AAh?$AAr?$AAe?$AAa?$AAd?$AAP?$AAr?$AAo?$AAc?$AA?$AA@|
  00746	4839		 ldr         r0,|$LN138@ActivityTi| ; =|??_C@_1CO@PLDCBMAK@?$AA?$CF?$AAs?$AA?3?$AA?5?$AAt?$AAi?$AAm?$AAe?$AAr?$AA?5?$AA?8?$AA?$CF?$AAs?$AA?8?$AA?5?$AAr?$AAe?$AAs?$AAe?$AAt?$AA?$AN?$AA?6?$AA?$AA@|
  00748	f000 f800	 bl          CeLogMsg
  0074c		 |$LN70@ActivityTi|
; File c:\wince800\public\common\sdk\inc\kfuncs.h

; 232  :     return EventModify(h,EVENT_RESET);

  0074c	6970		 ldr         r0,[r6,#0x14]
  0074e	2102		 movs        r1,#2
  00750	f000 f800	 bl          EventModify

; 244  :     return EventModify(h,EVENT_SET);

  00754	6930		 ldr         r0,[r6,#0x10]
  00756	2103		 movs        r1,#3
  00758	f000 f800	 bl          EventModify
  0075c	6a70		 ldr         r0,[r6,#0x24]
  0075e	2103		 movs        r1,#3
  00760	f000 f800	 bl          EventModify
; File c:\wince800\platform\rrm_ppc_windows\src\drivers\pm\mdd\pmtimer.cpp

; 383  :                 hEvents[dwEventIndex] = hevDummy;

  00764	ab06		 add         r3,sp,#0x18
  00766	f843 9024	 str         r9,[r3,r4,lsl #2]

; 384  : 
; 385  :                 // update time left on the timer, compensating for the update
; 386  :                 // that will occur in GetNextInactivityTimeout().
; 387  :                 pat->dwTimeLeft = pat->dwTimeout + dwWaitInterval;

  0076a	6873		 ldr         r3,[r6,#4]
  0076c	4453		 add         r3,r3,r10
  0076e		 |$LN125@ActivityTi|
  0076e	60b3		 str         r3,[r6,#8]

; 388  :             }
; 389  :             pat->dwResetCount++;

  00770	69f3		 ldr         r3,[r6,#0x1C]
  00772	3301		 adds        r3,#1
  00774	61f3		 str         r3,[r6,#0x1C]
  00776		 |$LN23@ActivityTi|

; 390  :             PMUNLOCK();

  00776	f000 f800	 bl          PmUnlock

; 283  :     while(!fDone) {

  0077a	e6e3		 b           |$LL30@ActivityTi|
  0077c		 |$LN8@ActivityTi|

; 391  :         } else {
; 392  :             PMLOGMSG(ZONE_WARN, (_T("%s: WaitForMultipleObjects() returned %d, status is %d\r\n"),
; 393  :                 pszFname, dwStatus, GetLastError())); 

  0077c	f8d5 3440	 ldr         r3,[r5,#0x440]
  00780	f013 0f02	 tst         r3,#2
  00784	d01d		 beq         |$done$158|
  00786	f000 f800	 bl          GetLastError
  0078a	4925		 ldr         r1,|$LN135@ActivityTi| ; =|??_C@_1DC@PONLJKJA@?$AAA?$AAc?$AAt?$AAi?$AAv?$AAi?$AAt?$AAy?$AAT?$AAi?$AAm?$AAe?$AAr?$AAs?$AAT?$AAh?$AAr?$AAe?$AAa?$AAd?$AAP?$AAr?$AAo?$AAc?$AA?$AA@|
  0078c	4603		 mov         r3,r0
  0078e	4826		 ldr         r0,|$LN137@ActivityTi| ; =|??_C@_1HC@LPAHHGNK@?$AA?$CF?$AAs?$AA?3?$AA?5?$AAW?$AAa?$AAi?$AAt?$AAF?$AAo?$AAr?$AAM?$AAu?$AAl?$AAt?$AAi?$AAp?$AAl?$AAe?$AAO?$AAb?$AAj?$AAe?$AAc?$AAt?$AAs?$AA?$CI?$AA?$CJ?$AA?5?$AAr?$AAe?$AAt@|
  00790	4622		 mov         r2,r4
  00792	f000 f800	 bl          NKDbgPrintfW
  00796	f000 f800	 bl          GetLastError
  0079a	4921		 ldr         r1,|$LN135@ActivityTi| ; =|??_C@_1DC@PONLJKJA@?$AAA?$AAc?$AAt?$AAi?$AAv?$AAi?$AAt?$AAy?$AAT?$AAi?$AAm?$AAe?$AAr?$AAs?$AAT?$AAh?$AAr?$AAe?$AAa?$AAd?$AAP?$AAr?$AAo?$AAc?$AA?$AA@|
  0079c	4603		 mov         r3,r0
  0079e	4822		 ldr         r0,|$LN137@ActivityTi| ; =|??_C@_1HC@LPAHHGNK@?$AA?$CF?$AAs?$AA?3?$AA?5?$AAW?$AAa?$AAi?$AAt?$AAF?$AAo?$AAr?$AAM?$AAu?$AAl?$AAt?$AAi?$AAp?$AAl?$AAe?$AAO?$AAb?$AAj?$AAe?$AAc?$AAt?$AAs?$AA?$CI?$AA?$CJ?$AA?5?$AAr?$AAe?$AAt@|
  007a0	4622		 mov         r2,r4
  007a2	f000 f800	 bl          CeLogMsg
  007a6	e00c		 b           |$done$158|
  007a8		 |$LN121@ActivityTi|

; 295  :             PMLOGMSG(ZONE_WARN, (_T("%s: shutdown event set\r\n"), pszFname));

  007a8	f8d5 3440	 ldr         r3,[r5,#0x440]
  007ac	f013 0f02	 tst         r3,#2
  007b0	d007		 beq         |$done$158|
  007b2	491b		 ldr         r1,|$LN135@ActivityTi| ; =|??_C@_1DC@PONLJKJA@?$AAA?$AAc?$AAt?$AAi?$AAv?$AAi?$AAt?$AAy?$AAT?$AAi?$AAm?$AAe?$AAr?$AAs?$AAT?$AAh?$AAr?$AAe?$AAa?$AAd?$AAP?$AAr?$AAo?$AAc?$AA?$AA@|
  007b4	481b		 ldr         r0,|$LN136@ActivityTi| ; =|??_C@_1DC@FJNGMGD@?$AA?$CF?$AAs?$AA?3?$AA?5?$AAs?$AAh?$AAu?$AAt?$AAd?$AAo?$AAw?$AAn?$AA?5?$AAe?$AAv?$AAe?$AAn?$AAt?$AA?5?$AAs?$AAe?$AAt?$AA?$AN?$AA?6?$AA?$AA@|
  007b6	f000 f800	 bl          NKDbgPrintfW
  007ba	4919		 ldr         r1,|$LN135@ActivityTi| ; =|??_C@_1DC@PONLJKJA@?$AAA?$AAc?$AAt?$AAi?$AAv?$AAi?$AAt?$AAy?$AAT?$AAi?$AAm?$AAe?$AAr?$AAs?$AAT?$AAh?$AAr?$AAe?$AAa?$AAd?$AAP?$AAr?$AAo?$AAc?$AA?$AA@|
  007bc	4819		 ldr         r0,|$LN136@ActivityTi| ; =|??_C@_1DC@FJNGMGD@?$AA?$CF?$AAs?$AA?3?$AA?5?$AAs?$AAh?$AAu?$AAt?$AAd?$AAo?$AAw?$AAn?$AA?5?$AAe?$AAv?$AAe?$AAn?$AAt?$AA?5?$AAs?$AAe?$AAt?$AA?$AN?$AA?6?$AA?$AA@|
  007be	f000 f800	 bl          CeLogMsg
  007c2		 |$done$158|

; 399  :     // release resources
; 400  :     if(hevDummy != NULL) CloseHandle(hevDummy);

  007c2	4648		 mov         r0,r9
  007c4	f000 f800	 bl          CloseHandle
  007c8		 |$LN4@ActivityTi|

; 401  :     PMLOCK();

  007c8	f000 f800	 bl          PmLock

; 402  :     if(gppActivityTimers != NULL) {

  007cc	6838		 ldr         r0,[r7]
  007ce	b188		 cbz         r0,|$LN3@ActivityTi|

; 403  :         DWORD dwIndex = 0;
; 404  :         while(gppActivityTimers[dwIndex] != NULL) {

  007d0	6803		 ldr         r3,[r0]
  007d2	2400		 movs        r4,#0
  007d4	b153		 cbz         r3,|$LN1@ActivityTi|
  007d6	4602		 mov         r2,r0
  007d8		 |$LL2@ActivityTi|

; 405  :             ActivityTimerDestroy(gppActivityTimers[dwIndex]);

  007d8	6810		 ldr         r0,[r2]
  007da	f000 f800	 bl          ActivityTimerDestroy
  007de	6838		 ldr         r0,[r7]

; 406  :             dwIndex++;

  007e0	3401		 adds        r4,#1
  007e2	eb00 0284	 add         r2,r0,r4,lsl #2
  007e6	6813		 ldr         r3,[r2]
  007e8	2b00		 cmp         r3,#0
  007ea	d1f5		 bne         |$LL2@ActivityTi|
  007ec		 |$LN1@ActivityTi|

; 407  :         }
; 408  :         PmFree(gppActivityTimers);

  007ec	f000 f800	 bl          PmFree

; 409  :         gppActivityTimers = NULL;

  007f0	2300		 movs        r3,#0
  007f2	603b		 str         r3,[r7]
  007f4		 |$LN3@ActivityTi|

; 410  :     }
; 411  :     PMUNLOCK();

  007f4	f000 f800	 bl          PmUnlock

; 412  : 
; 413  :     PMLOGMSG(ZONE_INIT | ZONE_WARN, (_T("-%s: exiting\r\n"), pszFname));

  007f8	f8d5 3440	 ldr         r3,[r5,#0x440]
  007fc	f013 0f06	 tst         r3,#6
  00800	d007		 beq         |$LN74@ActivityTi|
  00802	4907		 ldr         r1,|$LN135@ActivityTi| ; =|??_C@_1DC@PONLJKJA@?$AAA?$AAc?$AAt?$AAi?$AAv?$AAi?$AAt?$AAy?$AAT?$AAi?$AAm?$AAe?$AAr?$AAs?$AAT?$AAh?$AAr?$AAe?$AAa?$AAd?$AAP?$AAr?$AAo?$AAc?$AA?$AA@|
  00804	4805		 ldr         r0,|$LN134@ActivityTi| ; =|??_C@_1BO@HFODHNIK@?$AA?9?$AA?$CF?$AAs?$AA?3?$AA?5?$AAe?$AAx?$AAi?$AAt?$AAi?$AAn?$AAg?$AA?$AN?$AA?6?$AA?$AA@|
  00806	f000 f800	 bl          NKDbgPrintfW
  0080a	4905		 ldr         r1,|$LN135@ActivityTi| ; =|??_C@_1DC@PONLJKJA@?$AAA?$AAc?$AAt?$AAi?$AAv?$AAi?$AAt?$AAy?$AAT?$AAi?$AAm?$AAe?$AAr?$AAs?$AAT?$AAh?$AAr?$AAe?$AAa?$AAd?$AAP?$AAr?$AAo?$AAc?$AA?$AA@|
  0080c	4803		 ldr         r0,|$LN134@ActivityTi| ; =|??_C@_1BO@HFODHNIK@?$AA?9?$AA?$CF?$AAs?$AA?3?$AA?5?$AAe?$AAx?$AAi?$AAt?$AAi?$AAn?$AAg?$AA?$AN?$AA?6?$AA?$AA@|
  0080e	f000 f800	 bl          CeLogMsg
  00812		 |$LN74@ActivityTi|

; 414  :     return 0;

  00812	2000		 movs        r0,#0
  00814		 |$M132|

; 415  : }

  00814	b047		 add         sp,sp,#0x11C
  00816	e8bd 8ff0	 pop         {r4-r11,pc}
  0081a		 |$LN156@ActivityTi|
  0081a		 |$M157|
  0081a	defe		 __debugbreak
  0081c		 |$LN133@ActivityTi|
  0081c		 |$LN134@ActivityTi|
  0081c	0000 0000	 DCD         |??_C@_1BO@HFODHNIK@?$AA?9?$AA?$CF?$AAs?$AA?3?$AA?5?$AAe?$AAx?$AAi?$AAt?$AAi?$AAn?$AAg?$AA?$AN?$AA?6?$AA?$AA@|
  00820		 |$LN135@ActivityTi|
  00820	0000 0000	 DCD         |??_C@_1DC@PONLJKJA@?$AAA?$AAc?$AAt?$AAi?$AAv?$AAi?$AAt?$AAy?$AAT?$AAi?$AAm?$AAe?$AAr?$AAs?$AAT?$AAh?$AAr?$AAe?$AAa?$AAd?$AAP?$AAr?$AAo?$AAc?$AA?$AA@|
  00824		 |$LN136@ActivityTi|
  00824	0000 0000	 DCD         |??_C@_1DC@FJNGMGD@?$AA?$CF?$AAs?$AA?3?$AA?5?$AAs?$AAh?$AAu?$AAt?$AAd?$AAo?$AAw?$AAn?$AA?5?$AAe?$AAv?$AAe?$AAn?$AAt?$AA?5?$AAs?$AAe?$AAt?$AA?$AN?$AA?6?$AA?$AA@|
  00828		 |$LN137@ActivityTi|
  00828	0000 0000	 DCD         |??_C@_1HC@LPAHHGNK@?$AA?$CF?$AAs?$AA?3?$AA?5?$AAW?$AAa?$AAi?$AAt?$AAF?$AAo?$AAr?$AAM?$AAu?$AAl?$AAt?$AAi?$AAp?$AAl?$AAe?$AAO?$AAb?$AAj?$AAe?$AAc?$AAt?$AAs?$AA?$CI?$AA?$CJ?$AA?5?$AAr?$AAe?$AAt@|
  0082c		 |$LN138@ActivityTi|
  0082c	0000 0000	 DCD         |??_C@_1CO@PLDCBMAK@?$AA?$CF?$AAs?$AA?3?$AA?5?$AAt?$AAi?$AAm?$AAe?$AAr?$AA?5?$AA?8?$AA?$CF?$AAs?$AA?8?$AA?5?$AAr?$AAe?$AAs?$AAe?$AAt?$AA?$AN?$AA?6?$AA?$AA@|
  00830		 |$LN139@ActivityTi|
  00830	0000 0000	 DCD         |??_C@_1FK@FNONLNGN@?$AA?$CF?$AAs?$AA?3?$AA?5?$AAD?$AAE?$AAB?$AAU?$AAG?$AAC?$AAH?$AAK?$AA?5?$AAf?$AAa?$AAi?$AAl?$AAe?$AAd?$AA?5?$AAi?$AAn?$AA?5?$AAf?$AAi?$AAl?$AAe?$AA?5?$AA?$CF?$AAs?$AA?5?$AAa@|
  00834		 |$LN140@ActivityTi|
  00834	0000 0000	 DCD         |??_C@_1II@KJFLGGMG@?$AAc?$AA?3?$AA?2?$AAw?$AAi?$AAn?$AAc?$AAe?$AA8?$AA0?$AA0?$AA?2?$AAp?$AAl?$AAa?$AAt?$AAf?$AAo?$AAr?$AAm?$AA?2?$AAr?$AAr?$AAm?$AA_?$AAp?$AAp?$AAc?$AA_?$AAw?$AAi?$AAn@|
  00838		 |$LN141@ActivityTi|
  00838	0000 0000	 DCD         |??_C@_1BA@LEPJIIOK@?$AAU?$AAn?$AAk?$AAn?$AAo?$AAw?$AAn?$AA?$AA@|
  0083c		 |$LN142@ActivityTi|
  0083c	0000 0000	 DCD         |??_C@_1DK@FBOGKBMA@?$AA?$CF?$AAs?$AA?3?$AA?5?$AAt?$AAi?$AAm?$AAe?$AAr?$AA?5?$AA?8?$AA?$CF?$AAs?$AA?8?$AA?5?$AAh?$AAa?$AAs?$AA?5?$AAe?$AAx?$AAp?$AAi?$AAr?$AAe?$AAd?$AA?$AN?$AA?6?$AA?$AA@|
  00840		 |$LN143@ActivityTi|
  00840	0000 0000	 DCD         |??_C@_1EK@BCGDOJNJ@?$AA?$CF?$AAs?$AA?3?$AA?5?$AAt?$AAi?$AAm?$AAe?$AAr?$AA?5?$AA?8?$AA?$CF?$AAs?$AA?8?$AA?5?$AAr?$AAe?$AAs?$AAe?$AAt?$AA?5?$AAa?$AAf?$AAt?$AAe?$AAr?$AA?5?$AAt?$AAi?$AAm?$AAe?$AAo@|
  00844		 |$LN144@ActivityTi|
  00844	0000 0000	 DCD         |dpCurSettings|
  00848		 |$LN145@ActivityTi|
  00848	0000 0000	 DCD         |??_C@_1CO@NMLNBMDI@?$AA?$CF?$AAs?$AA?3?$AA?5?$AAr?$AAe?$AAs?$AAu?$AAm?$AAe?$AA?5?$AAe?$AAv?$AAe?$AAn?$AAt?$AA?5?$AAs?$AAe?$AAt?$AA?$AN?$AA?6?$AA?$AA@|
  0084c		 |$LN146@ActivityTi|
  0084c	0000 0000	 DCD         |??_C@_1IE@KDGOPIKP@?$AA?$CF?$AAs?$AA?3?$AA?5?$AAw?$AAa?$AAi?$AAt?$AAi?$AAn?$AAg?$AA?5?$AA?$CF?$AAu?$AA?5?$AA?$CI?$AA0?$AAx?$AA?$CF?$AA0?$AA8?$AAx?$AA?$CJ?$AA?5?$AAm?$AAs?$AA?5?$AAf?$AAo?$AAr?$AA?5?$AAn@|
  00850		 |$LN147@ActivityTi|
  00850	0000 0000	 DCD         |??_C@_1FE@OEAHGMJG@?$AA?$CF?$AAs?$AA?3?$AA?5?$AAe?$AAn?$AAt?$AAe?$AAr?$AAi?$AAn?$AAg?$AA?5?$AAw?$AAa?$AAi?$AAt?$AA?5?$AAl?$AAo?$AAo?$AAp?$AA?0?$AA?5?$AA?$CF?$AAd?$AA?5?$AAt?$AAi?$AAm?$AAe?$AAr@|
  00854		 |$LN148@ActivityTi|
  00854	0000 0000	 DCD         |??_C@_1FE@EDIGHKLF@?$AA?$CF?$AAs?$AA?3?$AA?5?$AAn?$AAo?$AA?5?$AAa?$AAc?$AAt?$AAi?$AAv?$AAi?$AAt?$AAy?$AA?5?$AAt?$AAi?$AAm?$AAe?$AAr?$AAs?$AA?5?$AAd?$AAe?$AAf?$AAi?$AAn?$AAe?$AAd?$AA?0?$AA?5@|
  00858		 |$LN149@ActivityTi|
  00858	0000 0000	 DCD         |ghevTimerResume|
  0085c		 |$LN150@ActivityTi|
  0085c	0000 0000	 DCD         |ghevPmShutdown|
  00860		 |$LN151@ActivityTi|
  00860	0000 0000	 DCD         |??_C@_1EE@COCBKOJP@?$AA?$CF?$AAs?$AA?3?$AA?5?$AAC?$AAo?$AAu?$AAl?$AAd?$AAn?$AA?8?$AAt?$AA?5?$AAc?$AAr?$AAe?$AAa?$AAt?$AAe?$AA?5?$AAd?$AAu?$AAm?$AAm?$AAy?$AA?5?$AAe?$AAv?$AAe?$AAn?$AAt?$AA?$AN@|
  00864		 |$LN152@ActivityTi|
  00864	0000 0000	 DCD         |??_C@_1EK@ICLAIDMF@?$AA?$CF?$AAs?$AA?3?$AA?5?$AAA?$AAc?$AAt?$AAi?$AAv?$AAi?$AAt?$AAy?$AAT?$AAi?$AAm?$AAe?$AAr?$AAI?$AAn?$AAi?$AAt?$AAL?$AAi?$AAs?$AAt?$AA?$CI?$AA?$CJ?$AA?5?$AAf?$AAa?$AAi?$AAl@|
  00868		 |$LN153@ActivityTi|
  00868	0000 0000	 DCD         |gppActivityTimers|
  0086c		 |$LN154@ActivityTi|
  0086c	0000 0000	 DCD         |??_C@_1CC@CNEGHLPH@?$AAT?$AAi?$AAm?$AAe?$AAr?$AAP?$AAr?$AAi?$AAo?$AAr?$AAi?$AAt?$AAy?$AA2?$AA5?$AA6?$AA?$AA@|
  00870		 |$LN155@ActivityTi|
  00870	0000 0000	 DCD         |??_C@_1CK@KPKINJCK@?$AA?$CL?$AA?$CF?$AAs?$AA?3?$AA?5?$AAt?$AAh?$AAr?$AAe?$AAa?$AAd?$AA?5?$AA0?$AAx?$AA?$CF?$AA0?$AA8?$AAx?$AA?$AN?$AA?6?$AA?$AA@|
  00874		 |$M130|

			 ENDP  ; |ActivityTimersThreadProc|

	END
